---
triple:          'arm64-apple-darwin'
binary-path:     '/Users/kritiverma/Documents/Low Level Design in C++/Splitwise/main'
relocations:
  - { offsetInCU: 0xE5, offset: 0xE5, size: 0x8, addend: 0x0, symName: __ZSt23__is_constant_evaluatedv, symObjAddr: 0x0, symBinAddr: 0x100002728, symSize: 0x8 }
  - { offsetInCU: 0xED, offset: 0xED, size: 0x8, addend: 0x0, symName: __ZSt19piecewise_construct, symObjAddr: 0xBDE0, symBinAddr: 0x100010228, symSize: 0x0 }
  - { offsetInCU: 0x193F, offset: 0x193F, size: 0x8, addend: 0x0, symName: __ZSt19piecewise_construct, symObjAddr: 0xBDE0, symBinAddr: 0x100010228, symSize: 0x0 }
  - { offsetInCU: 0x1CC1F, offset: 0x1CC1F, size: 0x8, addend: 0x0, symName: __ZStL8__ioinit, symObjAddr: 0x109F50, symBinAddr: 0x10001C4D8, symSize: 0x0 }
  - { offsetInCU: 0x34F38, offset: 0x34F38, size: 0x8, addend: 0x0, symName: __ZNSt8__detail30__integer_to_chars_is_unsignedIjEE, symObjAddr: 0xBDE1, symBinAddr: 0x100010229, symSize: 0x0 }
  - { offsetInCU: 0x34F52, offset: 0x34F52, size: 0x8, addend: 0x0, symName: __ZNSt8__detail30__integer_to_chars_is_unsignedImEE, symObjAddr: 0xBDE2, symBinAddr: 0x10001022A, symSize: 0x0 }
  - { offsetInCU: 0x34F6C, offset: 0x34F6C, size: 0x8, addend: 0x0, symName: __ZNSt8__detail30__integer_to_chars_is_unsignedIyEE, symObjAddr: 0xBDE3, symBinAddr: 0x10001022B, symSize: 0x0 }
  - { offsetInCU: 0x35097, offset: 0x35097, size: 0x8, addend: 0x0, symName: __ZNSt8__detail30__integer_to_chars_is_unsignedIoEE, symObjAddr: 0xBDE4, symBinAddr: 0x10001022C, symSize: 0x0 }
  - { offsetInCU: 0x3511F, offset: 0x3511F, size: 0x8, addend: 0x0, symName: __GLOBAL__sub_I_main.cpp, symObjAddr: 0xBDCC, symBinAddr: 0x10000E4F4, symSize: 0x14 }
  - { offsetInCU: 0x35127, offset: 0x35127, size: 0x8, addend: 0x0, symName: __ZSt19piecewise_construct, symObjAddr: 0xBDE0, symBinAddr: 0x100010228, symSize: 0x0 }
  - { offsetInCU: 0x3514B, offset: 0x3514B, size: 0x8, addend: 0x0, symName: __Z41__static_initialization_and_destruction_0v, symObjAddr: 0xBD90, symBinAddr: 0x10000E4B8, symSize: 0x3C }
  - { offsetInCU: 0x35153, offset: 0x35153, size: 0x8, addend: 0x0, symName: __GLOBAL__sub_I_main.cpp, symObjAddr: 0xBDCC, symBinAddr: 0x10000E4F4, symSize: 0x14 }
  - { offsetInCU: 0x3513D, offset: 0x3513D, size: 0x8, addend: 0x0, symName: __ZNSt10_Head_baseILm0ERKNSt7__cxx1112basic_stringIcSt11char_traitsIcESaIcEEELb0EE7_M_headERS8_, symObjAddr: 0xBD78, symBinAddr: 0x10000E4A0, symSize: 0x18 }
  - { offsetInCU: 0x35145, offset: 0x35145, size: 0x8, addend: 0x0, symName: __Z41__static_initialization_and_destruction_0v, symObjAddr: 0xBD90, symBinAddr: 0x10000E4B8, symSize: 0x3C }
  - { offsetInCU: 0x35187, offset: 0x35187, size: 0x8, addend: 0x0, symName: __ZNSt11_Tuple_implILm0EJRKNSt7__cxx1112basic_stringIcSt11char_traitsIcESaIcEEEEE7_M_headERS8_, symObjAddr: 0xBD5C, symBinAddr: 0x10000E484, symSize: 0x1C }
  - { offsetInCU: 0x3518F, offset: 0x3518F, size: 0x8, addend: 0x0, symName: __ZNSt10_Head_baseILm0ERKNSt7__cxx1112basic_stringIcSt11char_traitsIcESaIcEEELb0EE7_M_headERS8_, symObjAddr: 0xBD78, symBinAddr: 0x10000E4A0, symSize: 0x18 }
  - { offsetInCU: 0x3529E, offset: 0x3529E, size: 0x8, addend: 0x0, symName: __ZSt12__get_helperILm0ERKNSt7__cxx1112basic_stringIcSt11char_traitsIcESaIcEEEJEERT0_RSt11_Tuple_implIXT_EJS8_DpT1_EE, symObjAddr: 0xBD40, symBinAddr: 0x10000E468, symSize: 0x1C }
  - { offsetInCU: 0x352A6, offset: 0x352A6, size: 0x8, addend: 0x0, symName: __ZNSt11_Tuple_implILm0EJRKNSt7__cxx1112basic_stringIcSt11char_traitsIcESaIcEEEEE7_M_headERS8_, symObjAddr: 0xBD5C, symBinAddr: 0x10000E484, symSize: 0x1C }
  - { offsetInCU: 0x3534E, offset: 0x3534E, size: 0x8, addend: 0x0, symName: __ZNSt8_Rb_treeINSt7__cxx1112basic_stringIcSt11char_traitsIcESaIcEEESt4pairIKS5_iESt10_Select1stIS8_ESt4lessIS5_ESaIS8_EE13_Rb_tree_implISC_Lb1EEC1Ev, symObjAddr: 0xBCFC, symBinAddr: 0x10000E424, symSize: 0x44 }
  - { offsetInCU: 0x35356, offset: 0x35356, size: 0x8, addend: 0x0, symName: __ZSt12__get_helperILm0ERKNSt7__cxx1112basic_stringIcSt11char_traitsIcESaIcEEEJEERT0_RSt11_Tuple_implIXT_EJS8_DpT1_EE, symObjAddr: 0xBD40, symBinAddr: 0x10000E468, symSize: 0x1C }
  - { offsetInCU: 0x35399, offset: 0x35399, size: 0x8, addend: 0x0, symName: __ZNSt12_Vector_baseIdSaIdEE17_Vector_impl_dataC2EOS2_, symObjAddr: 0xBC8C, symBinAddr: 0x10000E3B4, symSize: 0x70 }
  - { offsetInCU: 0x353A1, offset: 0x353A1, size: 0x8, addend: 0x0, symName: __ZNSt8_Rb_treeINSt7__cxx1112basic_stringIcSt11char_traitsIcESaIcEEESt4pairIKS5_iESt10_Select1stIS8_ESt4lessIS5_ESaIS8_EE13_Rb_tree_implISC_Lb1EEC1Ev, symObjAddr: 0xBCFC, symBinAddr: 0x10000E424, symSize: 0x44 }
  - { offsetInCU: 0x35445, offset: 0x35445, size: 0x8, addend: 0x0, symName: __ZSt4moveIRNSt12_Vector_baseIdSaIdEE12_Vector_implEEONSt16remove_referenceIT_E4typeEOS6_, symObjAddr: 0xBC78, symBinAddr: 0x10000E3A0, symSize: 0x14 }
  - { offsetInCU: 0x3544D, offset: 0x3544D, size: 0x8, addend: 0x0, symName: __ZNSt12_Vector_baseIdSaIdEE17_Vector_impl_dataC2EOS2_, symObjAddr: 0xBC8C, symBinAddr: 0x10000E3B4, symSize: 0x70 }
  - { offsetInCU: 0x35465, offset: 0x35465, size: 0x8, addend: 0x0, symName: __ZNSt12_Vector_baseI4UserSaIS0_EE17_Vector_impl_dataC2EOS3_, symObjAddr: 0xBC08, symBinAddr: 0x10000E330, symSize: 0x70 }
  - { offsetInCU: 0x3546D, offset: 0x3546D, size: 0x8, addend: 0x0, symName: __ZSt4moveIRNSt12_Vector_baseIdSaIdEE12_Vector_implEEONSt16remove_referenceIT_E4typeEOS6_, symObjAddr: 0xBC78, symBinAddr: 0x10000E3A0, symSize: 0x14 }
  - { offsetInCU: 0x3550D, offset: 0x3550D, size: 0x8, addend: 0x0, symName: __ZSt4moveIRNSt12_Vector_baseI4UserSaIS1_EE12_Vector_implEEONSt16remove_referenceIT_E4typeEOS7_, symObjAddr: 0xBBF4, symBinAddr: 0x10000E31C, symSize: 0x14 }
  - { offsetInCU: 0x35515, offset: 0x35515, size: 0x8, addend: 0x0, symName: __ZNSt12_Vector_baseI4UserSaIS0_EE17_Vector_impl_dataC2EOS3_, symObjAddr: 0xBC08, symBinAddr: 0x10000E330, symSize: 0x70 }
  - { offsetInCU: 0x354C5, offset: 0x354C5, size: 0x8, addend: 0x0, symName: __ZNSt15__new_allocatorIPNSt8__detail15_Hash_node_baseEE8allocateEmPKv, symObjAddr: 0xBB78, symBinAddr: 0x10000E2A0, symSize: 0x7C }
  - { offsetInCU: 0x354CD, offset: 0x354CD, size: 0x8, addend: 0x0, symName: __ZSt4moveIRNSt12_Vector_baseI4UserSaIS1_EE12_Vector_implEEONSt16remove_referenceIT_E4typeEOS7_, symObjAddr: 0xBBF4, symBinAddr: 0x10000E31C, symSize: 0x14 }
  - { offsetInCU: 0x35630, offset: 0x35630, size: 0x8, addend: 0x0, symName: __ZSt3getILm0EJRKNSt7__cxx1112basic_stringIcSt11char_traitsIcESaIcEEEEERNSt13tuple_elementIXT_ESt5tupleIJDpT0_EEE4typeERSC_, symObjAddr: 0xBB5C, symBinAddr: 0x10000E284, symSize: 0x1C }
  - { offsetInCU: 0x35638, offset: 0x35638, size: 0x8, addend: 0x0, symName: __ZNSt15__new_allocatorIPNSt8__detail15_Hash_node_baseEE8allocateEmPKv, symObjAddr: 0xBB78, symBinAddr: 0x10000E2A0, symSize: 0x7C }
  - { offsetInCU: 0x35726, offset: 0x35726, size: 0x8, addend: 0x0, symName: __ZNSt4pairIKNSt7__cxx1112basic_stringIcSt11char_traitsIcESaIcEEEiEC1IJRS6_EJLm0EEJEJEEERSt5tupleIJDpT_EERSA_IJDpT1_EESt12_Index_tupleIJXspT0_EEESJ_IJXspT2_EEE, symObjAddr: 0xBB08, symBinAddr: 0x10000E230, symSize: 0x54 }
  - { offsetInCU: 0x3572E, offset: 0x3572E, size: 0x8, addend: 0x0, symName: __ZSt3getILm0EJRKNSt7__cxx1112basic_stringIcSt11char_traitsIcESaIcEEEEERNSt13tuple_elementIXT_ESt5tupleIJDpT0_EEE4typeERSC_, symObjAddr: 0xBB5C, symBinAddr: 0x10000E284, symSize: 0x1C }
  - { offsetInCU: 0x3585A, offset: 0x3585A, size: 0x8, addend: 0x0, symName: __ZNSt4pairIKNSt7__cxx1112basic_stringIcSt11char_traitsIcESaIcEEESt3mapIS5_iSt4lessIS5_ESaIS_IS6_iEEEEC1IJRS6_EJLm0EEJEJEEERSt5tupleIJDpT_EERSG_IJDpT1_EESt12_Index_tupleIJXspT0_EEESP_IJXspT2_EEE, symObjAddr: 0xBA9C, symBinAddr: 0x10000E1C4, symSize: 0x6C }
  - { offsetInCU: 0x35862, offset: 0x35862, size: 0x8, addend: 0x0, symName: __ZNSt4pairIKNSt7__cxx1112basic_stringIcSt11char_traitsIcESaIcEEEiEC1IJRS6_EJLm0EEJEJEEERSt5tupleIJDpT_EERSA_IJDpT1_EESt12_Index_tupleIJXspT0_EEESJ_IJXspT2_EEE, symObjAddr: 0xBB08, symBinAddr: 0x10000E230, symSize: 0x54 }
  - { offsetInCU: 0x358A7, offset: 0x358A7, size: 0x8, addend: 0x0, symName: __ZNSt3mapINSt7__cxx1112basic_stringIcSt11char_traitsIcESaIcEEEiSt4lessIS5_ESaISt4pairIKS5_iEEEC1Ev, symObjAddr: 0xBA7C, symBinAddr: 0x10000E1A4, symSize: 0x20 }
  - { offsetInCU: 0x358AF, offset: 0x358AF, size: 0x8, addend: 0x0, symName: __ZNSt4pairIKNSt7__cxx1112basic_stringIcSt11char_traitsIcESaIcEEESt3mapIS5_iSt4lessIS5_ESaIS_IS6_iEEEEC1IJRS6_EJLm0EEJEJEEERSt5tupleIJDpT_EERSG_IJDpT1_EESt12_Index_tupleIJXspT0_EEESP_IJXspT2_EEE, symObjAddr: 0xBA9C, symBinAddr: 0x10000E1C4, symSize: 0x6C }
  - { offsetInCU: 0x3590A, offset: 0x3590A, size: 0x8, addend: 0x0, symName: __ZNSt8_Rb_treeINSt7__cxx1112basic_stringIcSt11char_traitsIcESaIcEEESt4pairIKS5_iESt10_Select1stIS8_ESt4lessIS5_ESaIS8_EEC1Ev, symObjAddr: 0xBA5C, symBinAddr: 0x10000E184, symSize: 0x20 }
  - { offsetInCU: 0x35912, offset: 0x35912, size: 0x8, addend: 0x0, symName: __ZNSt3mapINSt7__cxx1112basic_stringIcSt11char_traitsIcESaIcEEEiSt4lessIS5_ESaISt4pairIKS5_iEEEC1Ev, symObjAddr: 0xBA7C, symBinAddr: 0x10000E1A4, symSize: 0x20 }
  - { offsetInCU: 0x35918, offset: 0x35918, size: 0x8, addend: 0x0, symName: __ZNSt12_Vector_baseIdSaIdEE12_Vector_implC1EOS2_, symObjAddr: 0xB9F0, symBinAddr: 0x10000E118, symSize: 0x6C }
  - { offsetInCU: 0x35920, offset: 0x35920, size: 0x8, addend: 0x0, symName: __ZNSt8_Rb_treeINSt7__cxx1112basic_stringIcSt11char_traitsIcESaIcEEESt4pairIKS5_iESt10_Select1stIS8_ESt4lessIS5_ESaIS8_EEC1Ev, symObjAddr: 0xBA5C, symBinAddr: 0x10000E184, symSize: 0x20 }
  - { offsetInCU: 0x359EF, offset: 0x359EF, size: 0x8, addend: 0x0, symName: __ZNSt12_Vector_baseI4UserSaIS0_EE12_Vector_implC1EOS3_, symObjAddr: 0xB984, symBinAddr: 0x10000E0AC, symSize: 0x6C }
  - { offsetInCU: 0x359F7, offset: 0x359F7, size: 0x8, addend: 0x0, symName: __ZNSt12_Vector_baseIdSaIdEE12_Vector_implC1EOS2_, symObjAddr: 0xB9F0, symBinAddr: 0x10000E118, symSize: 0x6C }
  - { offsetInCU: 0x35AFE, offset: 0x35AFE, size: 0x8, addend: 0x0, symName: __ZSt7forwardI4UserEOT_RNSt16remove_referenceIS1_E4typeE, symObjAddr: 0xB970, symBinAddr: 0x10000E098, symSize: 0x14 }
  - { offsetInCU: 0x35B06, offset: 0x35B06, size: 0x8, addend: 0x0, symName: __ZNSt12_Vector_baseI4UserSaIS0_EE12_Vector_implC1EOS3_, symObjAddr: 0xB984, symBinAddr: 0x10000E0AC, symSize: 0x6C }
  - { offsetInCU: 0x35B75, offset: 0x35B75, size: 0x8, addend: 0x0, symName: __ZSt12__to_addressIPNSt8__detail15_Hash_node_baseEEPT_S4_, symObjAddr: 0xB95C, symBinAddr: 0x10000E084, symSize: 0x14 }
  - { offsetInCU: 0x35B7D, offset: 0x35B7D, size: 0x8, addend: 0x0, symName: __ZSt7forwardI4UserEOT_RNSt16remove_referenceIS1_E4typeE, symObjAddr: 0xB970, symBinAddr: 0x10000E098, symSize: 0x14 }
  - { offsetInCU: 0x35CA4, offset: 0x35CA4, size: 0x8, addend: 0x0, symName: __ZNSt4pairIKNSt7__cxx1112basic_stringIcSt11char_traitsIcESaIcEEE4UserEC1IJRS6_EJLm0EEJEJEEERSt5tupleIJDpT_EERSB_IJDpT1_EESt12_Index_tupleIJXspT0_EEESK_IJXspT2_EEE, symObjAddr: 0xB904, symBinAddr: 0x10000E02C, symSize: 0x58 }
  - { offsetInCU: 0x35CAC, offset: 0x35CAC, size: 0x8, addend: 0x0, symName: __ZSt12__to_addressIPNSt8__detail15_Hash_node_baseEEPT_S4_, symObjAddr: 0xB95C, symBinAddr: 0x10000E084, symSize: 0x14 }
  - { offsetInCU: 0x35D7C, offset: 0x35D7C, size: 0x8, addend: 0x0, symName: __ZSt11__addressofINSt8__detail10_Hash_nodeISt4pairIKNSt7__cxx1112basic_stringIcSt11char_traitsIcESaIcEEE4UserELb1EEEEPT_RSD_, symObjAddr: 0xB8F0, symBinAddr: 0x10000E018, symSize: 0x14 }
  - { offsetInCU: 0x35D84, offset: 0x35D84, size: 0x8, addend: 0x0, symName: __ZNSt4pairIKNSt7__cxx1112basic_stringIcSt11char_traitsIcESaIcEEE4UserEC1IJRS6_EJLm0EEJEJEEERSt5tupleIJDpT_EERSB_IJDpT1_EESt12_Index_tupleIJXspT0_EEESK_IJXspT2_EEE, symObjAddr: 0xB904, symBinAddr: 0x10000E02C, symSize: 0x58 }
  - { offsetInCU: 0x35CDF, offset: 0x35CDF, size: 0x8, addend: 0x0, symName: __ZNSt8_Rb_treeINSt7__cxx1112basic_stringIcSt11char_traitsIcESaIcEEESt4pairIKS5_iESt10_Select1stIS8_ESt4lessIS5_ESaIS8_EE17_M_construct_nodeIJRKS8_EEEvPSt13_Rb_tree_nodeIS8_EDpOT_, symObjAddr: 0xB7EC, symBinAddr: 0x10000DF14, symSize: 0x104 }
  - { offsetInCU: 0x35CE7, offset: 0x35CE7, size: 0x8, addend: 0x0, symName: __ZSt11__addressofINSt8__detail10_Hash_nodeISt4pairIKNSt7__cxx1112basic_stringIcSt11char_traitsIcESaIcEEE4UserELb1EEEEPT_RSD_, symObjAddr: 0xB8F0, symBinAddr: 0x10000E018, symSize: 0x14 }
  - { offsetInCU: 0x35EAA, offset: 0x35EAA, size: 0x8, addend: 0x0, symName: __ZNSt4pairIKNSt7__cxx1112basic_stringIcSt11char_traitsIcESaIcEEEiEC1IJRS6_EJEEESt21piecewise_construct_tSt5tupleIJDpT_EESB_IJDpT0_EE, symObjAddr: 0xB7B0, symBinAddr: 0x10000DED8, symSize: 0x3C }
  - { offsetInCU: 0x35EB2, offset: 0x35EB2, size: 0x8, addend: 0x0, symName: __ZNSt8_Rb_treeINSt7__cxx1112basic_stringIcSt11char_traitsIcESaIcEEESt4pairIKS5_iESt10_Select1stIS8_ESt4lessIS5_ESaIS8_EE17_M_construct_nodeIJRKS8_EEEvPSt13_Rb_tree_nodeIS8_EDpOT_, symObjAddr: 0xB7EC, symBinAddr: 0x10000DF14, symSize: 0x104 }
  - { offsetInCU: 0x35FAC, offset: 0x35FAC, size: 0x8, addend: 0x0, symName: __ZNSt4pairIKNSt7__cxx1112basic_stringIcSt11char_traitsIcESaIcEEESt3mapIS5_iSt4lessIS5_ESaIS_IS6_iEEEEC1IJRS6_EJEEESt21piecewise_construct_tSt5tupleIJDpT_EESH_IJDpT0_EE, symObjAddr: 0xB774, symBinAddr: 0x10000DE9C, symSize: 0x3C }
  - { offsetInCU: 0x35FB4, offset: 0x35FB4, size: 0x8, addend: 0x0, symName: __ZNSt4pairIKNSt7__cxx1112basic_stringIcSt11char_traitsIcESaIcEEEiEC1IJRS6_EJEEESt21piecewise_construct_tSt5tupleIJDpT_EESB_IJDpT0_EE, symObjAddr: 0xB7B0, symBinAddr: 0x10000DED8, symSize: 0x3C }
  - { offsetInCU: 0x36016, offset: 0x36016, size: 0x8, addend: 0x0, symName: __ZN7ExpenseC1EOS_, symObjAddr: 0xB6F4, symBinAddr: 0x10000DE1C, symSize: 0x80 }
  - { offsetInCU: 0x3601E, offset: 0x3601E, size: 0x8, addend: 0x0, symName: __ZNSt4pairIKNSt7__cxx1112basic_stringIcSt11char_traitsIcESaIcEEESt3mapIS5_iSt4lessIS5_ESaIS_IS6_iEEEEC1IJRS6_EJEEESt21piecewise_construct_tSt5tupleIJDpT_EESH_IJDpT0_EE, symObjAddr: 0xB774, symBinAddr: 0x10000DE9C, symSize: 0x3C }
  - { offsetInCU: 0x3607F, offset: 0x3607F, size: 0x8, addend: 0x0, symName: __ZNSt6vectorIdSaIdEEC1EOS1_, symObjAddr: 0xB6CC, symBinAddr: 0x10000DDF4, symSize: 0x28 }
  - { offsetInCU: 0x36087, offset: 0x36087, size: 0x8, addend: 0x0, symName: __ZN7ExpenseC1EOS_, symObjAddr: 0xB6F4, symBinAddr: 0x10000DE1C, symSize: 0x80 }
  - { offsetInCU: 0x360E5, offset: 0x360E5, size: 0x8, addend: 0x0, symName: __ZNSt12_Vector_baseIdSaIdEEC2EOS1_, symObjAddr: 0xB6A4, symBinAddr: 0x10000DDCC, symSize: 0x28 }
  - { offsetInCU: 0x360ED, offset: 0x360ED, size: 0x8, addend: 0x0, symName: __ZNSt6vectorIdSaIdEEC1EOS1_, symObjAddr: 0xB6CC, symBinAddr: 0x10000DDF4, symSize: 0x28 }
  - { offsetInCU: 0x36143, offset: 0x36143, size: 0x8, addend: 0x0, symName: __ZNSt6vectorI4UserSaIS0_EEC1EOS2_, symObjAddr: 0xB67C, symBinAddr: 0x10000DDA4, symSize: 0x28 }
  - { offsetInCU: 0x3614B, offset: 0x3614B, size: 0x8, addend: 0x0, symName: __ZNSt12_Vector_baseIdSaIdEEC2EOS1_, symObjAddr: 0xB6A4, symBinAddr: 0x10000DDCC, symSize: 0x28 }
  - { offsetInCU: 0x361A9, offset: 0x361A9, size: 0x8, addend: 0x0, symName: __ZNSt12_Vector_baseI4UserSaIS0_EEC2EOS2_, symObjAddr: 0xB654, symBinAddr: 0x10000DD7C, symSize: 0x28 }
  - { offsetInCU: 0x361B1, offset: 0x361B1, size: 0x8, addend: 0x0, symName: __ZNSt6vectorI4UserSaIS0_EEC1EOS2_, symObjAddr: 0xB67C, symBinAddr: 0x10000DDA4, symSize: 0x28 }
  - { offsetInCU: 0x361F2, offset: 0x361F2, size: 0x8, addend: 0x0, symName: __ZN4UserC1EOS_, symObjAddr: 0xB5E4, symBinAddr: 0x10000DD0C, symSize: 0x70 }
  - { offsetInCU: 0x361FA, offset: 0x361FA, size: 0x8, addend: 0x0, symName: __ZNSt12_Vector_baseI4UserSaIS0_EEC2EOS2_, symObjAddr: 0xB654, symBinAddr: 0x10000DD7C, symSize: 0x28 }
  - { offsetInCU: 0x36270, offset: 0x36270, size: 0x8, addend: 0x0, symName: __ZSt7forwardI7ExpenseEOT_RNSt16remove_referenceIS1_E4typeE, symObjAddr: 0xB5D0, symBinAddr: 0x10000DCF8, symSize: 0x14 }
  - { offsetInCU: 0x36278, offset: 0x36278, size: 0x8, addend: 0x0, symName: __ZN4UserC1EOS_, symObjAddr: 0xB5E4, symBinAddr: 0x10000DD0C, symSize: 0x70 }
  - { offsetInCU: 0x36360, offset: 0x36360, size: 0x8, addend: 0x0, symName: __ZSt7forwardINSt7__cxx1112basic_stringIcSt11char_traitsIcESaIcEEEEOT_RNSt16remove_referenceIS6_E4typeE, symObjAddr: 0xB5BC, symBinAddr: 0x10000DCE4, symSize: 0x14 }
  - { offsetInCU: 0x36368, offset: 0x36368, size: 0x8, addend: 0x0, symName: __ZSt7forwardI7ExpenseEOT_RNSt16remove_referenceIS1_E4typeE, symObjAddr: 0xB5D0, symBinAddr: 0x10000DCF8, symSize: 0x14 }
  - { offsetInCU: 0x363D9, offset: 0x363D9, size: 0x8, addend: 0x0, symName: __ZSt4moveIR4UserEONSt16remove_referenceIT_E4typeEOS3_, symObjAddr: 0xB5A8, symBinAddr: 0x10000DCD0, symSize: 0x14 }
  - { offsetInCU: 0x363E1, offset: 0x363E1, size: 0x8, addend: 0x0, symName: __ZSt7forwardINSt7__cxx1112basic_stringIcSt11char_traitsIcESaIcEEEEOT_RNSt16remove_referenceIS6_E4typeE, symObjAddr: 0xB5BC, symBinAddr: 0x10000DCE4, symSize: 0x14 }
  - { offsetInCU: 0x36401, offset: 0x36401, size: 0x8, addend: 0x0, symName: __ZNSt8__detail16_Hashtable_allocISaINS_10_Hash_nodeISt4pairIKNSt7__cxx1112basic_stringIcSt11char_traitsIcESaIcEEE4UserELb1EEEEE19_M_allocate_bucketsEm, symObjAddr: 0xB4F0, symBinAddr: 0x10000DC18, symSize: 0xB8 }
  - { offsetInCU: 0x36409, offset: 0x36409, size: 0x8, addend: 0x0, symName: __ZSt4moveIR4UserEONSt16remove_referenceIT_E4typeEOS3_, symObjAddr: 0xB5A8, symBinAddr: 0x10000DCD0, symSize: 0x14 }
  - { offsetInCU: 0x3663D, offset: 0x3663D, size: 0x8, addend: 0x0, symName: __ZNSt4pairIKNSt7__cxx1112basic_stringIcSt11char_traitsIcESaIcEEE4UserEC1IJRS6_EJEEESt21piecewise_construct_tSt5tupleIJDpT_EESC_IJDpT0_EE, symObjAddr: 0xB4B4, symBinAddr: 0x10000DBDC, symSize: 0x3C }
  - { offsetInCU: 0x36645, offset: 0x36645, size: 0x8, addend: 0x0, symName: __ZNSt8__detail16_Hashtable_allocISaINS_10_Hash_nodeISt4pairIKNSt7__cxx1112basic_stringIcSt11char_traitsIcESaIcEEE4UserELb1EEEEE19_M_allocate_bucketsEm, symObjAddr: 0xB4F0, symBinAddr: 0x10000DC18, symSize: 0xB8 }
  - { offsetInCU: 0x366A3, offset: 0x366A3, size: 0x8, addend: 0x0, symName: __ZNSt11_Tuple_implILm0EJRKNSt7__cxx1112basic_stringIcSt11char_traitsIcESaIcEEEEEC2EOS8_, symObjAddr: 0xB48C, symBinAddr: 0x10000DBB4, symSize: 0x28 }
  - { offsetInCU: 0x366AB, offset: 0x366AB, size: 0x8, addend: 0x0, symName: __ZNSt4pairIKNSt7__cxx1112basic_stringIcSt11char_traitsIcESaIcEEE4UserEC1IJRS6_EJEEESt21piecewise_construct_tSt5tupleIJDpT_EESC_IJDpT0_EE, symObjAddr: 0xB4B4, symBinAddr: 0x10000DBDC, symSize: 0x3C }
  - { offsetInCU: 0x366A6, offset: 0x366A6, size: 0x8, addend: 0x0, symName: __ZNK9__gnu_cxx16__aligned_bufferISt4pairIKNSt7__cxx1112basic_stringIcSt11char_traitsIcESaIcEEE4UserEE7_M_addrEv, symObjAddr: 0xB478, symBinAddr: 0x10000DBA0, symSize: 0x14 }
  - { offsetInCU: 0x366AE, offset: 0x366AE, size: 0x8, addend: 0x0, symName: __ZNSt11_Tuple_implILm0EJRKNSt7__cxx1112basic_stringIcSt11char_traitsIcESaIcEEEEEC2EOS8_, symObjAddr: 0xB48C, symBinAddr: 0x10000DBB4, symSize: 0x28 }
  - { offsetInCU: 0x36745, offset: 0x36745, size: 0x8, addend: 0x0, symName: __ZSt11__addressofIPNSt8__detail15_Hash_node_baseEEPT_RS3_, symObjAddr: 0xB464, symBinAddr: 0x10000DB8C, symSize: 0x14 }
  - { offsetInCU: 0x3674D, offset: 0x3674D, size: 0x8, addend: 0x0, symName: __ZNK9__gnu_cxx16__aligned_bufferISt4pairIKNSt7__cxx1112basic_stringIcSt11char_traitsIcESaIcEEE4UserEE7_M_addrEv, symObjAddr: 0xB478, symBinAddr: 0x10000DBA0, symSize: 0x14 }
  - { offsetInCU: 0x36808, offset: 0x36808, size: 0x8, addend: 0x0, symName: __ZSt9addressofINSt8__detail10_Hash_nodeISt4pairIKNSt7__cxx1112basic_stringIcSt11char_traitsIcESaIcEEE4UserELb1EEEEPT_RSD_, symObjAddr: 0xB448, symBinAddr: 0x10000DB70, symSize: 0x1C }
  - { offsetInCU: 0x36810, offset: 0x36810, size: 0x8, addend: 0x0, symName: __ZSt11__addressofIPNSt8__detail15_Hash_node_baseEEPT_RS3_, symObjAddr: 0xB464, symBinAddr: 0x10000DB8C, symSize: 0x14 }
  - { offsetInCU: 0x36770, offset: 0x36770, size: 0x8, addend: 0x0, symName: __ZNSt8_Rb_treeINSt7__cxx1112basic_stringIcSt11char_traitsIcESaIcEEESt4pairIKS5_iESt10_Select1stIS8_ESt4lessIS5_ESaIS8_EE14_M_create_nodeIJRKS8_EEEPSt13_Rb_tree_nodeIS8_EDpOT_, symObjAddr: 0xB408, symBinAddr: 0x10000DB30, symSize: 0x40 }
  - { offsetInCU: 0x36778, offset: 0x36778, size: 0x8, addend: 0x0, symName: __ZSt9addressofINSt8__detail10_Hash_nodeISt4pairIKNSt7__cxx1112basic_stringIcSt11char_traitsIcESaIcEEE4UserELb1EEEEPT_RSD_, symObjAddr: 0xB448, symBinAddr: 0x10000DB70, symSize: 0x1C }
  - { offsetInCU: 0x367DD, offset: 0x367DD, size: 0x8, addend: 0x0, symName: __ZNK9__gnu_cxx16__aligned_membufISt4pairIKNSt7__cxx1112basic_stringIcSt11char_traitsIcESaIcEEEiEE7_M_addrEv, symObjAddr: 0xB3F4, symBinAddr: 0x10000DB1C, symSize: 0x14 }
  - { offsetInCU: 0x367E5, offset: 0x367E5, size: 0x8, addend: 0x0, symName: __ZNSt8_Rb_treeINSt7__cxx1112basic_stringIcSt11char_traitsIcESaIcEEESt4pairIKS5_iESt10_Select1stIS8_ESt4lessIS5_ESaIS8_EE14_M_create_nodeIJRKS8_EEEPSt13_Rb_tree_nodeIS8_EDpOT_, symObjAddr: 0xB408, symBinAddr: 0x10000DB30, symSize: 0x40 }
  - { offsetInCU: 0x3689E, offset: 0x3689E, size: 0x8, addend: 0x0, symName: __ZNSt15__new_allocatorISt13_Rb_tree_nodeISt4pairIKNSt7__cxx1112basic_stringIcSt11char_traitsIcESaIcEEEiEEE8allocateEmPKv, symObjAddr: 0xB354, symBinAddr: 0x10000DA7C, symSize: 0xA0 }
  - { offsetInCU: 0x368A6, offset: 0x368A6, size: 0x8, addend: 0x0, symName: __ZNK9__gnu_cxx16__aligned_membufISt4pairIKNSt7__cxx1112basic_stringIcSt11char_traitsIcESaIcEEEiEE7_M_addrEv, symObjAddr: 0xB3F4, symBinAddr: 0x10000DB1C, symSize: 0x14 }
  - { offsetInCU: 0x3692F, offset: 0x3692F, size: 0x8, addend: 0x0, symName: __ZNK9__gnu_cxx16__aligned_membufISt4pairIKNSt7__cxx1112basic_stringIcSt11char_traitsIcESaIcEEESt3mapIS7_iSt4lessIS7_ESaIS1_IS8_iEEEEE7_M_addrEv, symObjAddr: 0xB340, symBinAddr: 0x10000DA68, symSize: 0x14 }
  - { offsetInCU: 0x36937, offset: 0x36937, size: 0x8, addend: 0x0, symName: __ZNSt15__new_allocatorISt13_Rb_tree_nodeISt4pairIKNSt7__cxx1112basic_stringIcSt11char_traitsIcESaIcEEEiEEE8allocateEmPKv, symObjAddr: 0xB354, symBinAddr: 0x10000DA7C, symSize: 0xA0 }
  - { offsetInCU: 0x369DC, offset: 0x369DC, size: 0x8, addend: 0x0, symName: __ZNSt15__new_allocatorISt13_Rb_tree_nodeISt4pairIKNSt7__cxx1112basic_stringIcSt11char_traitsIcESaIcEEESt3mapIS7_iSt4lessIS7_ESaIS1_IS8_iEEEEEE8allocateEmPKv, symObjAddr: 0xB2A0, symBinAddr: 0x10000D9C8, symSize: 0xA0 }
  - { offsetInCU: 0x369E4, offset: 0x369E4, size: 0x8, addend: 0x0, symName: __ZNK9__gnu_cxx16__aligned_membufISt4pairIKNSt7__cxx1112basic_stringIcSt11char_traitsIcESaIcEEESt3mapIS7_iSt4lessIS7_ESaIS1_IS8_iEEEEE7_M_addrEv, symObjAddr: 0xB340, symBinAddr: 0x10000DA68, symSize: 0x14 }
  - { offsetInCU: 0x36B0F, offset: 0x36B0F, size: 0x8, addend: 0x0, symName: __ZSt4moveIR7ExpenseEONSt16remove_referenceIT_E4typeEOS3_, symObjAddr: 0xB28C, symBinAddr: 0x10000D9B4, symSize: 0x14 }
  - { offsetInCU: 0x36B17, offset: 0x36B17, size: 0x8, addend: 0x0, symName: __ZNSt15__new_allocatorISt13_Rb_tree_nodeISt4pairIKNSt7__cxx1112basic_stringIcSt11char_traitsIcESaIcEEESt3mapIS7_iSt4lessIS7_ESaIS1_IS8_iEEEEEE8allocateEmPKv, symObjAddr: 0xB2A0, symBinAddr: 0x10000D9C8, symSize: 0xA0 }
  - { offsetInCU: 0x36B31, offset: 0x36B31, size: 0x8, addend: 0x0, symName: __ZNSt11__copy_moveILb0ELb0ESt26random_access_iterator_tagE12__assign_oneIddEEvPT_PT0_, symObjAddr: 0xB264, symBinAddr: 0x10000D98C, symSize: 0x28 }
  - { offsetInCU: 0x36B39, offset: 0x36B39, size: 0x8, addend: 0x0, symName: __ZSt4moveIR7ExpenseEONSt16remove_referenceIT_E4typeEOS3_, symObjAddr: 0xB28C, symBinAddr: 0x10000D9B4, symSize: 0x14 }
  - { offsetInCU: 0x36B91, offset: 0x36B91, size: 0x8, addend: 0x0, symName: __ZNSt11__copy_moveILb0ELb0ESt26random_access_iterator_tagE12__assign_oneIdKdEEvPT_PT0_, symObjAddr: 0xB23C, symBinAddr: 0x10000D964, symSize: 0x28 }
  - { offsetInCU: 0x36B99, offset: 0x36B99, size: 0x8, addend: 0x0, symName: __ZNSt11__copy_moveILb0ELb0ESt26random_access_iterator_tagE12__assign_oneIddEEvPT_PT0_, symObjAddr: 0xB264, symBinAddr: 0x10000D98C, symSize: 0x28 }
  - { offsetInCU: 0x36C3D, offset: 0x36C3D, size: 0x8, addend: 0x0, symName: __ZSt7forwardIR4UserEOT_RNSt16remove_referenceIS2_E4typeE, symObjAddr: 0xB228, symBinAddr: 0x10000D950, symSize: 0x14 }
  - { offsetInCU: 0x36C45, offset: 0x36C45, size: 0x8, addend: 0x0, symName: __ZNSt11__copy_moveILb0ELb0ESt26random_access_iterator_tagE12__assign_oneIdKdEEvPT_PT0_, symObjAddr: 0xB23C, symBinAddr: 0x10000D964, symSize: 0x28 }
  - { offsetInCU: 0x36D7D, offset: 0x36D7D, size: 0x8, addend: 0x0, symName: __ZSt13__copy_move_aILb0EN9__gnu_cxx17__normal_iteratorIPKdSt6vectorIdSaIdEEEEPdET1_T0_SA_S9_, symObjAddr: 0xB1C8, symBinAddr: 0x10000D8F0, symSize: 0x60 }
  - { offsetInCU: 0x36D85, offset: 0x36D85, size: 0x8, addend: 0x0, symName: __ZSt7forwardIR4UserEOT_RNSt16remove_referenceIS2_E4typeE, symObjAddr: 0xB228, symBinAddr: 0x10000D950, symSize: 0x14 }
  - { offsetInCU: 0x36DD7, offset: 0x36DD7, size: 0x8, addend: 0x0, symName: __ZSt19__relocate_object_aI4UserS0_SaIS0_EEvPT_PT0_RT1_, symObjAddr: 0xB0F8, symBinAddr: 0x10000D820, symSize: 0xD0 }
  - { offsetInCU: 0x36DDF, offset: 0x36DDF, size: 0x8, addend: 0x0, symName: __ZSt13__copy_move_aILb0EN9__gnu_cxx17__normal_iteratorIPKdSt6vectorIdSaIdEEEEPdET1_T0_SA_S9_, symObjAddr: 0xB1C8, symBinAddr: 0x10000D8F0, symSize: 0x60 }
  - { offsetInCU: 0x36EFE, offset: 0x36EFE, size: 0x8, addend: 0x0, symName: __ZNSt10_HashtableINSt7__cxx1112basic_stringIcSt11char_traitsIcESaIcEEESt4pairIKS5_4UserESaIS9_ENSt8__detail10_Select1stESt8equal_toIS5_ESt4hashIS5_ENSB_18_Mod_range_hashingENSB_20_Default_ranged_hashENSB_20_Prime_rehash_policyENSB_17_Hashtable_traitsILb1ELb0ELb1EEEE19_M_allocate_bucketsEm, symObjAddr: 0xB0A0, symBinAddr: 0x10000D7C8, symSize: 0x58 }
  - { offsetInCU: 0x36F06, offset: 0x36F06, size: 0x8, addend: 0x0, symName: __ZSt19__relocate_object_aI4UserS0_SaIS0_EEvPT_PT0_RT1_, symObjAddr: 0xB0F8, symBinAddr: 0x10000D820, symSize: 0xD0 }
  - { offsetInCU: 0x36F42, offset: 0x36F42, size: 0x8, addend: 0x0, symName: __ZNSt15__new_allocatorINSt8__detail10_Hash_nodeISt4pairIKNSt7__cxx1112basic_stringIcSt11char_traitsIcESaIcEEE4UserELb1EEEE10deallocateEPSC_m, symObjAddr: 0xB05C, symBinAddr: 0x10000D784, symSize: 0x44 }
  - { offsetInCU: 0x36F4A, offset: 0x36F4A, size: 0x8, addend: 0x0, symName: __ZNSt10_HashtableINSt7__cxx1112basic_stringIcSt11char_traitsIcESaIcEEESt4pairIKS5_4UserESaIS9_ENSt8__detail10_Select1stESt8equal_toIS5_ESt4hashIS5_ENSB_18_Mod_range_hashingENSB_20_Default_ranged_hashENSB_20_Prime_rehash_policyENSB_17_Hashtable_traitsILb1ELb0ELb1EEEE19_M_allocate_bucketsEm, symObjAddr: 0xB0A0, symBinAddr: 0x10000D7C8, symSize: 0x58 }
  - { offsetInCU: 0x37080, offset: 0x37080, size: 0x8, addend: 0x0, symName: __ZNSt5tupleIJRKNSt7__cxx1112basic_stringIcSt11char_traitsIcESaIcEEEEEC1EOS8_, symObjAddr: 0xB034, symBinAddr: 0x10000D75C, symSize: 0x28 }
  - { offsetInCU: 0x37088, offset: 0x37088, size: 0x8, addend: 0x0, symName: __ZNSt15__new_allocatorINSt8__detail10_Hash_nodeISt4pairIKNSt7__cxx1112basic_stringIcSt11char_traitsIcESaIcEEE4UserELb1EEEE10deallocateEPSC_m, symObjAddr: 0xB05C, symBinAddr: 0x10000D784, symSize: 0x44 }
  - { offsetInCU: 0x37070, offset: 0x37070, size: 0x8, addend: 0x0, symName: __ZNSt15__new_allocatorINSt8__detail10_Hash_nodeISt4pairIKNSt7__cxx1112basic_stringIcSt11char_traitsIcESaIcEEE4UserELb1EEEE8allocateEmPKv, symObjAddr: 0xAF8C, symBinAddr: 0x10000D6B4, symSize: 0xA8 }
  - { offsetInCU: 0x37078, offset: 0x37078, size: 0x8, addend: 0x0, symName: __ZNSt5tupleIJRKNSt7__cxx1112basic_stringIcSt11char_traitsIcESaIcEEEEEC1EOS8_, symObjAddr: 0xB034, symBinAddr: 0x10000D75C, symSize: 0x28 }
  - { offsetInCU: 0x37101, offset: 0x37101, size: 0x8, addend: 0x0, symName: __ZN9__gnu_cxx16__aligned_bufferISt4pairIKNSt7__cxx1112basic_stringIcSt11char_traitsIcESaIcEEE4UserEE7_M_addrEv, symObjAddr: 0xAF78, symBinAddr: 0x10000D6A0, symSize: 0x14 }
  - { offsetInCU: 0x37109, offset: 0x37109, size: 0x8, addend: 0x0, symName: __ZNSt15__new_allocatorINSt8__detail10_Hash_nodeISt4pairIKNSt7__cxx1112basic_stringIcSt11char_traitsIcESaIcEEE4UserELb1EEEE8allocateEmPKv, symObjAddr: 0xAF8C, symBinAddr: 0x10000D6B4, symSize: 0xA8 }
  - { offsetInCU: 0x37135, offset: 0x37135, size: 0x8, addend: 0x0, symName: __ZNKSt8__detail15_Hash_code_baseINSt7__cxx1112basic_stringIcSt11char_traitsIcESaIcEEESt4pairIKS6_4UserENS_10_Select1stESt4hashIS6_ENS_18_Mod_range_hashingENS_20_Default_ranged_hashELb1EE15_M_bucket_indexERKNS_16_Hash_node_valueISA_Lb1EEEm, symObjAddr: 0xAF48, symBinAddr: 0x10000D670, symSize: 0x30 }
  - { offsetInCU: 0x3713D, offset: 0x3713D, size: 0x8, addend: 0x0, symName: __ZN9__gnu_cxx16__aligned_bufferISt4pairIKNSt7__cxx1112basic_stringIcSt11char_traitsIcESaIcEEE4UserEE7_M_addrEv, symObjAddr: 0xAF78, symBinAddr: 0x10000D6A0, symSize: 0x14 }
  - { offsetInCU: 0x3718D, offset: 0x3718D, size: 0x8, addend: 0x0, symName: __ZNSt8__detail15_Hashtable_baseINSt7__cxx1112basic_stringIcSt11char_traitsIcESaIcEEESt4pairIKS6_4UserENS_10_Select1stESt8equal_toIS6_ESt4hashIS6_ENS_18_Mod_range_hashingENS_20_Default_ranged_hashENS_17_Hashtable_traitsILb1ELb0ELb1EEEE9_S_equalsEmRKNS_21_Hash_node_code_cacheILb1EEE, symObjAddr: 0xAF1C, symBinAddr: 0x10000D644, symSize: 0x2C }
  - { offsetInCU: 0x37195, offset: 0x37195, size: 0x8, addend: 0x0, symName: __ZNKSt8__detail15_Hash_code_baseINSt7__cxx1112basic_stringIcSt11char_traitsIcESaIcEEESt4pairIKS6_4UserENS_10_Select1stESt4hashIS6_ENS_18_Mod_range_hashingENS_20_Default_ranged_hashELb1EE15_M_bucket_indexERKNS_16_Hash_node_valueISA_Lb1EEEm, symObjAddr: 0xAF48, symBinAddr: 0x10000D670, symSize: 0x30 }
  - { offsetInCU: 0x371D3, offset: 0x371D3, size: 0x8, addend: 0x0, symName: __ZNK9__gnu_cxx16__aligned_bufferISt4pairIKNSt7__cxx1112basic_stringIcSt11char_traitsIcESaIcEEE4UserEE6_M_ptrEv, symObjAddr: 0xAF00, symBinAddr: 0x10000D628, symSize: 0x1C }
  - { offsetInCU: 0x371DB, offset: 0x371DB, size: 0x8, addend: 0x0, symName: __ZNSt8__detail15_Hashtable_baseINSt7__cxx1112basic_stringIcSt11char_traitsIcESaIcEEESt4pairIKS6_4UserENS_10_Select1stESt8equal_toIS6_ESt4hashIS6_ENS_18_Mod_range_hashingENS_20_Default_ranged_hashENS_17_Hashtable_traitsILb1ELb0ELb1EEEE9_S_equalsEmRKNS_21_Hash_node_code_cacheILb1EEE, symObjAddr: 0xAF1C, symBinAddr: 0x10000D644, symSize: 0x2C }
  - { offsetInCU: 0x37203, offset: 0x37203, size: 0x8, addend: 0x0, symName: __ZNSt15__new_allocatorISt13_Rb_tree_nodeISt4pairIKNSt7__cxx1112basic_stringIcSt11char_traitsIcESaIcEEESt3mapIS7_iSt4lessIS7_ESaIS1_IS8_iEEEEEE10deallocateEPSG_m, symObjAddr: 0xAEC4, symBinAddr: 0x10000D5EC, symSize: 0x3C }
  - { offsetInCU: 0x3720B, offset: 0x3720B, size: 0x8, addend: 0x0, symName: __ZNK9__gnu_cxx16__aligned_bufferISt4pairIKNSt7__cxx1112basic_stringIcSt11char_traitsIcESaIcEEE4UserEE6_M_ptrEv, symObjAddr: 0xAF00, symBinAddr: 0x10000D628, symSize: 0x1C }
  - { offsetInCU: 0x37290, offset: 0x37290, size: 0x8, addend: 0x0, symName: __ZNSt15__new_allocatorIPNSt8__detail15_Hash_node_baseEE10deallocateEPS2_m, symObjAddr: 0xAE94, symBinAddr: 0x10000D5BC, symSize: 0x30 }
  - { offsetInCU: 0x37298, offset: 0x37298, size: 0x8, addend: 0x0, symName: __ZNSt15__new_allocatorISt13_Rb_tree_nodeISt4pairIKNSt7__cxx1112basic_stringIcSt11char_traitsIcESaIcEEESt3mapIS7_iSt4lessIS7_ESaIS1_IS8_iEEEEEE10deallocateEPSG_m, symObjAddr: 0xAEC4, symBinAddr: 0x10000D5EC, symSize: 0x3C }
  - { offsetInCU: 0x37349, offset: 0x37349, size: 0x8, addend: 0x0, symName: __ZNSt15__new_allocatorIPNSt8__detail15_Hash_node_baseEED2Ev, symObjAddr: 0xAE80, symBinAddr: 0x10000D5A8, symSize: 0x14 }
  - { offsetInCU: 0x37351, offset: 0x37351, size: 0x8, addend: 0x0, symName: __ZNSt15__new_allocatorIPNSt8__detail15_Hash_node_baseEE10deallocateEPS2_m, symObjAddr: 0xAE94, symBinAddr: 0x10000D5BC, symSize: 0x30 }
  - { offsetInCU: 0x373BC, offset: 0x373BC, size: 0x8, addend: 0x0, symName: __ZSt9addressofIPNSt8__detail15_Hash_node_baseEEPT_RS3_, symObjAddr: 0xAE64, symBinAddr: 0x10000D58C, symSize: 0x1C }
  - { offsetInCU: 0x373C4, offset: 0x373C4, size: 0x8, addend: 0x0, symName: __ZNSt15__new_allocatorIPNSt8__detail15_Hash_node_baseEED2Ev, symObjAddr: 0xAE80, symBinAddr: 0x10000D5A8, symSize: 0x14 }
  - { offsetInCU: 0x373A1, offset: 0x373A1, size: 0x8, addend: 0x0, symName: __ZNSt19__ptr_traits_ptr_toIPNSt8__detail10_Hash_nodeISt4pairIKNSt7__cxx1112basic_stringIcSt11char_traitsIcESaIcEEE4UserELb1EEESC_Lb0EE10pointer_toERSC_, symObjAddr: 0xAE48, symBinAddr: 0x10000D570, symSize: 0x1C }
  - { offsetInCU: 0x373A9, offset: 0x373A9, size: 0x8, addend: 0x0, symName: __ZSt9addressofIPNSt8__detail15_Hash_node_baseEEPT_RS3_, symObjAddr: 0xAE64, symBinAddr: 0x10000D58C, symSize: 0x1C }
  - { offsetInCU: 0x3747F, offset: 0x3747F, size: 0x8, addend: 0x0, symName: __ZNSt4pairIKNSt7__cxx1112basic_stringIcSt11char_traitsIcESaIcEEE4UserED1Ev, symObjAddr: 0xAE1C, symBinAddr: 0x10000D544, symSize: 0x2C }
  - { offsetInCU: 0x37487, offset: 0x37487, size: 0x8, addend: 0x0, symName: __ZNSt19__ptr_traits_ptr_toIPNSt8__detail10_Hash_nodeISt4pairIKNSt7__cxx1112basic_stringIcSt11char_traitsIcESaIcEEE4UserELb1EEESC_Lb0EE10pointer_toERSC_, symObjAddr: 0xAE48, symBinAddr: 0x10000D570, symSize: 0x1C }
  - { offsetInCU: 0x37464, offset: 0x37464, size: 0x8, addend: 0x0, symName: __ZNSt8__detail21_Hashtable_ebo_helperILi0ESaINS_10_Hash_nodeISt4pairIKNSt7__cxx1112basic_stringIcSt11char_traitsIcESaIcEEE4UserELb1EEEELb1EE6_M_getEv, symObjAddr: 0xAE08, symBinAddr: 0x10000D530, symSize: 0x14 }
  - { offsetInCU: 0x3746C, offset: 0x3746C, size: 0x8, addend: 0x0, symName: __ZNSt4pairIKNSt7__cxx1112basic_stringIcSt11char_traitsIcESaIcEEE4UserED1Ev, symObjAddr: 0xAE1C, symBinAddr: 0x10000D544, symSize: 0x2C }
  - { offsetInCU: 0x37494, offset: 0x37494, size: 0x8, addend: 0x0, symName: __ZNSt15__new_allocatorISt13_Rb_tree_nodeISt4pairIKNSt7__cxx1112basic_stringIcSt11char_traitsIcESaIcEEEiEEE10deallocateEPSA_m, symObjAddr: 0xADCC, symBinAddr: 0x10000D4F4, symSize: 0x3C }
  - { offsetInCU: 0x3749C, offset: 0x3749C, size: 0x8, addend: 0x0, symName: __ZNSt8__detail21_Hashtable_ebo_helperILi0ESaINS_10_Hash_nodeISt4pairIKNSt7__cxx1112basic_stringIcSt11char_traitsIcESaIcEEE4UserELb1EEEELb1EE6_M_getEv, symObjAddr: 0xAE08, symBinAddr: 0x10000D530, symSize: 0x14 }
  - { offsetInCU: 0x37534, offset: 0x37534, size: 0x8, addend: 0x0, symName: __ZNKSt8_Rb_treeINSt7__cxx1112basic_stringIcSt11char_traitsIcESaIcEEESt4pairIKS5_iESt10_Select1stIS8_ESt4lessIS5_ESaIS8_EE11_Alloc_nodeclIRKS8_EEPSt13_Rb_tree_nodeIS8_EOT_, symObjAddr: 0xAD90, symBinAddr: 0x10000D4B8, symSize: 0x3C }
  - { offsetInCU: 0x3753C, offset: 0x3753C, size: 0x8, addend: 0x0, symName: __ZNSt15__new_allocatorISt13_Rb_tree_nodeISt4pairIKNSt7__cxx1112basic_stringIcSt11char_traitsIcESaIcEEEiEEE10deallocateEPSA_m, symObjAddr: 0xADCC, symBinAddr: 0x10000D4F4, symSize: 0x3C }
  - { offsetInCU: 0x37644, offset: 0x37644, size: 0x8, addend: 0x0, symName: __ZSt7forwardIRKSt4pairIKNSt7__cxx1112basic_stringIcSt11char_traitsIcESaIcEEEiEEOT_RNSt16remove_referenceISB_E4typeE, symObjAddr: 0xAD7C, symBinAddr: 0x10000D4A4, symSize: 0x14 }
  - { offsetInCU: 0x3764C, offset: 0x3764C, size: 0x8, addend: 0x0, symName: __ZNKSt8_Rb_treeINSt7__cxx1112basic_stringIcSt11char_traitsIcESaIcEEESt4pairIKS5_iESt10_Select1stIS8_ESt4lessIS5_ESaIS8_EE11_Alloc_nodeclIRKS8_EEPSt13_Rb_tree_nodeIS8_EOT_, symObjAddr: 0xAD90, symBinAddr: 0x10000D4B8, symSize: 0x3C }
  - { offsetInCU: 0x375DA, offset: 0x375DA, size: 0x8, addend: 0x0, symName: __ZNK9__gnu_cxx16__aligned_membufISt4pairIKNSt7__cxx1112basic_stringIcSt11char_traitsIcESaIcEEEiEE6_M_ptrEv, symObjAddr: 0xAD60, symBinAddr: 0x10000D488, symSize: 0x1C }
  - { offsetInCU: 0x375E2, offset: 0x375E2, size: 0x8, addend: 0x0, symName: __ZSt7forwardIRKSt4pairIKNSt7__cxx1112basic_stringIcSt11char_traitsIcESaIcEEEiEEOT_RNSt16remove_referenceISB_E4typeE, symObjAddr: 0xAD7C, symBinAddr: 0x10000D4A4, symSize: 0x14 }
  - { offsetInCU: 0x376EC, offset: 0x376EC, size: 0x8, addend: 0x0, symName: __ZSt7forwardIRPSt13_Rb_tree_nodeISt4pairIKNSt7__cxx1112basic_stringIcSt11char_traitsIcESaIcEEEiEEEOT_RNSt16remove_referenceISD_E4typeE, symObjAddr: 0xAD4C, symBinAddr: 0x10000D474, symSize: 0x14 }
  - { offsetInCU: 0x376F4, offset: 0x376F4, size: 0x8, addend: 0x0, symName: __ZNK9__gnu_cxx16__aligned_membufISt4pairIKNSt7__cxx1112basic_stringIcSt11char_traitsIcESaIcEEEiEE6_M_ptrEv, symObjAddr: 0xAD60, symBinAddr: 0x10000D488, symSize: 0x1C }
  - { offsetInCU: 0x37717, offset: 0x37717, size: 0x8, addend: 0x0, symName: __ZNK9__gnu_cxx16__aligned_membufISt4pairIKNSt7__cxx1112basic_stringIcSt11char_traitsIcESaIcEEESt3mapIS7_iSt4lessIS7_ESaIS1_IS8_iEEEEE6_M_ptrEv, symObjAddr: 0xAD30, symBinAddr: 0x10000D458, symSize: 0x1C }
  - { offsetInCU: 0x3771F, offset: 0x3771F, size: 0x8, addend: 0x0, symName: __ZSt7forwardIRPSt13_Rb_tree_nodeISt4pairIKNSt7__cxx1112basic_stringIcSt11char_traitsIcESaIcEEEiEEEOT_RNSt16remove_referenceISD_E4typeE, symObjAddr: 0xAD4C, symBinAddr: 0x10000D474, symSize: 0x14 }
  - { offsetInCU: 0x3787A, offset: 0x3787A, size: 0x8, addend: 0x0, symName: __ZSt7forwardIRPSt13_Rb_tree_nodeISt4pairIKNSt7__cxx1112basic_stringIcSt11char_traitsIcESaIcEEESt3mapIS7_iSt4lessIS7_ESaIS1_IS8_iEEEEEEOT_RNSt16remove_referenceISJ_E4typeE, symObjAddr: 0xAD1C, symBinAddr: 0x10000D444, symSize: 0x14 }
  - { offsetInCU: 0x37882, offset: 0x37882, size: 0x8, addend: 0x0, symName: __ZNK9__gnu_cxx16__aligned_membufISt4pairIKNSt7__cxx1112basic_stringIcSt11char_traitsIcESaIcEEESt3mapIS7_iSt4lessIS7_ESaIS1_IS8_iEEEEE6_M_ptrEv, symObjAddr: 0xAD30, symBinAddr: 0x10000D458, symSize: 0x1C }
  - { offsetInCU: 0x378D0, offset: 0x378D0, size: 0x8, addend: 0x0, symName: __ZSt19__relocate_object_aI7ExpenseS0_SaIS0_EEvPT_PT0_RT1_, symObjAddr: 0xAC4C, symBinAddr: 0x10000D374, symSize: 0xD0 }
  - { offsetInCU: 0x378D8, offset: 0x378D8, size: 0x8, addend: 0x0, symName: __ZSt7forwardIRPSt13_Rb_tree_nodeISt4pairIKNSt7__cxx1112basic_stringIcSt11char_traitsIcESaIcEEESt3mapIS7_iSt4lessIS7_ESaIS1_IS8_iEEEEEEOT_RNSt16remove_referenceISJ_E4typeE, symObjAddr: 0xAD1C, symBinAddr: 0x10000D444, symSize: 0x14 }
  - { offsetInCU: 0x37A4B, offset: 0x37A4B, size: 0x8, addend: 0x0, symName: __ZSt10_ConstructI4UserJRKS0_EEvPT_DpOT0_, symObjAddr: 0xABD0, symBinAddr: 0x10000D2F8, symSize: 0x7C }
  - { offsetInCU: 0x37A53, offset: 0x37A53, size: 0x8, addend: 0x0, symName: __ZSt19__relocate_object_aI7ExpenseS0_SaIS0_EEvPT_PT0_RT1_, symObjAddr: 0xAC4C, symBinAddr: 0x10000D374, symSize: 0xD0 }
  - { offsetInCU: 0x37A69, offset: 0x37A69, size: 0x8, addend: 0x0, symName: __ZNK9__gnu_cxx17__normal_iteratorIPK4UserSt6vectorIS1_SaIS1_EEEdeEv, symObjAddr: 0xABB8, symBinAddr: 0x10000D2E0, symSize: 0x18 }
  - { offsetInCU: 0x37A71, offset: 0x37A71, size: 0x8, addend: 0x0, symName: __ZSt10_ConstructI4UserJRKS0_EEvPT_DpOT0_, symObjAddr: 0xABD0, symBinAddr: 0x10000D2F8, symSize: 0x7C }
  - { offsetInCU: 0x37A99, offset: 0x37A99, size: 0x8, addend: 0x0, symName: __ZN9__gnu_cxx17__normal_iteratorIPK4UserSt6vectorIS1_SaIS1_EEEppEv, symObjAddr: 0xAB90, symBinAddr: 0x10000D2B8, symSize: 0x28 }
  - { offsetInCU: 0x37AA1, offset: 0x37AA1, size: 0x8, addend: 0x0, symName: __ZNK9__gnu_cxx17__normal_iteratorIPK4UserSt6vectorIS1_SaIS1_EEEdeEv, symObjAddr: 0xABB8, symBinAddr: 0x10000D2E0, symSize: 0x18 }
  - { offsetInCU: 0x37B4D, offset: 0x37B4D, size: 0x8, addend: 0x0, symName: __ZN9__gnu_cxxneIPK4UserSt6vectorIS1_SaIS1_EEEEbRKNS_17__normal_iteratorIT_T0_EESC_, symObjAddr: 0xAB4C, symBinAddr: 0x10000D274, symSize: 0x44 }
  - { offsetInCU: 0x37B55, offset: 0x37B55, size: 0x8, addend: 0x0, symName: __ZN9__gnu_cxx17__normal_iteratorIPK4UserSt6vectorIS1_SaIS1_EEEppEv, symObjAddr: 0xAB90, symBinAddr: 0x10000D2B8, symSize: 0x28 }
  - { offsetInCU: 0x37B41, offset: 0x37B41, size: 0x8, addend: 0x0, symName: __ZNSt11__copy_moveILb0ELb1ESt26random_access_iterator_tagE8__copy_mIddEEPT0_PT_S6_S4_, symObjAddr: 0xAABC, symBinAddr: 0x10000D1E4, symSize: 0x90 }
  - { offsetInCU: 0x37B49, offset: 0x37B49, size: 0x8, addend: 0x0, symName: __ZN9__gnu_cxxneIPK4UserSt6vectorIS1_SaIS1_EEEEbRKNS_17__normal_iteratorIT_T0_EESC_, symObjAddr: 0xAB4C, symBinAddr: 0x10000D274, symSize: 0x44 }
  - { offsetInCU: 0x37BCA, offset: 0x37BCA, size: 0x8, addend: 0x0, symName: __ZNSt11__copy_moveILb0ELb1ESt26random_access_iterator_tagE8__copy_mIKddEEPT0_PT_S7_S5_, symObjAddr: 0xAA2C, symBinAddr: 0x10000D154, symSize: 0x90 }
  - { offsetInCU: 0x37BD2, offset: 0x37BD2, size: 0x8, addend: 0x0, symName: __ZNSt11__copy_moveILb0ELb1ESt26random_access_iterator_tagE8__copy_mIddEEPT0_PT_S6_S4_, symObjAddr: 0xAABC, symBinAddr: 0x10000D1E4, symSize: 0x90 }
  - { offsetInCU: 0x37CAC, offset: 0x37CAC, size: 0x8, addend: 0x0, symName: __ZSt10_ConstructI4UserJRS0_EEvPT_DpOT0_, symObjAddr: 0xA9B0, symBinAddr: 0x10000D0D8, symSize: 0x7C }
  - { offsetInCU: 0x37CB4, offset: 0x37CB4, size: 0x8, addend: 0x0, symName: __ZNSt11__copy_moveILb0ELb1ESt26random_access_iterator_tagE8__copy_mIKddEEPT0_PT_S7_S5_, symObjAddr: 0xAA2C, symBinAddr: 0x10000D154, symSize: 0x90 }
  - { offsetInCU: 0x37CD1, offset: 0x37CD1, size: 0x8, addend: 0x0, symName: __ZNSt11__copy_moveILb0ELb0ESt26random_access_iterator_tagE8__copy_mIP4UserS4_EET0_T_S6_S5_, symObjAddr: 0xA928, symBinAddr: 0x10000D050, symSize: 0x88 }
  - { offsetInCU: 0x37CD9, offset: 0x37CD9, size: 0x8, addend: 0x0, symName: __ZSt10_ConstructI4UserJRS0_EEvPT_DpOT0_, symObjAddr: 0xA9B0, symBinAddr: 0x10000D0D8, symSize: 0x7C }
  - { offsetInCU: 0x37D7E, offset: 0x37D7E, size: 0x8, addend: 0x0, symName: __ZNSt11__copy_moveILb0ELb0ESt26random_access_iterator_tagE8__copy_mIPK4UserPS3_EET0_T_S8_S7_, symObjAddr: 0xA8A0, symBinAddr: 0x10000CFC8, symSize: 0x88 }
  - { offsetInCU: 0x37D86, offset: 0x37D86, size: 0x8, addend: 0x0, symName: __ZNSt11__copy_moveILb0ELb0ESt26random_access_iterator_tagE8__copy_mIP4UserS4_EET0_T_S6_S5_, symObjAddr: 0xA928, symBinAddr: 0x10000D050, symSize: 0x88 }
  - { offsetInCU: 0x37F38, offset: 0x37F38, size: 0x8, addend: 0x0, symName: __ZSt19__relocate_object_aINSt7__cxx1112basic_stringIcSt11char_traitsIcESaIcEEES5_SaIS5_EEvPT_PT0_RT1_, symObjAddr: 0xA7D0, symBinAddr: 0x10000CEF8, symSize: 0xD0 }
  - { offsetInCU: 0x37F40, offset: 0x37F40, size: 0x8, addend: 0x0, symName: __ZNSt11__copy_moveILb0ELb0ESt26random_access_iterator_tagE8__copy_mIPK4UserPS3_EET0_T_S8_S7_, symObjAddr: 0xA8A0, symBinAddr: 0x10000CFC8, symSize: 0x88 }
  - { offsetInCU: 0x38098, offset: 0x38098, size: 0x8, addend: 0x0, symName: __ZSt4copyIN9__gnu_cxx17__normal_iteratorIPKdSt6vectorIdSaIdEEEEPdET0_T_SA_S9_, symObjAddr: 0xA788, symBinAddr: 0x10000CEB0, symSize: 0x48 }
  - { offsetInCU: 0x380A0, offset: 0x380A0, size: 0x8, addend: 0x0, symName: __ZSt19__relocate_object_aINSt7__cxx1112basic_stringIcSt11char_traitsIcESaIcEEES5_SaIS5_EEvPT_PT0_RT1_, symObjAddr: 0xA7D0, symBinAddr: 0x10000CEF8, symSize: 0xD0 }
  - { offsetInCU: 0x3813A, offset: 0x3813A, size: 0x8, addend: 0x0, symName: __ZSt14__relocate_a_1IddENSt9enable_ifIXsrSt24__is_bitwise_relocatableIT_vE5valueEPS2_E4typeES4_S4_S4_RSaIT0_E, symObjAddr: 0xA720, symBinAddr: 0x10000CE48, symSize: 0x68 }
  - { offsetInCU: 0x38142, offset: 0x38142, size: 0x8, addend: 0x0, symName: __ZSt4copyIN9__gnu_cxx17__normal_iteratorIPKdSt6vectorIdSaIdEEEEPdET0_T_SA_S9_, symObjAddr: 0xA788, symBinAddr: 0x10000CEB0, symSize: 0x48 }
  - { offsetInCU: 0x38153, offset: 0x38153, size: 0x8, addend: 0x0, symName: __ZNSt6vectorIdSaIdEE11_S_max_sizeERKS0_, symObjAddr: 0xA6CC, symBinAddr: 0x10000CDF4, symSize: 0x54 }
  - { offsetInCU: 0x3815B, offset: 0x3815B, size: 0x8, addend: 0x0, symName: __ZSt14__relocate_a_1IddENSt9enable_ifIXsrSt24__is_bitwise_relocatableIT_vE5valueEPS2_E4typeES4_S4_S4_RSaIT0_E, symObjAddr: 0xA720, symBinAddr: 0x10000CE48, symSize: 0x68 }
  - { offsetInCU: 0x38296, offset: 0x38296, size: 0x8, addend: 0x0, symName: __ZSt14__relocate_a_1IP4UserS1_SaIS0_EET0_T_S4_S3_RT1_, symObjAddr: 0xA648, symBinAddr: 0x10000CD70, symSize: 0x84 }
  - { offsetInCU: 0x3829E, offset: 0x3829E, size: 0x8, addend: 0x0, symName: __ZNSt6vectorIdSaIdEE11_S_max_sizeERKS0_, symObjAddr: 0xA6CC, symBinAddr: 0x10000CDF4, symSize: 0x54 }
  - { offsetInCU: 0x382DF, offset: 0x382DF, size: 0x8, addend: 0x0, symName: __ZNSt6vectorI4UserSaIS0_EE11_S_max_sizeERKS1_, symObjAddr: 0xA5DC, symBinAddr: 0x10000CD04, symSize: 0x6C }
  - { offsetInCU: 0x382E7, offset: 0x382E7, size: 0x8, addend: 0x0, symName: __ZSt14__relocate_a_1IP4UserS1_SaIS0_EET0_T_S4_S3_RT1_, symObjAddr: 0xA648, symBinAddr: 0x10000CD70, symSize: 0x84 }
  - { offsetInCU: 0x383B3, offset: 0x383B3, size: 0x8, addend: 0x0, symName: __ZNSt10_HashtableINSt7__cxx1112basic_stringIcSt11char_traitsIcESaIcEEESt4pairIKS5_4UserESaIS9_ENSt8__detail10_Select1stESt8equal_toIS5_ESt4hashIS5_ENSB_18_Mod_range_hashingENSB_20_Default_ranged_hashENSB_20_Prime_rehash_policyENSB_17_Hashtable_traitsILb1ELb0ELb1EEEE13_M_rehash_auxEmSt17integral_constantIbLb1EE, symObjAddr: 0xA470, symBinAddr: 0x10000CB98, symSize: 0x16C }
  - { offsetInCU: 0x383BB, offset: 0x383BB, size: 0x8, addend: 0x0, symName: __ZNSt6vectorI4UserSaIS0_EE11_S_max_sizeERKS1_, symObjAddr: 0xA5DC, symBinAddr: 0x10000CD04, symSize: 0x6C }
  - { offsetInCU: 0x3862A, offset: 0x3862A, size: 0x8, addend: 0x0, symName: __ZSt12__to_addressINSt8__detail10_Hash_nodeISt4pairIKNSt7__cxx1112basic_stringIcSt11char_traitsIcESaIcEEE4UserELb1EEEEPT_SE_, symObjAddr: 0xA45C, symBinAddr: 0x10000CB84, symSize: 0x14 }
  - { offsetInCU: 0x38632, offset: 0x38632, size: 0x8, addend: 0x0, symName: __ZNSt10_HashtableINSt7__cxx1112basic_stringIcSt11char_traitsIcESaIcEEESt4pairIKS5_4UserESaIS9_ENSt8__detail10_Select1stESt8equal_toIS5_ESt4hashIS5_ENSB_18_Mod_range_hashingENSB_20_Default_ranged_hashENSB_20_Prime_rehash_policyENSB_17_Hashtable_traitsILb1ELb0ELb1EEEE13_M_rehash_auxEmSt17integral_constantIbLb1EE, symObjAddr: 0xA470, symBinAddr: 0x10000CB98, symSize: 0x16C }
  - { offsetInCU: 0x385BB, offset: 0x385BB, size: 0x8, addend: 0x0, symName: __ZN9__gnu_cxx16__aligned_bufferISt4pairIKNSt7__cxx1112basic_stringIcSt11char_traitsIcESaIcEEE4UserEE6_M_ptrEv, symObjAddr: 0xA440, symBinAddr: 0x10000CB68, symSize: 0x1C }
  - { offsetInCU: 0x385C3, offset: 0x385C3, size: 0x8, addend: 0x0, symName: __ZSt12__to_addressINSt8__detail10_Hash_nodeISt4pairIKNSt7__cxx1112basic_stringIcSt11char_traitsIcESaIcEEE4UserELb1EEEEPT_SE_, symObjAddr: 0xA45C, symBinAddr: 0x10000CB84, symSize: 0x14 }
  - { offsetInCU: 0x385EB, offset: 0x385EB, size: 0x8, addend: 0x0, symName: __ZNKSt10_HashtableINSt7__cxx1112basic_stringIcSt11char_traitsIcESaIcEEESt4pairIKS5_4UserESaIS9_ENSt8__detail10_Select1stESt8equal_toIS5_ESt4hashIS5_ENSB_18_Mod_range_hashingENSB_20_Default_ranged_hashENSB_20_Prime_rehash_policyENSB_17_Hashtable_traitsILb1ELb0ELb1EEEE15_M_bucket_indexERKNSB_16_Hash_node_valueIS9_Lb1EEE, symObjAddr: 0xA410, symBinAddr: 0x10000CB38, symSize: 0x30 }
  - { offsetInCU: 0x385F3, offset: 0x385F3, size: 0x8, addend: 0x0, symName: __ZN9__gnu_cxx16__aligned_bufferISt4pairIKNSt7__cxx1112basic_stringIcSt11char_traitsIcESaIcEEE4UserEE6_M_ptrEv, symObjAddr: 0xA440, symBinAddr: 0x10000CB68, symSize: 0x1C }
  - { offsetInCU: 0x3862F, offset: 0x3862F, size: 0x8, addend: 0x0, symName: __ZNKSt8__detail15_Hashtable_baseINSt7__cxx1112basic_stringIcSt11char_traitsIcESaIcEEESt4pairIKS6_4UserENS_10_Select1stESt8equal_toIS6_ESt4hashIS6_ENS_18_Mod_range_hashingENS_20_Default_ranged_hashENS_17_Hashtable_traitsILb1ELb0ELb1EEEE9_M_equalsERS8_mRKNS_16_Hash_node_valueISA_Lb1EEE, symObjAddr: 0xA3A0, symBinAddr: 0x10000CAC8, symSize: 0x70 }
  - { offsetInCU: 0x38637, offset: 0x38637, size: 0x8, addend: 0x0, symName: __ZNKSt10_HashtableINSt7__cxx1112basic_stringIcSt11char_traitsIcESaIcEEESt4pairIKS5_4UserESaIS9_ENSt8__detail10_Select1stESt8equal_toIS5_ESt4hashIS5_ENSB_18_Mod_range_hashingENSB_20_Default_ranged_hashENSB_20_Prime_rehash_policyENSB_17_Hashtable_traitsILb1ELb0ELb1EEEE15_M_bucket_indexERKNSB_16_Hash_node_valueIS9_Lb1EEE, symObjAddr: 0xA410, symBinAddr: 0x10000CB38, symSize: 0x30 }
  - { offsetInCU: 0x3869B, offset: 0x3869B, size: 0x8, addend: 0x0, symName: __ZNKSt8__detail21_Hashtable_ebo_helperILi1ESt4hashINSt7__cxx1112basic_stringIcSt11char_traitsIcESaIcEEEELb1EE7_M_cgetEv, symObjAddr: 0xA38C, symBinAddr: 0x10000CAB4, symSize: 0x14 }
  - { offsetInCU: 0x386A3, offset: 0x386A3, size: 0x8, addend: 0x0, symName: __ZNKSt8__detail15_Hashtable_baseINSt7__cxx1112basic_stringIcSt11char_traitsIcESaIcEEESt4pairIKS6_4UserENS_10_Select1stESt8equal_toIS6_ESt4hashIS6_ENS_18_Mod_range_hashingENS_20_Default_ranged_hashENS_17_Hashtable_traitsILb1ELb0ELb1EEEE9_M_equalsERS8_mRKNS_16_Hash_node_valueISA_Lb1EEE, symObjAddr: 0xA3A0, symBinAddr: 0x10000CAC8, symSize: 0x70 }
  - { offsetInCU: 0x3878F, offset: 0x3878F, size: 0x8, addend: 0x0, symName: __ZSt7forwardIRKSt4pairIKNSt7__cxx1112basic_stringIcSt11char_traitsIcESaIcEEE4UserEEOT_RNSt16remove_referenceISC_E4typeE, symObjAddr: 0xA378, symBinAddr: 0x10000CAA0, symSize: 0x14 }
  - { offsetInCU: 0x38797, offset: 0x38797, size: 0x8, addend: 0x0, symName: __ZNKSt8__detail21_Hashtable_ebo_helperILi1ESt4hashINSt7__cxx1112basic_stringIcSt11char_traitsIcESaIcEEEELb1EE7_M_cgetEv, symObjAddr: 0xA38C, symBinAddr: 0x10000CAB4, symSize: 0x14 }
  - { offsetInCU: 0x38720, offset: 0x38720, size: 0x8, addend: 0x0, symName: __ZNKSt8__detail21_Hash_node_value_baseISt4pairIKNSt7__cxx1112basic_stringIcSt11char_traitsIcESaIcEEE4UserEE9_M_valptrEv, symObjAddr: 0xA35C, symBinAddr: 0x10000CA84, symSize: 0x1C }
  - { offsetInCU: 0x38728, offset: 0x38728, size: 0x8, addend: 0x0, symName: __ZSt7forwardIRKSt4pairIKNSt7__cxx1112basic_stringIcSt11char_traitsIcESaIcEEE4UserEEOT_RNSt16remove_referenceISC_E4typeE, symObjAddr: 0xA378, symBinAddr: 0x10000CAA0, symSize: 0x14 }
  - { offsetInCU: 0x38750, offset: 0x38750, size: 0x8, addend: 0x0, symName: __ZNKSt8__detail21_Hashtable_ebo_helperILi0ESt8equal_toINSt7__cxx1112basic_stringIcSt11char_traitsIcESaIcEEEELb1EE7_M_cgetEv, symObjAddr: 0xA348, symBinAddr: 0x10000CA70, symSize: 0x14 }
  - { offsetInCU: 0x38758, offset: 0x38758, size: 0x8, addend: 0x0, symName: __ZNKSt8__detail21_Hash_node_value_baseISt4pairIKNSt7__cxx1112basic_stringIcSt11char_traitsIcESaIcEEE4UserEE9_M_valptrEv, symObjAddr: 0xA35C, symBinAddr: 0x10000CA84, symSize: 0x1C }
  - { offsetInCU: 0x387FD, offset: 0x387FD, size: 0x8, addend: 0x0, symName: __ZNSt8_Rb_treeINSt7__cxx1112basic_stringIcSt11char_traitsIcESaIcEEESt4pairIKS5_St3mapIS5_iSt4lessIS5_ESaIS6_IS7_iEEEESt10_Select1stISE_ESA_SaISE_EE21_M_get_Node_allocatorEv, symObjAddr: 0xA334, symBinAddr: 0x10000CA5C, symSize: 0x14 }
  - { offsetInCU: 0x38805, offset: 0x38805, size: 0x8, addend: 0x0, symName: __ZNKSt8__detail21_Hashtable_ebo_helperILi0ESt8equal_toINSt7__cxx1112basic_stringIcSt11char_traitsIcESaIcEEEELb1EE7_M_cgetEv, symObjAddr: 0xA348, symBinAddr: 0x10000CA70, symSize: 0x14 }
  - { offsetInCU: 0x3885B, offset: 0x3885B, size: 0x8, addend: 0x0, symName: __ZSt8_DestroyI7ExpenseEvPT_, symObjAddr: 0xA314, symBinAddr: 0x10000CA3C, symSize: 0x20 }
  - { offsetInCU: 0x38863, offset: 0x38863, size: 0x8, addend: 0x0, symName: __ZNSt8_Rb_treeINSt7__cxx1112basic_stringIcSt11char_traitsIcESaIcEEESt4pairIKS5_St3mapIS5_iSt4lessIS5_ESaIS6_IS7_iEEEESt10_Select1stISE_ESA_SaISE_EE21_M_get_Node_allocatorEv, symObjAddr: 0xA334, symBinAddr: 0x10000CA5C, symSize: 0x14 }
  - { offsetInCU: 0x388AC, offset: 0x388AC, size: 0x8, addend: 0x0, symName: __ZSt11__addressofI7ExpenseEPT_RS1_, symObjAddr: 0xA300, symBinAddr: 0x10000CA28, symSize: 0x14 }
  - { offsetInCU: 0x388B4, offset: 0x388B4, size: 0x8, addend: 0x0, symName: __ZSt8_DestroyI7ExpenseEvPT_, symObjAddr: 0xA314, symBinAddr: 0x10000CA3C, symSize: 0x20 }
  - { offsetInCU: 0x38952, offset: 0x38952, size: 0x8, addend: 0x0, symName: __ZNSt19__ptr_traits_ptr_toIPPNSt8__detail15_Hash_node_baseES2_Lb0EE10pointer_toERS2_, symObjAddr: 0xA2E4, symBinAddr: 0x10000CA0C, symSize: 0x1C }
  - { offsetInCU: 0x3895A, offset: 0x3895A, size: 0x8, addend: 0x0, symName: __ZSt11__addressofI7ExpenseEPT_RS1_, symObjAddr: 0xA300, symBinAddr: 0x10000CA28, symSize: 0x14 }
  - { offsetInCU: 0x38983, offset: 0x38983, size: 0x8, addend: 0x0, symName: __ZNSt8__detail16_Hashtable_allocISaINS_10_Hash_nodeISt4pairIKNSt7__cxx1112basic_stringIcSt11char_traitsIcESaIcEEE4UserELb1EEEEE22_M_deallocate_node_ptrEPSC_, symObjAddr: 0xA28C, symBinAddr: 0x10000C9B4, symSize: 0x58 }
  - { offsetInCU: 0x3898B, offset: 0x3898B, size: 0x8, addend: 0x0, symName: __ZNSt19__ptr_traits_ptr_toIPPNSt8__detail15_Hash_node_baseES2_Lb0EE10pointer_toERS2_, symObjAddr: 0xA2E4, symBinAddr: 0x10000CA0C, symSize: 0x1C }
  - { offsetInCU: 0x38A5A, offset: 0x38A5A, size: 0x8, addend: 0x0, symName: __ZNSt8__detail16_Hashtable_allocISaINS_10_Hash_nodeISt4pairIKNSt7__cxx1112basic_stringIcSt11char_traitsIcESaIcEEE4UserELb1EEEEE17_M_node_allocatorEv, symObjAddr: 0xA270, symBinAddr: 0x10000C998, symSize: 0x1C }
  - { offsetInCU: 0x38A62, offset: 0x38A62, size: 0x8, addend: 0x0, symName: __ZNSt8__detail16_Hashtable_allocISaINS_10_Hash_nodeISt4pairIKNSt7__cxx1112basic_stringIcSt11char_traitsIcESaIcEEE4UserELb1EEEEE22_M_deallocate_node_ptrEPSC_, symObjAddr: 0xA28C, symBinAddr: 0x10000C9B4, symSize: 0x58 }
  - { offsetInCU: 0x38B07, offset: 0x38B07, size: 0x8, addend: 0x0, symName: __ZNSt8_Rb_treeINSt7__cxx1112basic_stringIcSt11char_traitsIcESaIcEEESt4pairIKS5_iESt10_Select1stIS8_ESt4lessIS5_ESaIS8_EE21_M_get_Node_allocatorEv, symObjAddr: 0xA25C, symBinAddr: 0x10000C984, symSize: 0x14 }
  - { offsetInCU: 0x38B0F, offset: 0x38B0F, size: 0x8, addend: 0x0, symName: __ZNSt8__detail16_Hashtable_allocISaINS_10_Hash_nodeISt4pairIKNSt7__cxx1112basic_stringIcSt11char_traitsIcESaIcEEE4UserELb1EEEEE17_M_node_allocatorEv, symObjAddr: 0xA270, symBinAddr: 0x10000C998, symSize: 0x1C }
  - { offsetInCU: 0x38B41, offset: 0x38B41, size: 0x8, addend: 0x0, symName: __ZNSt8_Rb_treeINSt7__cxx1112basic_stringIcSt11char_traitsIcESaIcEEESt4pairIKS5_iESt10_Select1stIS8_ESt4lessIS5_ESaIS8_EE13_M_clone_nodeILb0ENSE_11_Alloc_nodeEEEPSt13_Rb_tree_nodeIS8_ESJ_RT0_, symObjAddr: 0xA200, symBinAddr: 0x10000C928, symSize: 0x5C }
  - { offsetInCU: 0x38B49, offset: 0x38B49, size: 0x8, addend: 0x0, symName: __ZNSt8_Rb_treeINSt7__cxx1112basic_stringIcSt11char_traitsIcESaIcEEESt4pairIKS5_iESt10_Select1stIS8_ESt4lessIS5_ESaIS8_EE21_M_get_Node_allocatorEv, symObjAddr: 0xA25C, symBinAddr: 0x10000C984, symSize: 0x14 }
  - { offsetInCU: 0x38BC9, offset: 0x38BC9, size: 0x8, addend: 0x0, symName: __ZNKSt10_Select1stISt4pairIKNSt7__cxx1112basic_stringIcSt11char_traitsIcESaIcEEEiEEclERKS8_, symObjAddr: 0xA1E8, symBinAddr: 0x10000C910, symSize: 0x18 }
  - { offsetInCU: 0x38BD1, offset: 0x38BD1, size: 0x8, addend: 0x0, symName: __ZNSt8_Rb_treeINSt7__cxx1112basic_stringIcSt11char_traitsIcESaIcEEESt4pairIKS5_iESt10_Select1stIS8_ESt4lessIS5_ESaIS8_EE13_M_clone_nodeILb0ENSE_11_Alloc_nodeEEEPSt13_Rb_tree_nodeIS8_ESJ_RT0_, symObjAddr: 0xA200, symBinAddr: 0x10000C928, symSize: 0x5C }
  - { offsetInCU: 0x38C0D, offset: 0x38C0D, size: 0x8, addend: 0x0, symName: __ZNKSt13_Rb_tree_nodeISt4pairIKNSt7__cxx1112basic_stringIcSt11char_traitsIcESaIcEEEiEE9_M_valptrEv, symObjAddr: 0xA1C8, symBinAddr: 0x10000C8F0, symSize: 0x20 }
  - { offsetInCU: 0x38C15, offset: 0x38C15, size: 0x8, addend: 0x0, symName: __ZNKSt10_Select1stISt4pairIKNSt7__cxx1112basic_stringIcSt11char_traitsIcESaIcEEEiEEclERKS8_, symObjAddr: 0xA1E8, symBinAddr: 0x10000C910, symSize: 0x18 }
  - { offsetInCU: 0x38D1E, offset: 0x38D1E, size: 0x8, addend: 0x0, symName: __ZNSt4pairIPSt18_Rb_tree_node_baseS1_EC1IRPSt13_Rb_tree_nodeIS_IKNSt7__cxx1112basic_stringIcSt11char_traitsIcESaIcEEEiEERS1_Lb1EEEOT_OT0_, symObjAddr: 0xA180, symBinAddr: 0x10000C8A8, symSize: 0x48 }
  - { offsetInCU: 0x38D26, offset: 0x38D26, size: 0x8, addend: 0x0, symName: __ZNKSt13_Rb_tree_nodeISt4pairIKNSt7__cxx1112basic_stringIcSt11char_traitsIcESaIcEEEiEE9_M_valptrEv, symObjAddr: 0xA1C8, symBinAddr: 0x10000C8F0, symSize: 0x20 }
  - { offsetInCU: 0x38CF8, offset: 0x38CF8, size: 0x8, addend: 0x0, symName: __ZNSt8_Rb_treeINSt7__cxx1112basic_stringIcSt11char_traitsIcESaIcEEESt4pairIKS5_iESt10_Select1stIS8_ESt4lessIS5_ESaIS8_EE17_M_construct_nodeIJRKSt21piecewise_construct_tSt5tupleIJRS7_EESJ_IJEEEEEvPSt13_Rb_tree_nodeIS8_EDpOT_, symObjAddr: 0xA004, symBinAddr: 0x10000C72C, symSize: 0x17C }
  - { offsetInCU: 0x38D00, offset: 0x38D00, size: 0x8, addend: 0x0, symName: __ZNSt4pairIPSt18_Rb_tree_node_baseS1_EC1IRPSt13_Rb_tree_nodeIS_IKNSt7__cxx1112basic_stringIcSt11char_traitsIcESaIcEEEiEERS1_Lb1EEEOT_OT0_, symObjAddr: 0xA180, symBinAddr: 0x10000C8A8, symSize: 0x48 }
  - { offsetInCU: 0x38E4A, offset: 0x38E4A, size: 0x8, addend: 0x0, symName: __ZNSt8_Rb_treeINSt7__cxx1112basic_stringIcSt11char_traitsIcESaIcEEESt4pairIKS5_iESt10_Select1stIS8_ESt4lessIS5_ESaIS8_EE11_M_get_nodeEv, symObjAddr: 0x9FC8, symBinAddr: 0x10000C6F0, symSize: 0x3C }
  - { offsetInCU: 0x38E52, offset: 0x38E52, size: 0x8, addend: 0x0, symName: __ZNSt8_Rb_treeINSt7__cxx1112basic_stringIcSt11char_traitsIcESaIcEEESt4pairIKS5_iESt10_Select1stIS8_ESt4lessIS5_ESaIS8_EE17_M_construct_nodeIJRKSt21piecewise_construct_tSt5tupleIJRS7_EESJ_IJEEEEEvPSt13_Rb_tree_nodeIS8_EDpOT_, symObjAddr: 0xA004, symBinAddr: 0x10000C72C, symSize: 0x17C }
  - { offsetInCU: 0x38EAF, offset: 0x38EAF, size: 0x8, addend: 0x0, symName: __ZNKSt10_Select1stISt4pairIKNSt7__cxx1112basic_stringIcSt11char_traitsIcESaIcEEESt3mapIS6_iSt4lessIS6_ESaIS0_IS7_iEEEEEclERKSE_, symObjAddr: 0x9FB0, symBinAddr: 0x10000C6D8, symSize: 0x18 }
  - { offsetInCU: 0x38EB7, offset: 0x38EB7, size: 0x8, addend: 0x0, symName: __ZNSt8_Rb_treeINSt7__cxx1112basic_stringIcSt11char_traitsIcESaIcEEESt4pairIKS5_iESt10_Select1stIS8_ESt4lessIS5_ESaIS8_EE11_M_get_nodeEv, symObjAddr: 0x9FC8, symBinAddr: 0x10000C6F0, symSize: 0x3C }
  - { offsetInCU: 0x38EF3, offset: 0x38EF3, size: 0x8, addend: 0x0, symName: __ZNKSt13_Rb_tree_nodeISt4pairIKNSt7__cxx1112basic_stringIcSt11char_traitsIcESaIcEEESt3mapIS6_iSt4lessIS6_ESaIS0_IS7_iEEEEE9_M_valptrEv, symObjAddr: 0x9F90, symBinAddr: 0x10000C6B8, symSize: 0x20 }
  - { offsetInCU: 0x38EFB, offset: 0x38EFB, size: 0x8, addend: 0x0, symName: __ZNKSt10_Select1stISt4pairIKNSt7__cxx1112basic_stringIcSt11char_traitsIcESaIcEEESt3mapIS6_iSt4lessIS6_ESaIS0_IS7_iEEEEEclERKSE_, symObjAddr: 0x9FB0, symBinAddr: 0x10000C6D8, symSize: 0x18 }
  - { offsetInCU: 0x38F95, offset: 0x38F95, size: 0x8, addend: 0x0, symName: __ZSt7forwardIRPSt18_Rb_tree_node_baseEOT_RNSt16remove_referenceIS3_E4typeE, symObjAddr: 0x9F7C, symBinAddr: 0x10000C6A4, symSize: 0x14 }
  - { offsetInCU: 0x38F9D, offset: 0x38F9D, size: 0x8, addend: 0x0, symName: __ZNKSt13_Rb_tree_nodeISt4pairIKNSt7__cxx1112basic_stringIcSt11char_traitsIcESaIcEEESt3mapIS6_iSt4lessIS6_ESaIS0_IS7_iEEEEE9_M_valptrEv, symObjAddr: 0x9F90, symBinAddr: 0x10000C6B8, symSize: 0x20 }
  - { offsetInCU: 0x3907C, offset: 0x3907C, size: 0x8, addend: 0x0, symName: __ZNSt4pairIPSt18_Rb_tree_node_baseS1_EC1IRPSt13_Rb_tree_nodeIS_IKNSt7__cxx1112basic_stringIcSt11char_traitsIcESaIcEEESt3mapISA_iSt4lessISA_ESaIS_ISB_iEEEEERS1_Lb1EEEOT_OT0_, symObjAddr: 0x9F34, symBinAddr: 0x10000C65C, symSize: 0x48 }
  - { offsetInCU: 0x39084, offset: 0x39084, size: 0x8, addend: 0x0, symName: __ZSt7forwardIRPSt18_Rb_tree_node_baseEOT_RNSt16remove_referenceIS3_E4typeE, symObjAddr: 0x9F7C, symBinAddr: 0x10000C6A4, symSize: 0x14 }
  - { offsetInCU: 0x39033, offset: 0x39033, size: 0x8, addend: 0x0, symName: __ZNSt8_Rb_treeINSt7__cxx1112basic_stringIcSt11char_traitsIcESaIcEEESt4pairIKS5_St3mapIS5_iSt4lessIS5_ESaIS6_IS7_iEEEESt10_Select1stISE_ESA_SaISE_EE17_M_construct_nodeIJRKSt21piecewise_construct_tSt5tupleIJRS7_EESN_IJEEEEEvPSt13_Rb_tree_nodeISE_EDpOT_, symObjAddr: 0x9DB8, symBinAddr: 0x10000C4E0, symSize: 0x17C }
  - { offsetInCU: 0x3903B, offset: 0x3903B, size: 0x8, addend: 0x0, symName: __ZNSt4pairIPSt18_Rb_tree_node_baseS1_EC1IRPSt13_Rb_tree_nodeIS_IKNSt7__cxx1112basic_stringIcSt11char_traitsIcESaIcEEESt3mapISA_iSt4lessISA_ESaIS_ISB_iEEEEERS1_Lb1EEEOT_OT0_, symObjAddr: 0x9F34, symBinAddr: 0x10000C65C, symSize: 0x48 }
  - { offsetInCU: 0x39185, offset: 0x39185, size: 0x8, addend: 0x0, symName: __ZNSt8_Rb_treeINSt7__cxx1112basic_stringIcSt11char_traitsIcESaIcEEESt4pairIKS5_St3mapIS5_iSt4lessIS5_ESaIS6_IS7_iEEEESt10_Select1stISE_ESA_SaISE_EE11_M_get_nodeEv, symObjAddr: 0x9D7C, symBinAddr: 0x10000C4A4, symSize: 0x3C }
  - { offsetInCU: 0x3918D, offset: 0x3918D, size: 0x8, addend: 0x0, symName: __ZNSt8_Rb_treeINSt7__cxx1112basic_stringIcSt11char_traitsIcESaIcEEESt4pairIKS5_St3mapIS5_iSt4lessIS5_ESaIS6_IS7_iEEEESt10_Select1stISE_ESA_SaISE_EE17_M_construct_nodeIJRKSt21piecewise_construct_tSt5tupleIJRS7_EESN_IJEEEEEvPSt13_Rb_tree_nodeISE_EDpOT_, symObjAddr: 0x9DB8, symBinAddr: 0x10000C4E0, symSize: 0x17C }
  - { offsetInCU: 0x39265, offset: 0x39265, size: 0x8, addend: 0x0, symName: __ZSt14__relocate_a_1IP7ExpenseS1_SaIS0_EET0_T_S4_S3_RT1_, symObjAddr: 0x9CF8, symBinAddr: 0x10000C420, symSize: 0x84 }
  - { offsetInCU: 0x3926D, offset: 0x3926D, size: 0x8, addend: 0x0, symName: __ZNSt8_Rb_treeINSt7__cxx1112basic_stringIcSt11char_traitsIcESaIcEEESt4pairIKS5_St3mapIS5_iSt4lessIS5_ESaIS6_IS7_iEEEESt10_Select1stISE_ESA_SaISE_EE11_M_get_nodeEv, symObjAddr: 0x9D7C, symBinAddr: 0x10000C4A4, symSize: 0x3C }
  - { offsetInCU: 0x392E1, offset: 0x392E1, size: 0x8, addend: 0x0, symName: __ZSt12__niter_baseIP7ExpenseET_S2_, symObjAddr: 0x9CE4, symBinAddr: 0x10000C40C, symSize: 0x14 }
  - { offsetInCU: 0x392E9, offset: 0x392E9, size: 0x8, addend: 0x0, symName: __ZSt14__relocate_a_1IP7ExpenseS1_SaIS0_EET0_T_S4_S3_RT1_, symObjAddr: 0x9CF8, symBinAddr: 0x10000C420, symSize: 0x84 }
  - { offsetInCU: 0x392EF, offset: 0x392EF, size: 0x8, addend: 0x0, symName: __ZNSt15__new_allocatorI7ExpenseE8allocateEmPKv, symObjAddr: 0x9C3C, symBinAddr: 0x10000C364, symSize: 0xA8 }
  - { offsetInCU: 0x392F7, offset: 0x392F7, size: 0x8, addend: 0x0, symName: __ZSt12__niter_baseIP7ExpenseET_S2_, symObjAddr: 0x9CE4, symBinAddr: 0x10000C40C, symSize: 0x14 }
  - { offsetInCU: 0x3937B, offset: 0x3937B, size: 0x8, addend: 0x0, symName: __ZNKSt12_Vector_baseI7ExpenseSaIS0_EE19_M_get_Tp_allocatorEv, symObjAddr: 0x9C28, symBinAddr: 0x10000C350, symSize: 0x14 }
  - { offsetInCU: 0x39383, offset: 0x39383, size: 0x8, addend: 0x0, symName: __ZNSt15__new_allocatorI7ExpenseE8allocateEmPKv, symObjAddr: 0x9C3C, symBinAddr: 0x10000C364, symSize: 0xA8 }
  - { offsetInCU: 0x393AB, offset: 0x393AB, size: 0x8, addend: 0x0, symName: __ZNSt6vectorI7ExpenseSaIS0_EE11_S_max_sizeERKS1_, symObjAddr: 0x9BBC, symBinAddr: 0x10000C2E4, symSize: 0x6C }
  - { offsetInCU: 0x393B3, offset: 0x393B3, size: 0x8, addend: 0x0, symName: __ZNKSt12_Vector_baseI7ExpenseSaIS0_EE19_M_get_Tp_allocatorEv, symObjAddr: 0x9C28, symBinAddr: 0x10000C350, symSize: 0x14 }
  - { offsetInCU: 0x3953F, offset: 0x3953F, size: 0x8, addend: 0x0, symName: __ZSt16__do_uninit_copyIN9__gnu_cxx17__normal_iteratorIPK4UserSt6vectorIS2_SaIS2_EEEEPS2_ET0_T_SB_SA_, symObjAddr: 0x9B10, symBinAddr: 0x10000C238, symSize: 0xAC }
  - { offsetInCU: 0x39547, offset: 0x39547, size: 0x8, addend: 0x0, symName: __ZNSt6vectorI7ExpenseSaIS0_EE11_S_max_sizeERKS1_, symObjAddr: 0x9BBC, symBinAddr: 0x10000C2E4, symSize: 0x6C }
  - { offsetInCU: 0x3958B, offset: 0x3958B, size: 0x8, addend: 0x0, symName: __ZSt14__copy_move_a2ILb0EPdS0_ET1_T0_S2_S1_, symObjAddr: 0x9AE4, symBinAddr: 0x10000C20C, symSize: 0x2C }
  - { offsetInCU: 0x39593, offset: 0x39593, size: 0x8, addend: 0x0, symName: __ZSt16__do_uninit_copyIN9__gnu_cxx17__normal_iteratorIPK4UserSt6vectorIS2_SaIS2_EEEEPS2_ET0_T_SB_SA_, symObjAddr: 0x9B10, symBinAddr: 0x10000C238, symSize: 0xAC }
  - { offsetInCU: 0x395C2, offset: 0x395C2, size: 0x8, addend: 0x0, symName: __ZNK9__gnu_cxx17__normal_iteratorIPdSt6vectorIdSaIdEEEplEl, symObjAddr: 0x9AA4, symBinAddr: 0x10000C1CC, symSize: 0x40 }
  - { offsetInCU: 0x395CA, offset: 0x395CA, size: 0x8, addend: 0x0, symName: __ZSt14__copy_move_a2ILb0EPdS0_ET1_T0_S2_S1_, symObjAddr: 0x9AE4, symBinAddr: 0x10000C20C, symSize: 0x2C }
  - { offsetInCU: 0x39665, offset: 0x39665, size: 0x8, addend: 0x0, symName: __ZSt14__copy_move_a2ILb0EPKdPdET1_T0_S4_S3_, symObjAddr: 0x9A78, symBinAddr: 0x10000C1A0, symSize: 0x2C }
  - { offsetInCU: 0x3966D, offset: 0x3966D, size: 0x8, addend: 0x0, symName: __ZNK9__gnu_cxx17__normal_iteratorIPdSt6vectorIdSaIdEEEplEl, symObjAddr: 0x9AA4, symBinAddr: 0x10000C1CC, symSize: 0x40 }
  - { offsetInCU: 0x39696, offset: 0x39696, size: 0x8, addend: 0x0, symName: __ZNK9__gnu_cxx17__normal_iteratorIPKdSt6vectorIdSaIdEEE4baseEv, symObjAddr: 0x9A64, symBinAddr: 0x10000C18C, symSize: 0x14 }
  - { offsetInCU: 0x3969E, offset: 0x3969E, size: 0x8, addend: 0x0, symName: __ZSt14__copy_move_a2ILb0EPKdPdET1_T0_S4_S3_, symObjAddr: 0x9A78, symBinAddr: 0x10000C1A0, symSize: 0x2C }
  - { offsetInCU: 0x396C6, offset: 0x396C6, size: 0x8, addend: 0x0, symName: __ZNSt15__new_allocatorIdE8allocateEmPKv, symObjAddr: 0x99E8, symBinAddr: 0x10000C110, symSize: 0x7C }
  - { offsetInCU: 0x396CE, offset: 0x396CE, size: 0x8, addend: 0x0, symName: __ZNK9__gnu_cxx17__normal_iteratorIPKdSt6vectorIdSaIdEEE4baseEv, symObjAddr: 0x9A64, symBinAddr: 0x10000C18C, symSize: 0x14 }
  - { offsetInCU: 0x397A2, offset: 0x397A2, size: 0x8, addend: 0x0, symName: __ZSt16__do_uninit_copyIP4UserS1_ET0_T_S3_S2_, symObjAddr: 0x9954, symBinAddr: 0x10000C07C, symSize: 0x94 }
  - { offsetInCU: 0x397AA, offset: 0x397AA, size: 0x8, addend: 0x0, symName: __ZNSt15__new_allocatorIdE8allocateEmPKv, symObjAddr: 0x99E8, symBinAddr: 0x10000C110, symSize: 0x7C }
  - { offsetInCU: 0x3983C, offset: 0x3983C, size: 0x8, addend: 0x0, symName: __ZSt14__copy_move_a2ILb0EP4UserS1_ET1_T0_S3_S2_, symObjAddr: 0x9928, symBinAddr: 0x10000C050, symSize: 0x2C }
  - { offsetInCU: 0x39844, offset: 0x39844, size: 0x8, addend: 0x0, symName: __ZSt16__do_uninit_copyIP4UserS1_ET0_T_S3_S2_, symObjAddr: 0x9954, symBinAddr: 0x10000C07C, symSize: 0x94 }
  - { offsetInCU: 0x39873, offset: 0x39873, size: 0x8, addend: 0x0, symName: __ZNK9__gnu_cxx17__normal_iteratorIP4UserSt6vectorIS1_SaIS1_EEEdeEv, symObjAddr: 0x9910, symBinAddr: 0x10000C038, symSize: 0x18 }
  - { offsetInCU: 0x3987B, offset: 0x3987B, size: 0x8, addend: 0x0, symName: __ZSt14__copy_move_a2ILb0EP4UserS1_ET1_T0_S3_S2_, symObjAddr: 0x9928, symBinAddr: 0x10000C050, symSize: 0x2C }
  - { offsetInCU: 0x398A3, offset: 0x398A3, size: 0x8, addend: 0x0, symName: __ZN9__gnu_cxx17__normal_iteratorIP4UserSt6vectorIS1_SaIS1_EEEppEv, symObjAddr: 0x98E8, symBinAddr: 0x10000C010, symSize: 0x28 }
  - { offsetInCU: 0x398AB, offset: 0x398AB, size: 0x8, addend: 0x0, symName: __ZNK9__gnu_cxx17__normal_iteratorIP4UserSt6vectorIS1_SaIS1_EEEdeEv, symObjAddr: 0x9910, symBinAddr: 0x10000C038, symSize: 0x18 }
  - { offsetInCU: 0x39950, offset: 0x39950, size: 0x8, addend: 0x0, symName: __ZN9__gnu_cxxneIP4UserSt6vectorIS1_SaIS1_EEEEbRKNS_17__normal_iteratorIT_T0_EESB_, symObjAddr: 0x98A4, symBinAddr: 0x10000BFCC, symSize: 0x44 }
  - { offsetInCU: 0x39958, offset: 0x39958, size: 0x8, addend: 0x0, symName: __ZN9__gnu_cxx17__normal_iteratorIP4UserSt6vectorIS1_SaIS1_EEEppEv, symObjAddr: 0x98E8, symBinAddr: 0x10000C010, symSize: 0x28 }
  - { offsetInCU: 0x3994B, offset: 0x3994B, size: 0x8, addend: 0x0, symName: __ZNK9__gnu_cxx17__normal_iteratorIP4UserSt6vectorIS1_SaIS1_EEEplEl, symObjAddr: 0x9850, symBinAddr: 0x10000BF78, symSize: 0x54 }
  - { offsetInCU: 0x39953, offset: 0x39953, size: 0x8, addend: 0x0, symName: __ZN9__gnu_cxxneIP4UserSt6vectorIS1_SaIS1_EEEEbRKNS_17__normal_iteratorIT_T0_EESB_, symObjAddr: 0x98A4, symBinAddr: 0x10000BFCC, symSize: 0x44 }
  - { offsetInCU: 0x399F0, offset: 0x399F0, size: 0x8, addend: 0x0, symName: __ZSt14__copy_move_a2ILb0EPK4UserPS0_ET1_T0_S5_S4_, symObjAddr: 0x9824, symBinAddr: 0x10000BF4C, symSize: 0x2C }
  - { offsetInCU: 0x399F8, offset: 0x399F8, size: 0x8, addend: 0x0, symName: __ZNK9__gnu_cxx17__normal_iteratorIP4UserSt6vectorIS1_SaIS1_EEEplEl, symObjAddr: 0x9850, symBinAddr: 0x10000BF78, symSize: 0x54 }
  - { offsetInCU: 0x39A1F, offset: 0x39A1F, size: 0x8, addend: 0x0, symName: __ZNK9__gnu_cxx17__normal_iteratorIPK4UserSt6vectorIS1_SaIS1_EEE4baseEv, symObjAddr: 0x9810, symBinAddr: 0x10000BF38, symSize: 0x14 }
  - { offsetInCU: 0x39A27, offset: 0x39A27, size: 0x8, addend: 0x0, symName: __ZSt14__copy_move_a2ILb0EPK4UserPS0_ET1_T0_S5_S4_, symObjAddr: 0x9824, symBinAddr: 0x10000BF4C, symSize: 0x2C }
  - { offsetInCU: 0x39A4F, offset: 0x39A4F, size: 0x8, addend: 0x0, symName: __ZNSt15__new_allocatorI4UserE8allocateEmPKv, symObjAddr: 0x9768, symBinAddr: 0x10000BE90, symSize: 0xA8 }
  - { offsetInCU: 0x39A57, offset: 0x39A57, size: 0x8, addend: 0x0, symName: __ZNK9__gnu_cxx17__normal_iteratorIPK4UserSt6vectorIS1_SaIS1_EEE4baseEv, symObjAddr: 0x9810, symBinAddr: 0x10000BF38, symSize: 0x14 }
  - { offsetInCU: 0x39B03, offset: 0x39B03, size: 0x8, addend: 0x0, symName: __ZSt8_DestroyI4UserEvPT_, symObjAddr: 0x9748, symBinAddr: 0x10000BE70, symSize: 0x20 }
  - { offsetInCU: 0x39B0B, offset: 0x39B0B, size: 0x8, addend: 0x0, symName: __ZNSt15__new_allocatorI4UserE8allocateEmPKv, symObjAddr: 0x9768, symBinAddr: 0x10000BE90, symSize: 0xA8 }
  - { offsetInCU: 0x39B54, offset: 0x39B54, size: 0x8, addend: 0x0, symName: __ZSt11__addressofI4UserEPT_RS1_, symObjAddr: 0x9734, symBinAddr: 0x10000BE5C, symSize: 0x14 }
  - { offsetInCU: 0x39B5C, offset: 0x39B5C, size: 0x8, addend: 0x0, symName: __ZSt8_DestroyI4UserEvPT_, symObjAddr: 0x9748, symBinAddr: 0x10000BE70, symSize: 0x20 }
  - { offsetInCU: 0x39C5C, offset: 0x39C5C, size: 0x8, addend: 0x0, symName: __ZSt14__relocate_a_1IPNSt7__cxx1112basic_stringIcSt11char_traitsIcESaIcEEES6_SaIS5_EET0_T_S9_S8_RT1_, symObjAddr: 0x96B0, symBinAddr: 0x10000BDD8, symSize: 0x84 }
  - { offsetInCU: 0x39C64, offset: 0x39C64, size: 0x8, addend: 0x0, symName: __ZSt11__addressofI4UserEPT_RS1_, symObjAddr: 0x9734, symBinAddr: 0x10000BE5C, symSize: 0x14 }
  - { offsetInCU: 0x39CA5, offset: 0x39CA5, size: 0x8, addend: 0x0, symName: __ZSt12__niter_baseIPNSt7__cxx1112basic_stringIcSt11char_traitsIcESaIcEEEET_S7_, symObjAddr: 0x969C, symBinAddr: 0x10000BDC4, symSize: 0x14 }
  - { offsetInCU: 0x39CAD, offset: 0x39CAD, size: 0x8, addend: 0x0, symName: __ZSt14__relocate_a_1IPNSt7__cxx1112basic_stringIcSt11char_traitsIcESaIcEEES6_SaIS5_EET0_T_S9_S8_RT1_, symObjAddr: 0x96B0, symBinAddr: 0x10000BDD8, symSize: 0x84 }
  - { offsetInCU: 0x39C6E, offset: 0x39C6E, size: 0x8, addend: 0x0, symName: __ZNSt15__new_allocatorINSt7__cxx1112basic_stringIcSt11char_traitsIcESaIcEEEE8allocateEmPKv, symObjAddr: 0x9620, symBinAddr: 0x10000BD48, symSize: 0x7C }
  - { offsetInCU: 0x39C76, offset: 0x39C76, size: 0x8, addend: 0x0, symName: __ZSt12__niter_baseIPNSt7__cxx1112basic_stringIcSt11char_traitsIcESaIcEEEET_S7_, symObjAddr: 0x969C, symBinAddr: 0x10000BDC4, symSize: 0x14 }
  - { offsetInCU: 0x39CFA, offset: 0x39CFA, size: 0x8, addend: 0x0, symName: __ZNKSt12_Vector_baseINSt7__cxx1112basic_stringIcSt11char_traitsIcESaIcEEESaIS5_EE19_M_get_Tp_allocatorEv, symObjAddr: 0x960C, symBinAddr: 0x10000BD34, symSize: 0x14 }
  - { offsetInCU: 0x39D02, offset: 0x39D02, size: 0x8, addend: 0x0, symName: __ZNSt15__new_allocatorINSt7__cxx1112basic_stringIcSt11char_traitsIcESaIcEEEE8allocateEmPKv, symObjAddr: 0x9620, symBinAddr: 0x10000BD48, symSize: 0x7C }
  - { offsetInCU: 0x39D2A, offset: 0x39D2A, size: 0x8, addend: 0x0, symName: __ZNSt6vectorINSt7__cxx1112basic_stringIcSt11char_traitsIcESaIcEEESaIS5_EE11_S_max_sizeERKS6_, symObjAddr: 0x95B8, symBinAddr: 0x10000BCE0, symSize: 0x54 }
  - { offsetInCU: 0x39D32, offset: 0x39D32, size: 0x8, addend: 0x0, symName: __ZNKSt12_Vector_baseINSt7__cxx1112basic_stringIcSt11char_traitsIcESaIcEEESaIS5_EE19_M_get_Tp_allocatorEv, symObjAddr: 0x960C, symBinAddr: 0x10000BD34, symSize: 0x14 }
  - { offsetInCU: 0x39E72, offset: 0x39E72, size: 0x8, addend: 0x0, symName: __ZSt8_DestroyINSt7__cxx1112basic_stringIcSt11char_traitsIcESaIcEEEEvPT_, symObjAddr: 0x9598, symBinAddr: 0x10000BCC0, symSize: 0x20 }
  - { offsetInCU: 0x39E7A, offset: 0x39E7A, size: 0x8, addend: 0x0, symName: __ZNSt6vectorINSt7__cxx1112basic_stringIcSt11char_traitsIcESaIcEEESaIS5_EE11_S_max_sizeERKS6_, symObjAddr: 0x95B8, symBinAddr: 0x10000BCE0, symSize: 0x54 }
  - { offsetInCU: 0x39E41, offset: 0x39E41, size: 0x8, addend: 0x0, symName: __ZNSt20__uninitialized_copyILb1EE13__uninit_copyIN9__gnu_cxx17__normal_iteratorIPKdSt6vectorIdSaIdEEEEPdEET0_T_SC_SB_, symObjAddr: 0x956C, symBinAddr: 0x10000BC94, symSize: 0x2C }
  - { offsetInCU: 0x39E49, offset: 0x39E49, size: 0x8, addend: 0x0, symName: __ZSt8_DestroyINSt7__cxx1112basic_stringIcSt11char_traitsIcESaIcEEEEvPT_, symObjAddr: 0x9598, symBinAddr: 0x10000BCC0, symSize: 0x20 }
  - { offsetInCU: 0x39F47, offset: 0x39F47, size: 0x8, addend: 0x0, symName: __ZSt12__relocate_aIPdS0_SaIdEET0_T_S3_S2_RT1_, symObjAddr: 0x9510, symBinAddr: 0x10000BC38, symSize: 0x5C }
  - { offsetInCU: 0x39F4F, offset: 0x39F4F, size: 0x8, addend: 0x0, symName: __ZNSt20__uninitialized_copyILb1EE13__uninit_copyIN9__gnu_cxx17__normal_iteratorIPKdSt6vectorIdSaIdEEEEPdEET0_T_SC_SB_, symObjAddr: 0x956C, symBinAddr: 0x10000BC94, symSize: 0x2C }
  - { offsetInCU: 0x39F7F, offset: 0x39F7F, size: 0x8, addend: 0x0, symName: __ZNKSt6vectorIdSaIdEE8max_sizeEv, symObjAddr: 0x94F0, symBinAddr: 0x10000BC18, symSize: 0x20 }
  - { offsetInCU: 0x39F87, offset: 0x39F87, size: 0x8, addend: 0x0, symName: __ZSt12__relocate_aIPdS0_SaIdEET0_T_S3_S2_RT1_, symObjAddr: 0x9510, symBinAddr: 0x10000BC38, symSize: 0x5C }
  - { offsetInCU: 0x3A051, offset: 0x3A051, size: 0x8, addend: 0x0, symName: __ZSt12__relocate_aIP4UserS1_SaIS0_EET0_T_S4_S3_RT1_, symObjAddr: 0x9494, symBinAddr: 0x10000BBBC, symSize: 0x5C }
  - { offsetInCU: 0x3A059, offset: 0x3A059, size: 0x8, addend: 0x0, symName: __ZNKSt6vectorIdSaIdEE8max_sizeEv, symObjAddr: 0x94F0, symBinAddr: 0x10000BC18, symSize: 0x20 }
  - { offsetInCU: 0x3A089, offset: 0x3A089, size: 0x8, addend: 0x0, symName: __ZNKSt6vectorI4UserSaIS0_EE8max_sizeEv, symObjAddr: 0x9474, symBinAddr: 0x10000BB9C, symSize: 0x20 }
  - { offsetInCU: 0x3A091, offset: 0x3A091, size: 0x8, addend: 0x0, symName: __ZSt12__relocate_aIP4UserS1_SaIS0_EET0_T_S4_S3_RT1_, symObjAddr: 0x9494, symBinAddr: 0x10000BBBC, symSize: 0x5C }
  - { offsetInCU: 0x3A0B9, offset: 0x3A0B9, size: 0x8, addend: 0x0, symName: __ZNSt10_HashtableINSt7__cxx1112basic_stringIcSt11char_traitsIcESaIcEEESt4pairIKS5_4UserESaIS9_ENSt8__detail10_Select1stESt8equal_toIS5_ESt4hashIS5_ENSB_18_Mod_range_hashingENSB_20_Default_ranged_hashENSB_20_Prime_rehash_policyENSB_17_Hashtable_traitsILb1ELb0ELb1EEEE22_M_insert_bucket_beginEmPNSB_10_Hash_nodeIS9_Lb1EEE, symObjAddr: 0x9368, symBinAddr: 0x10000BA90, symSize: 0x10C }
  - { offsetInCU: 0x3A0C1, offset: 0x3A0C1, size: 0x8, addend: 0x0, symName: __ZNKSt6vectorI4UserSaIS0_EE8max_sizeEv, symObjAddr: 0x9474, symBinAddr: 0x10000BB9C, symSize: 0x20 }
  - { offsetInCU: 0x3A111, offset: 0x3A111, size: 0x8, addend: 0x0, symName: __ZNKSt8__detail15_Hash_code_baseINSt7__cxx1112basic_stringIcSt11char_traitsIcESaIcEEESt4pairIKS6_4UserENS_10_Select1stESt4hashIS6_ENS_18_Mod_range_hashingENS_20_Default_ranged_hashELb1EE13_M_store_codeERNS_21_Hash_node_code_cacheILb1EEEm, symObjAddr: 0x9340, symBinAddr: 0x10000BA68, symSize: 0x28 }
  - { offsetInCU: 0x3A119, offset: 0x3A119, size: 0x8, addend: 0x0, symName: __ZNSt10_HashtableINSt7__cxx1112basic_stringIcSt11char_traitsIcESaIcEEESt4pairIKS5_4UserESaIS9_ENSt8__detail10_Select1stESt8equal_toIS5_ESt4hashIS5_ENSB_18_Mod_range_hashingENSB_20_Default_ranged_hashENSB_20_Prime_rehash_policyENSB_17_Hashtable_traitsILb1ELb0ELb1EEEE22_M_insert_bucket_beginEmPNSB_10_Hash_nodeIS9_Lb1EEE, symObjAddr: 0x9368, symBinAddr: 0x10000BA90, symSize: 0x10C }
  - { offsetInCU: 0x3A169, offset: 0x3A169, size: 0x8, addend: 0x0, symName: __ZNSt10_HashtableINSt7__cxx1112basic_stringIcSt11char_traitsIcESaIcEEESt4pairIKS5_4UserESaIS9_ENSt8__detail10_Select1stESt8equal_toIS5_ESt4hashIS5_ENSB_18_Mod_range_hashingENSB_20_Default_ranged_hashENSB_20_Prime_rehash_policyENSB_17_Hashtable_traitsILb1ELb0ELb1EEEE9_M_rehashEmRKm, symObjAddr: 0x92D4, symBinAddr: 0x10000B9FC, symSize: 0x6C }
  - { offsetInCU: 0x3A171, offset: 0x3A171, size: 0x8, addend: 0x0, symName: __ZNKSt8__detail15_Hash_code_baseINSt7__cxx1112basic_stringIcSt11char_traitsIcESaIcEEESt4pairIKS6_4UserENS_10_Select1stESt4hashIS6_ENS_18_Mod_range_hashingENS_20_Default_ranged_hashELb1EE13_M_store_codeERNS_21_Hash_node_code_cacheILb1EEEm, symObjAddr: 0x9340, symBinAddr: 0x10000BA68, symSize: 0x28 }
  - { offsetInCU: 0x3A1C1, offset: 0x3A1C1, size: 0x8, addend: 0x0, symName: __ZNSt8__detail16_Hashtable_allocISaINS_10_Hash_nodeISt4pairIKNSt7__cxx1112basic_stringIcSt11char_traitsIcESaIcEEE4UserELb1EEEEE16_M_allocate_nodeIJRKSt21piecewise_construct_tSt5tupleIJRS9_EESJ_IJEEEEEPSC_DpOT_, symObjAddr: 0x90F0, symBinAddr: 0x10000B818, symSize: 0x1E4 }
  - { offsetInCU: 0x3A1C9, offset: 0x3A1C9, size: 0x8, addend: 0x0, symName: __ZNSt10_HashtableINSt7__cxx1112basic_stringIcSt11char_traitsIcESaIcEEESt4pairIKS5_4UserESaIS9_ENSt8__detail10_Select1stESt8equal_toIS5_ESt4hashIS5_ENSB_18_Mod_range_hashingENSB_20_Default_ranged_hashENSB_20_Prime_rehash_policyENSB_17_Hashtable_traitsILb1ELb0ELb1EEEE9_M_rehashEmRKm, symObjAddr: 0x92D4, symBinAddr: 0x10000B9FC, symSize: 0x6C }
  - { offsetInCU: 0x3A42C, offset: 0x3A42C, size: 0x8, addend: 0x0, symName: __ZNSt8__detail10_Hash_nodeISt4pairIKNSt7__cxx1112basic_stringIcSt11char_traitsIcESaIcEEE4UserELb1EEC1Ev, symObjAddr: 0x90D0, symBinAddr: 0x10000B7F8, symSize: 0x20 }
  - { offsetInCU: 0x3A434, offset: 0x3A434, size: 0x8, addend: 0x0, symName: __ZNSt8__detail16_Hashtable_allocISaINS_10_Hash_nodeISt4pairIKNSt7__cxx1112basic_stringIcSt11char_traitsIcESaIcEEE4UserELb1EEEEE16_M_allocate_nodeIJRKSt21piecewise_construct_tSt5tupleIJRS9_EESJ_IJEEEEEPSC_DpOT_, symObjAddr: 0x90F0, symBinAddr: 0x10000B818, symSize: 0x1E4 }
  - { offsetInCU: 0x3A3F4, offset: 0x3A3F4, size: 0x8, addend: 0x0, symName: __ZNSt8__detail21_Hash_node_value_baseISt4pairIKNSt7__cxx1112basic_stringIcSt11char_traitsIcESaIcEEE4UserEE9_M_valptrEv, symObjAddr: 0x90B4, symBinAddr: 0x10000B7DC, symSize: 0x1C }
  - { offsetInCU: 0x3A3FC, offset: 0x3A3FC, size: 0x8, addend: 0x0, symName: __ZNSt8__detail10_Hash_nodeISt4pairIKNSt7__cxx1112basic_stringIcSt11char_traitsIcESaIcEEE4UserELb1EEC1Ev, symObjAddr: 0x90D0, symBinAddr: 0x10000B7F8, symSize: 0x20 }
  - { offsetInCU: 0x3A4D9, offset: 0x3A4D9, size: 0x8, addend: 0x0, symName: __ZNSt8__detail19_Node_iterator_baseISt4pairIKNSt7__cxx1112basic_stringIcSt11char_traitsIcESaIcEEE4UserELb1EEC2EPNS_10_Hash_nodeISA_Lb1EEE, symObjAddr: 0x9090, symBinAddr: 0x10000B7B8, symSize: 0x24 }
  - { offsetInCU: 0x3A4E1, offset: 0x3A4E1, size: 0x8, addend: 0x0, symName: __ZNSt8__detail21_Hash_node_value_baseISt4pairIKNSt7__cxx1112basic_stringIcSt11char_traitsIcESaIcEEE4UserEE9_M_valptrEv, symObjAddr: 0x90B4, symBinAddr: 0x10000B7DC, symSize: 0x1C }
  - { offsetInCU: 0x3A48C, offset: 0x3A48C, size: 0x8, addend: 0x0, symName: __ZNKSt10_HashtableINSt7__cxx1112basic_stringIcSt11char_traitsIcESaIcEEESt4pairIKS5_4UserESaIS9_ENSt8__detail10_Select1stESt8equal_toIS5_ESt4hashIS5_ENSB_18_Mod_range_hashingENSB_20_Default_ranged_hashENSB_20_Prime_rehash_policyENSB_17_Hashtable_traitsILb1ELb0ELb1EEEE19_M_find_before_nodeEmRS7_m, symObjAddr: 0x8F90, symBinAddr: 0x10000B6B8, symSize: 0x100 }
  - { offsetInCU: 0x3A494, offset: 0x3A494, size: 0x8, addend: 0x0, symName: __ZNSt8__detail19_Node_iterator_baseISt4pairIKNSt7__cxx1112basic_stringIcSt11char_traitsIcESaIcEEE4UserELb1EEC2EPNS_10_Hash_nodeISA_Lb1EEE, symObjAddr: 0x9090, symBinAddr: 0x10000B7B8, symSize: 0x24 }
  - { offsetInCU: 0x3A535, offset: 0x3A535, size: 0x8, addend: 0x0, symName: __ZNKSt8__detail15_Hash_code_baseINSt7__cxx1112basic_stringIcSt11char_traitsIcESaIcEEESt4pairIKS6_4UserENS_10_Select1stESt4hashIS6_ENS_18_Mod_range_hashingENS_20_Default_ranged_hashELb1EE15_M_bucket_indexEmm, symObjAddr: 0x8F64, symBinAddr: 0x10000B68C, symSize: 0x2C }
  - { offsetInCU: 0x3A53D, offset: 0x3A53D, size: 0x8, addend: 0x0, symName: __ZNKSt10_HashtableINSt7__cxx1112basic_stringIcSt11char_traitsIcESaIcEEESt4pairIKS5_4UserESaIS9_ENSt8__detail10_Select1stESt8equal_toIS5_ESt4hashIS5_ENSB_18_Mod_range_hashingENSB_20_Default_ranged_hashENSB_20_Prime_rehash_policyENSB_17_Hashtable_traitsILb1ELb0ELb1EEEE19_M_find_before_nodeEmRS7_m, symObjAddr: 0x8F90, symBinAddr: 0x10000B6B8, symSize: 0x100 }
  - { offsetInCU: 0x3A58D, offset: 0x3A58D, size: 0x8, addend: 0x0, symName: __ZNKSt15__str_hash_baseIcSaIcENSt7__cxx1112basic_stringIcSt11char_traitsIcES0_EEEclERKS5_, symObjAddr: 0x8F1C, symBinAddr: 0x10000B644, symSize: 0x48 }
  - { offsetInCU: 0x3A595, offset: 0x3A595, size: 0x8, addend: 0x0, symName: __ZNKSt8__detail15_Hash_code_baseINSt7__cxx1112basic_stringIcSt11char_traitsIcESaIcEEESt4pairIKS6_4UserENS_10_Select1stESt4hashIS6_ENS_18_Mod_range_hashingENS_20_Default_ranged_hashELb1EE15_M_bucket_indexEmm, symObjAddr: 0x8F64, symBinAddr: 0x10000B68C, symSize: 0x2C }
  - { offsetInCU: 0x3A5D1, offset: 0x3A5D1, size: 0x8, addend: 0x0, symName: __ZNKSt8__detail15_Hash_code_baseINSt7__cxx1112basic_stringIcSt11char_traitsIcESaIcEEESt4pairIKS6_4UserENS_10_Select1stESt4hashIS6_ENS_18_Mod_range_hashingENS_20_Default_ranged_hashELb1EE7_M_hashEv, symObjAddr: 0x8F00, symBinAddr: 0x10000B628, symSize: 0x1C }
  - { offsetInCU: 0x3A5D9, offset: 0x3A5D9, size: 0x8, addend: 0x0, symName: __ZNKSt15__str_hash_baseIcSaIcENSt7__cxx1112basic_stringIcSt11char_traitsIcES0_EEEclERKS5_, symObjAddr: 0x8F1C, symBinAddr: 0x10000B644, symSize: 0x48 }
  - { offsetInCU: 0x3A601, offset: 0x3A601, size: 0x8, addend: 0x0, symName: __ZNKSt8equal_toINSt7__cxx1112basic_stringIcSt11char_traitsIcESaIcEEEEclERKS5_S8_, symObjAddr: 0x8ED4, symBinAddr: 0x10000B5FC, symSize: 0x2C }
  - { offsetInCU: 0x3A609, offset: 0x3A609, size: 0x8, addend: 0x0, symName: __ZNKSt8__detail15_Hash_code_baseINSt7__cxx1112basic_stringIcSt11char_traitsIcESaIcEEESt4pairIKS6_4UserENS_10_Select1stESt4hashIS6_ENS_18_Mod_range_hashingENS_20_Default_ranged_hashELb1EE7_M_hashEv, symObjAddr: 0x8F00, symBinAddr: 0x10000B628, symSize: 0x1C }
  - { offsetInCU: 0x3A66C, offset: 0x3A66C, size: 0x8, addend: 0x0, symName: __ZNKSt8__detail10_Select1stclIRKSt4pairIKNSt7__cxx1112basic_stringIcSt11char_traitsIcESaIcEEE4UserEEEONS0_10__1st_typeIT_E4typeEOSF_, symObjAddr: 0x8EB4, symBinAddr: 0x10000B5DC, symSize: 0x20 }
  - { offsetInCU: 0x3A674, offset: 0x3A674, size: 0x8, addend: 0x0, symName: __ZNKSt8equal_toINSt7__cxx1112basic_stringIcSt11char_traitsIcESaIcEEEEclERKS5_S8_, symObjAddr: 0x8ED4, symBinAddr: 0x10000B5FC, symSize: 0x2C }
  - { offsetInCU: 0x3A6BC, offset: 0x3A6BC, size: 0x8, addend: 0x0, symName: __ZNKSt8__detail21_Hash_node_value_baseISt4pairIKNSt7__cxx1112basic_stringIcSt11char_traitsIcESaIcEEE4UserEE4_M_vEv, symObjAddr: 0x8E98, symBinAddr: 0x10000B5C0, symSize: 0x1C }
  - { offsetInCU: 0x3A6C4, offset: 0x3A6C4, size: 0x8, addend: 0x0, symName: __ZNKSt8__detail10_Select1stclIRKSt4pairIKNSt7__cxx1112basic_stringIcSt11char_traitsIcESaIcEEE4UserEEEONS0_10__1st_typeIT_E4typeEOSF_, symObjAddr: 0x8EB4, symBinAddr: 0x10000B5DC, symSize: 0x20 }
  - { offsetInCU: 0x3A6EC, offset: 0x3A6EC, size: 0x8, addend: 0x0, symName: __ZNKSt8__detail15_Hashtable_baseINSt7__cxx1112basic_stringIcSt11char_traitsIcESaIcEEESt4pairIKS6_4UserENS_10_Select1stESt8equal_toIS6_ESt4hashIS6_ENS_18_Mod_range_hashingENS_20_Default_ranged_hashENS_17_Hashtable_traitsILb1ELb0ELb1EEEE5_M_eqEv, symObjAddr: 0x8E7C, symBinAddr: 0x10000B5A4, symSize: 0x1C }
  - { offsetInCU: 0x3A6F4, offset: 0x3A6F4, size: 0x8, addend: 0x0, symName: __ZNKSt8__detail21_Hash_node_value_baseISt4pairIKNSt7__cxx1112basic_stringIcSt11char_traitsIcESaIcEEE4UserEE4_M_vEv, symObjAddr: 0x8E98, symBinAddr: 0x10000B5C0, symSize: 0x1C }
  - { offsetInCU: 0x3A71C, offset: 0x3A71C, size: 0x8, addend: 0x0, symName: __ZNSt8__detail19_Node_iterator_baseISt4pairIKNSt7__cxx1112basic_stringIcSt11char_traitsIcESaIcEEE4UserELb1EE7_M_incrEv, symObjAddr: 0x8E4C, symBinAddr: 0x10000B574, symSize: 0x30 }
  - { offsetInCU: 0x3A724, offset: 0x3A724, size: 0x8, addend: 0x0, symName: __ZNKSt8__detail15_Hashtable_baseINSt7__cxx1112basic_stringIcSt11char_traitsIcESaIcEEESt4pairIKS6_4UserENS_10_Select1stESt8equal_toIS6_ESt4hashIS6_ENS_18_Mod_range_hashingENS_20_Default_ranged_hashENS_17_Hashtable_traitsILb1ELb0ELb1EEEE5_M_eqEv, symObjAddr: 0x8E7C, symBinAddr: 0x10000B5A4, symSize: 0x1C }
  - { offsetInCU: 0x3A74D, offset: 0x3A74D, size: 0x8, addend: 0x0, symName: __ZNSt8__detail22_Hashtable_hash_traitsISt4hashINSt7__cxx1112basic_stringIcSt11char_traitsIcESaIcEEEEE22__small_size_thresholdEv, symObjAddr: 0x8E44, symBinAddr: 0x10000B56C, symSize: 0x8 }
  - { offsetInCU: 0x3A755, offset: 0x3A755, size: 0x8, addend: 0x0, symName: __ZNSt8__detail19_Node_iterator_baseISt4pairIKNSt7__cxx1112basic_stringIcSt11char_traitsIcESaIcEEE4UserELb1EE7_M_incrEv, symObjAddr: 0x8E4C, symBinAddr: 0x10000B574, symSize: 0x30 }
  - { offsetInCU: 0x3A769, offset: 0x3A769, size: 0x8, addend: 0x0, symName: __ZNSt8_Rb_treeINSt7__cxx1112basic_stringIcSt11char_traitsIcESaIcEEESt4pairIKS5_St3mapIS5_iSt4lessIS5_ESaIS6_IS7_iEEEESt10_Select1stISE_ESA_SaISE_EE11_M_put_nodeEPSt13_Rb_tree_nodeISE_E, symObjAddr: 0x8DF8, symBinAddr: 0x10000B520, symSize: 0x4C }
  - { offsetInCU: 0x3A771, offset: 0x3A771, size: 0x8, addend: 0x0, symName: __ZNSt8__detail22_Hashtable_hash_traitsISt4hashINSt7__cxx1112basic_stringIcSt11char_traitsIcESaIcEEEEE22__small_size_thresholdEv, symObjAddr: 0x8E44, symBinAddr: 0x10000B56C, symSize: 0x8 }
  - { offsetInCU: 0x3A7EF, offset: 0x3A7EF, size: 0x8, addend: 0x0, symName: __ZNSt8_Rb_treeINSt7__cxx1112basic_stringIcSt11char_traitsIcESaIcEEESt4pairIKS5_St3mapIS5_iSt4lessIS5_ESaIS6_IS7_iEEEESt10_Select1stISE_ESA_SaISE_EE15_M_destroy_nodeEPSt13_Rb_tree_nodeISE_E, symObjAddr: 0x8D98, symBinAddr: 0x10000B4C0, symSize: 0x60 }
  - { offsetInCU: 0x3A7F7, offset: 0x3A7F7, size: 0x8, addend: 0x0, symName: __ZNSt8_Rb_treeINSt7__cxx1112basic_stringIcSt11char_traitsIcESaIcEEESt4pairIKS5_St3mapIS5_iSt4lessIS5_ESaIS6_IS7_iEEEESt10_Select1stISE_ESA_SaISE_EE11_M_put_nodeEPSt13_Rb_tree_nodeISE_E, symObjAddr: 0x8DF8, symBinAddr: 0x10000B520, symSize: 0x4C }
  - { offsetInCU: 0x3A89D, offset: 0x3A89D, size: 0x8, addend: 0x0, symName: __ZNSt12_Destroy_auxILb0EE9__destroyIP7ExpenseEEvT_S4_, symObjAddr: 0x8D4C, symBinAddr: 0x10000B474, symSize: 0x4C }
  - { offsetInCU: 0x3A8A5, offset: 0x3A8A5, size: 0x8, addend: 0x0, symName: __ZNSt8_Rb_treeINSt7__cxx1112basic_stringIcSt11char_traitsIcESaIcEEESt4pairIKS5_St3mapIS5_iSt4lessIS5_ESaIS6_IS7_iEEEESt10_Select1stISE_ESA_SaISE_EE15_M_destroy_nodeEPSt13_Rb_tree_nodeISE_E, symObjAddr: 0x8D98, symBinAddr: 0x10000B4C0, symSize: 0x60 }
  - { offsetInCU: 0x3A8EE, offset: 0x3A8EE, size: 0x8, addend: 0x0, symName: __ZNSt15__new_allocatorI7ExpenseE10deallocateEPS0_m, symObjAddr: 0x8D08, symBinAddr: 0x10000B430, symSize: 0x44 }
  - { offsetInCU: 0x3A8F6, offset: 0x3A8F6, size: 0x8, addend: 0x0, symName: __ZNSt12_Destroy_auxILb0EE9__destroyIP7ExpenseEEvT_S4_, symObjAddr: 0x8D4C, symBinAddr: 0x10000B474, symSize: 0x4C }
  - { offsetInCU: 0x3A944, offset: 0x3A944, size: 0x8, addend: 0x0, symName: __ZNSt8__detail16_Hashtable_allocISaINS_10_Hash_nodeISt4pairIKNSt7__cxx1112basic_stringIcSt11char_traitsIcESaIcEEE4UserELb1EEEEE21_M_deallocate_bucketsEPPNS_15_Hash_node_baseEm, symObjAddr: 0x8C90, symBinAddr: 0x10000B3B8, symSize: 0x78 }
  - { offsetInCU: 0x3A94C, offset: 0x3A94C, size: 0x8, addend: 0x0, symName: __ZNSt15__new_allocatorI7ExpenseE10deallocateEPS0_m, symObjAddr: 0x8D08, symBinAddr: 0x10000B430, symSize: 0x44 }
  - { offsetInCU: 0x3AA85, offset: 0x3AA85, size: 0x8, addend: 0x0, symName: __ZNKSt10_HashtableINSt7__cxx1112basic_stringIcSt11char_traitsIcESaIcEEESt4pairIKS5_4UserESaIS9_ENSt8__detail10_Select1stESt8equal_toIS5_ESt4hashIS5_ENSB_18_Mod_range_hashingENSB_20_Default_ranged_hashENSB_20_Prime_rehash_policyENSB_17_Hashtable_traitsILb1ELb0ELb1EEEE21_M_uses_single_bucketEPPNSB_15_Hash_node_baseE, symObjAddr: 0x8C54, symBinAddr: 0x10000B37C, symSize: 0x3C }
  - { offsetInCU: 0x3AA8D, offset: 0x3AA8D, size: 0x8, addend: 0x0, symName: __ZNSt8__detail16_Hashtable_allocISaINS_10_Hash_nodeISt4pairIKNSt7__cxx1112basic_stringIcSt11char_traitsIcESaIcEEE4UserELb1EEEEE21_M_deallocate_bucketsEPPNS_15_Hash_node_baseEm, symObjAddr: 0x8C90, symBinAddr: 0x10000B3B8, symSize: 0x78 }
  - { offsetInCU: 0x3AAC9, offset: 0x3AAC9, size: 0x8, addend: 0x0, symName: __ZNSt8__detail16_Hashtable_allocISaINS_10_Hash_nodeISt4pairIKNSt7__cxx1112basic_stringIcSt11char_traitsIcESaIcEEE4UserELb1EEEEE18_M_deallocate_nodeEPSC_, symObjAddr: 0x8BE4, symBinAddr: 0x10000B30C, symSize: 0x70 }
  - { offsetInCU: 0x3AAD1, offset: 0x3AAD1, size: 0x8, addend: 0x0, symName: __ZNKSt10_HashtableINSt7__cxx1112basic_stringIcSt11char_traitsIcESaIcEEESt4pairIKS5_4UserESaIS9_ENSt8__detail10_Select1stESt8equal_toIS5_ESt4hashIS5_ENSB_18_Mod_range_hashingENSB_20_Default_ranged_hashENSB_20_Prime_rehash_policyENSB_17_Hashtable_traitsILb1ELb0ELb1EEEE21_M_uses_single_bucketEPPNSB_15_Hash_node_baseE, symObjAddr: 0x8C54, symBinAddr: 0x10000B37C, symSize: 0x3C }
  - { offsetInCU: 0x3AB77, offset: 0x3AB77, size: 0x8, addend: 0x0, symName: __ZNKSt8__detail10_Hash_nodeISt4pairIKNSt7__cxx1112basic_stringIcSt11char_traitsIcESaIcEEE4UserELb1EE7_M_nextEv, symObjAddr: 0x8BCC, symBinAddr: 0x10000B2F4, symSize: 0x18 }
  - { offsetInCU: 0x3AB7F, offset: 0x3AB7F, size: 0x8, addend: 0x0, symName: __ZNSt8__detail16_Hashtable_allocISaINS_10_Hash_nodeISt4pairIKNSt7__cxx1112basic_stringIcSt11char_traitsIcESaIcEEE4UserELb1EEEEE18_M_deallocate_nodeEPSC_, symObjAddr: 0x8BE4, symBinAddr: 0x10000B30C, symSize: 0x70 }
  - { offsetInCU: 0x3ABAC, offset: 0x3ABAC, size: 0x8, addend: 0x0, symName: __ZN9__gnu_cxx16__aligned_membufISt4pairIKNSt7__cxx1112basic_stringIcSt11char_traitsIcESaIcEEEiEE7_M_addrEv, symObjAddr: 0x8BB8, symBinAddr: 0x10000B2E0, symSize: 0x14 }
  - { offsetInCU: 0x3ABB4, offset: 0x3ABB4, size: 0x8, addend: 0x0, symName: __ZNKSt8__detail10_Hash_nodeISt4pairIKNSt7__cxx1112basic_stringIcSt11char_traitsIcESaIcEEE4UserELb1EE7_M_nextEv, symObjAddr: 0x8BCC, symBinAddr: 0x10000B2F4, symSize: 0x18 }
  - { offsetInCU: 0x3ABE0, offset: 0x3ABE0, size: 0x8, addend: 0x0, symName: __ZNSt8_Rb_treeINSt7__cxx1112basic_stringIcSt11char_traitsIcESaIcEEESt4pairIKS5_iESt10_Select1stIS8_ESt4lessIS5_ESaIS8_EE11_M_put_nodeEPSt13_Rb_tree_nodeIS8_E, symObjAddr: 0x8B6C, symBinAddr: 0x10000B294, symSize: 0x4C }
  - { offsetInCU: 0x3ABE8, offset: 0x3ABE8, size: 0x8, addend: 0x0, symName: __ZN9__gnu_cxx16__aligned_membufISt4pairIKNSt7__cxx1112basic_stringIcSt11char_traitsIcESaIcEEEiEE7_M_addrEv, symObjAddr: 0x8BB8, symBinAddr: 0x10000B2E0, symSize: 0x14 }
  - { offsetInCU: 0x3AC66, offset: 0x3AC66, size: 0x8, addend: 0x0, symName: __ZNSt8_Rb_treeINSt7__cxx1112basic_stringIcSt11char_traitsIcESaIcEEESt4pairIKS5_iESt10_Select1stIS8_ESt4lessIS5_ESaIS8_EE15_M_destroy_nodeEPSt13_Rb_tree_nodeIS8_E, symObjAddr: 0x8B0C, symBinAddr: 0x10000B234, symSize: 0x60 }
  - { offsetInCU: 0x3AC6E, offset: 0x3AC6E, size: 0x8, addend: 0x0, symName: __ZNSt8_Rb_treeINSt7__cxx1112basic_stringIcSt11char_traitsIcESaIcEEESt4pairIKS5_iESt10_Select1stIS8_ESt4lessIS5_ESaIS8_EE11_M_put_nodeEPSt13_Rb_tree_nodeIS8_E, symObjAddr: 0x8B6C, symBinAddr: 0x10000B294, symSize: 0x4C }
  - { offsetInCU: 0x3AD14, offset: 0x3AD14, size: 0x8, addend: 0x0, symName: __ZNSt8_Rb_treeINSt7__cxx1112basic_stringIcSt11char_traitsIcESaIcEEESt4pairIKS5_iESt10_Select1stIS8_ESt4lessIS5_ESaIS8_EE10_S_maximumEPSt18_Rb_tree_node_base, symObjAddr: 0x8AF0, symBinAddr: 0x10000B218, symSize: 0x1C }
  - { offsetInCU: 0x3AD1C, offset: 0x3AD1C, size: 0x8, addend: 0x0, symName: __ZNSt8_Rb_treeINSt7__cxx1112basic_stringIcSt11char_traitsIcESaIcEEESt4pairIKS5_iESt10_Select1stIS8_ESt4lessIS5_ESaIS8_EE15_M_destroy_nodeEPSt13_Rb_tree_nodeIS8_E, symObjAddr: 0x8B0C, symBinAddr: 0x10000B234, symSize: 0x60 }
  - { offsetInCU: 0x3AD46, offset: 0x3AD46, size: 0x8, addend: 0x0, symName: __ZNSt8_Rb_treeINSt7__cxx1112basic_stringIcSt11char_traitsIcESaIcEEESt4pairIKS5_iESt10_Select1stIS8_ESt4lessIS5_ESaIS8_EE10_S_minimumEPSt18_Rb_tree_node_base, symObjAddr: 0x8AD4, symBinAddr: 0x10000B1FC, symSize: 0x1C }
  - { offsetInCU: 0x3AD4E, offset: 0x3AD4E, size: 0x8, addend: 0x0, symName: __ZNSt8_Rb_treeINSt7__cxx1112basic_stringIcSt11char_traitsIcESaIcEEESt4pairIKS5_iESt10_Select1stIS8_ESt4lessIS5_ESaIS8_EE10_S_maximumEPSt18_Rb_tree_node_base, symObjAddr: 0x8AF0, symBinAddr: 0x10000B218, symSize: 0x1C }
  - { offsetInCU: 0x3AD78, offset: 0x3AD78, size: 0x8, addend: 0x0, symName: __ZNSt8_Rb_treeINSt7__cxx1112basic_stringIcSt11char_traitsIcESaIcEEESt4pairIKS5_iESt10_Select1stIS8_ESt4lessIS5_ESaIS8_EE7_M_copyILb0ENSE_11_Alloc_nodeEEEPSt13_Rb_tree_nodeIS8_ESJ_PSt18_Rb_tree_node_baseRT0_, symObjAddr: 0x898C, symBinAddr: 0x10000B0B4, symSize: 0x148 }
  - { offsetInCU: 0x3AD80, offset: 0x3AD80, size: 0x8, addend: 0x0, symName: __ZNSt8_Rb_treeINSt7__cxx1112basic_stringIcSt11char_traitsIcESaIcEEESt4pairIKS5_iESt10_Select1stIS8_ESt4lessIS5_ESaIS8_EE10_S_minimumEPSt18_Rb_tree_node_base, symObjAddr: 0x8AD4, symBinAddr: 0x10000B1FC, symSize: 0x1C }
  - { offsetInCU: 0x3AE80, offset: 0x3AE80, size: 0x8, addend: 0x0, symName: __ZN9__gnu_cxx16__aligned_membufISt4pairIKNSt7__cxx1112basic_stringIcSt11char_traitsIcESaIcEEESt3mapIS7_iSt4lessIS7_ESaIS1_IS8_iEEEEE7_M_addrEv, symObjAddr: 0x8978, symBinAddr: 0x10000B0A0, symSize: 0x14 }
  - { offsetInCU: 0x3AE88, offset: 0x3AE88, size: 0x8, addend: 0x0, symName: __ZNSt8_Rb_treeINSt7__cxx1112basic_stringIcSt11char_traitsIcESaIcEEESt4pairIKS5_iESt10_Select1stIS8_ESt4lessIS5_ESaIS8_EE7_M_copyILb0ENSE_11_Alloc_nodeEEEPSt13_Rb_tree_nodeIS8_ESJ_PSt18_Rb_tree_node_baseRT0_, symObjAddr: 0x898C, symBinAddr: 0x10000B0B4, symSize: 0x148 }
  - { offsetInCU: 0x3AEB4, offset: 0x3AEB4, size: 0x8, addend: 0x0, symName: __ZNSt8_Rb_treeINSt7__cxx1112basic_stringIcSt11char_traitsIcESaIcEEESt4pairIKS5_iESt10_Select1stIS8_ESt4lessIS5_ESaIS8_EE14_M_insert_nodeEPSt18_Rb_tree_node_baseSG_PSt13_Rb_tree_nodeIS8_E, symObjAddr: 0x88A4, symBinAddr: 0x10000AFCC, symSize: 0xD4 }
  - { offsetInCU: 0x3AEBC, offset: 0x3AEBC, size: 0x8, addend: 0x0, symName: __ZN9__gnu_cxx16__aligned_membufISt4pairIKNSt7__cxx1112basic_stringIcSt11char_traitsIcESaIcEEESt3mapIS7_iSt4lessIS7_ESaIS1_IS8_iEEEEE7_M_addrEv, symObjAddr: 0x8978, symBinAddr: 0x10000B0A0, symSize: 0x14 }
  - { offsetInCU: 0x3AF35, offset: 0x3AF35, size: 0x8, addend: 0x0, symName: __ZNSt8_Rb_treeINSt7__cxx1112basic_stringIcSt11char_traitsIcESaIcEEESt4pairIKS5_iESt10_Select1stIS8_ESt4lessIS5_ESaIS8_EE6_S_keyEPKSt13_Rb_tree_nodeIS8_E, symObjAddr: 0x887C, symBinAddr: 0x10000AFA4, symSize: 0x28 }
  - { offsetInCU: 0x3AF3D, offset: 0x3AF3D, size: 0x8, addend: 0x0, symName: __ZNSt8_Rb_treeINSt7__cxx1112basic_stringIcSt11char_traitsIcESaIcEEESt4pairIKS5_iESt10_Select1stIS8_ESt4lessIS5_ESaIS8_EE14_M_insert_nodeEPSt18_Rb_tree_node_baseSG_PSt13_Rb_tree_nodeIS8_E, symObjAddr: 0x88A4, symBinAddr: 0x10000AFCC, symSize: 0xD4 }
  - { offsetInCU: 0x3AF67, offset: 0x3AF67, size: 0x8, addend: 0x0, symName: __ZNSt17_Rb_tree_iteratorISt4pairIKNSt7__cxx1112basic_stringIcSt11char_traitsIcESaIcEEEiEEmmEv, symObjAddr: 0x884C, symBinAddr: 0x10000AF74, symSize: 0x30 }
  - { offsetInCU: 0x3AF6F, offset: 0x3AF6F, size: 0x8, addend: 0x0, symName: __ZNSt8_Rb_treeINSt7__cxx1112basic_stringIcSt11char_traitsIcESaIcEEESt4pairIKS5_iESt10_Select1stIS8_ESt4lessIS5_ESaIS8_EE6_S_keyEPKSt13_Rb_tree_nodeIS8_E, symObjAddr: 0x887C, symBinAddr: 0x10000AFA4, symSize: 0x28 }
  - { offsetInCU: 0x3AF97, offset: 0x3AF97, size: 0x8, addend: 0x0, symName: __ZNSt8_Rb_treeINSt7__cxx1112basic_stringIcSt11char_traitsIcESaIcEEESt4pairIKS5_iESt10_Select1stIS8_ESt4lessIS5_ESaIS8_EE11_M_leftmostEv, symObjAddr: 0x8834, symBinAddr: 0x10000AF5C, symSize: 0x18 }
  - { offsetInCU: 0x3AF9F, offset: 0x3AF9F, size: 0x8, addend: 0x0, symName: __ZNSt17_Rb_tree_iteratorISt4pairIKNSt7__cxx1112basic_stringIcSt11char_traitsIcESaIcEEEiEEmmEv, symObjAddr: 0x884C, symBinAddr: 0x10000AF74, symSize: 0x30 }
  - { offsetInCU: 0x3AFC7, offset: 0x3AFC7, size: 0x8, addend: 0x0, symName: __ZNSt8_Rb_treeINSt7__cxx1112basic_stringIcSt11char_traitsIcESaIcEEESt4pairIKS5_iESt10_Select1stIS8_ESt4lessIS5_ESaIS8_EE24_M_get_insert_unique_posERS7_, symObjAddr: 0x86D4, symBinAddr: 0x10000ADFC, symSize: 0x160 }
  - { offsetInCU: 0x3AFCF, offset: 0x3AFCF, size: 0x8, addend: 0x0, symName: __ZNSt8_Rb_treeINSt7__cxx1112basic_stringIcSt11char_traitsIcESaIcEEESt4pairIKS5_iESt10_Select1stIS8_ESt4lessIS5_ESaIS8_EE11_M_leftmostEv, symObjAddr: 0x8834, symBinAddr: 0x10000AF5C, symSize: 0x18 }
  - { offsetInCU: 0x3B064, offset: 0x3B064, size: 0x8, addend: 0x0, symName: __ZNSt8_Rb_treeINSt7__cxx1112basic_stringIcSt11char_traitsIcESaIcEEESt4pairIKS5_iESt10_Select1stIS8_ESt4lessIS5_ESaIS8_EE6_S_keyEPKSt18_Rb_tree_node_base, symObjAddr: 0x86B8, symBinAddr: 0x10000ADE0, symSize: 0x1C }
  - { offsetInCU: 0x3B06C, offset: 0x3B06C, size: 0x8, addend: 0x0, symName: __ZNSt8_Rb_treeINSt7__cxx1112basic_stringIcSt11char_traitsIcESaIcEEESt4pairIKS5_iESt10_Select1stIS8_ESt4lessIS5_ESaIS8_EE24_M_get_insert_unique_posERS7_, symObjAddr: 0x86D4, symBinAddr: 0x10000ADFC, symSize: 0x160 }
  - { offsetInCU: 0x3B096, offset: 0x3B096, size: 0x8, addend: 0x0, symName: __ZNSt8_Rb_treeINSt7__cxx1112basic_stringIcSt11char_traitsIcESaIcEEESt4pairIKS5_iESt10_Select1stIS8_ESt4lessIS5_ESaIS8_EE12_M_rightmostEv, symObjAddr: 0x86A0, symBinAddr: 0x10000ADC8, symSize: 0x18 }
  - { offsetInCU: 0x3B09E, offset: 0x3B09E, size: 0x8, addend: 0x0, symName: __ZNSt8_Rb_treeINSt7__cxx1112basic_stringIcSt11char_traitsIcESaIcEEESt4pairIKS5_iESt10_Select1stIS8_ESt4lessIS5_ESaIS8_EE6_S_keyEPKSt18_Rb_tree_node_base, symObjAddr: 0x86B8, symBinAddr: 0x10000ADE0, symSize: 0x1C }
  - { offsetInCU: 0x3B0C6, offset: 0x3B0C6, size: 0x8, addend: 0x0, symName: __ZNKSt8_Rb_treeINSt7__cxx1112basic_stringIcSt11char_traitsIcESaIcEEESt4pairIKS5_iESt10_Select1stIS8_ESt4lessIS5_ESaIS8_EE4sizeEv, symObjAddr: 0x8688, symBinAddr: 0x10000ADB0, symSize: 0x18 }
  - { offsetInCU: 0x3B0CE, offset: 0x3B0CE, size: 0x8, addend: 0x0, symName: __ZNSt8_Rb_treeINSt7__cxx1112basic_stringIcSt11char_traitsIcESaIcEEESt4pairIKS5_iESt10_Select1stIS8_ESt4lessIS5_ESaIS8_EE12_M_rightmostEv, symObjAddr: 0x86A0, symBinAddr: 0x10000ADC8, symSize: 0x18 }
  - { offsetInCU: 0x3B0F6, offset: 0x3B0F6, size: 0x8, addend: 0x0, symName: __ZNKSt23_Rb_tree_const_iteratorISt4pairIKNSt7__cxx1112basic_stringIcSt11char_traitsIcESaIcEEEiEE13_M_const_castEv, symObjAddr: 0x8660, symBinAddr: 0x10000AD88, symSize: 0x28 }
  - { offsetInCU: 0x3B0FE, offset: 0x3B0FE, size: 0x8, addend: 0x0, symName: __ZNKSt8_Rb_treeINSt7__cxx1112basic_stringIcSt11char_traitsIcESaIcEEESt4pairIKS5_iESt10_Select1stIS8_ESt4lessIS5_ESaIS8_EE4sizeEv, symObjAddr: 0x8688, symBinAddr: 0x10000ADB0, symSize: 0x18 }
  - { offsetInCU: 0x3B126, offset: 0x3B126, size: 0x8, addend: 0x0, symName: __ZNSt8_Rb_treeINSt7__cxx1112basic_stringIcSt11char_traitsIcESaIcEEESt4pairIKS5_iESt10_Select1stIS8_ESt4lessIS5_ESaIS8_EE14_M_create_nodeIJRKSt21piecewise_construct_tSt5tupleIJRS7_EESJ_IJEEEEEPSt13_Rb_tree_nodeIS8_EDpOT_, symObjAddr: 0x85F0, symBinAddr: 0x10000AD18, symSize: 0x70 }
  - { offsetInCU: 0x3B12E, offset: 0x3B12E, size: 0x8, addend: 0x0, symName: __ZNKSt23_Rb_tree_const_iteratorISt4pairIKNSt7__cxx1112basic_stringIcSt11char_traitsIcESaIcEEEiEE13_M_const_castEv, symObjAddr: 0x8660, symBinAddr: 0x10000AD88, symSize: 0x28 }
  - { offsetInCU: 0x3B1BA, offset: 0x3B1BA, size: 0x8, addend: 0x0, symName: __ZNSt8_Rb_treeINSt7__cxx1112basic_stringIcSt11char_traitsIcESaIcEEESt4pairIKS5_iESt10_Select1stIS8_ESt4lessIS5_ESaIS8_EE14_M_lower_boundEPSt13_Rb_tree_nodeIS8_EPSt18_Rb_tree_node_baseRS7_, symObjAddr: 0x8550, symBinAddr: 0x10000AC78, symSize: 0xA0 }
  - { offsetInCU: 0x3B1C2, offset: 0x3B1C2, size: 0x8, addend: 0x0, symName: __ZNSt8_Rb_treeINSt7__cxx1112basic_stringIcSt11char_traitsIcESaIcEEESt4pairIKS5_iESt10_Select1stIS8_ESt4lessIS5_ESaIS8_EE14_M_create_nodeIJRKSt21piecewise_construct_tSt5tupleIJRS7_EESJ_IJEEEEEPSt13_Rb_tree_nodeIS8_EDpOT_, symObjAddr: 0x85F0, symBinAddr: 0x10000AD18, symSize: 0x70 }
  - { offsetInCU: 0x3B226, offset: 0x3B226, size: 0x8, addend: 0x0, symName: __ZNSt8_Rb_treeINSt7__cxx1112basic_stringIcSt11char_traitsIcESaIcEEESt4pairIKS5_iESt10_Select1stIS8_ESt4lessIS5_ESaIS8_EE6_M_endEv, symObjAddr: 0x8538, symBinAddr: 0x10000AC60, symSize: 0x18 }
  - { offsetInCU: 0x3B22E, offset: 0x3B22E, size: 0x8, addend: 0x0, symName: __ZNSt8_Rb_treeINSt7__cxx1112basic_stringIcSt11char_traitsIcESaIcEEESt4pairIKS5_iESt10_Select1stIS8_ESt4lessIS5_ESaIS8_EE14_M_lower_boundEPSt13_Rb_tree_nodeIS8_EPSt18_Rb_tree_node_baseRS7_, symObjAddr: 0x8550, symBinAddr: 0x10000AC78, symSize: 0xA0 }
  - { offsetInCU: 0x3B256, offset: 0x3B256, size: 0x8, addend: 0x0, symName: __ZNSt8_Rb_treeINSt7__cxx1112basic_stringIcSt11char_traitsIcESaIcEEESt4pairIKS5_St3mapIS5_iSt4lessIS5_ESaIS6_IS7_iEEEESt10_Select1stISE_ESA_SaISE_EE14_M_insert_nodeEPSt18_Rb_tree_node_baseSK_PSt13_Rb_tree_nodeISE_E, symObjAddr: 0x8464, symBinAddr: 0x10000AB8C, symSize: 0xD4 }
  - { offsetInCU: 0x3B25E, offset: 0x3B25E, size: 0x8, addend: 0x0, symName: __ZNSt8_Rb_treeINSt7__cxx1112basic_stringIcSt11char_traitsIcESaIcEEESt4pairIKS5_iESt10_Select1stIS8_ESt4lessIS5_ESaIS8_EE6_M_endEv, symObjAddr: 0x8538, symBinAddr: 0x10000AC60, symSize: 0x18 }
  - { offsetInCU: 0x3B2D7, offset: 0x3B2D7, size: 0x8, addend: 0x0, symName: __ZNSt8_Rb_treeINSt7__cxx1112basic_stringIcSt11char_traitsIcESaIcEEESt4pairIKS5_St3mapIS5_iSt4lessIS5_ESaIS6_IS7_iEEEESt10_Select1stISE_ESA_SaISE_EE6_S_keyEPKSt13_Rb_tree_nodeISE_E, symObjAddr: 0x843C, symBinAddr: 0x10000AB64, symSize: 0x28 }
  - { offsetInCU: 0x3B2DF, offset: 0x3B2DF, size: 0x8, addend: 0x0, symName: __ZNSt8_Rb_treeINSt7__cxx1112basic_stringIcSt11char_traitsIcESaIcEEESt4pairIKS5_St3mapIS5_iSt4lessIS5_ESaIS6_IS7_iEEEESt10_Select1stISE_ESA_SaISE_EE14_M_insert_nodeEPSt18_Rb_tree_node_baseSK_PSt13_Rb_tree_nodeISE_E, symObjAddr: 0x8464, symBinAddr: 0x10000AB8C, symSize: 0xD4 }
  - { offsetInCU: 0x3B309, offset: 0x3B309, size: 0x8, addend: 0x0, symName: __ZNSt17_Rb_tree_iteratorISt4pairIKNSt7__cxx1112basic_stringIcSt11char_traitsIcESaIcEEESt3mapIS6_iSt4lessIS6_ESaIS0_IS7_iEEEEEmmEv, symObjAddr: 0x840C, symBinAddr: 0x10000AB34, symSize: 0x30 }
  - { offsetInCU: 0x3B311, offset: 0x3B311, size: 0x8, addend: 0x0, symName: __ZNSt8_Rb_treeINSt7__cxx1112basic_stringIcSt11char_traitsIcESaIcEEESt4pairIKS5_St3mapIS5_iSt4lessIS5_ESaIS6_IS7_iEEEESt10_Select1stISE_ESA_SaISE_EE6_S_keyEPKSt13_Rb_tree_nodeISE_E, symObjAddr: 0x843C, symBinAddr: 0x10000AB64, symSize: 0x28 }
  - { offsetInCU: 0x3B3CE, offset: 0x3B3CE, size: 0x8, addend: 0x0, symName: __ZNSt4pairIPSt18_Rb_tree_node_baseS1_EC1IRS1_S4_Lb1EEEOT_OT0_, symObjAddr: 0x83C4, symBinAddr: 0x10000AAEC, symSize: 0x48 }
  - { offsetInCU: 0x3B3D6, offset: 0x3B3D6, size: 0x8, addend: 0x0, symName: __ZNSt17_Rb_tree_iteratorISt4pairIKNSt7__cxx1112basic_stringIcSt11char_traitsIcESaIcEEESt3mapIS6_iSt4lessIS6_ESaIS0_IS7_iEEEEEmmEv, symObjAddr: 0x840C, symBinAddr: 0x10000AB34, symSize: 0x30 }
  - { offsetInCU: 0x3B3F4, offset: 0x3B3F4, size: 0x8, addend: 0x0, symName: __ZNSt8_Rb_treeINSt7__cxx1112basic_stringIcSt11char_traitsIcESaIcEEESt4pairIKS5_St3mapIS5_iSt4lessIS5_ESaIS6_IS7_iEEEESt10_Select1stISE_ESA_SaISE_EE11_M_leftmostEv, symObjAddr: 0x83AC, symBinAddr: 0x10000AAD4, symSize: 0x18 }
  - { offsetInCU: 0x3B3FC, offset: 0x3B3FC, size: 0x8, addend: 0x0, symName: __ZNSt4pairIPSt18_Rb_tree_node_baseS1_EC1IRS1_S4_Lb1EEEOT_OT0_, symObjAddr: 0x83C4, symBinAddr: 0x10000AAEC, symSize: 0x48 }
  - { offsetInCU: 0x3B424, offset: 0x3B424, size: 0x8, addend: 0x0, symName: __ZNSt8_Rb_treeINSt7__cxx1112basic_stringIcSt11char_traitsIcESaIcEEESt4pairIKS5_St3mapIS5_iSt4lessIS5_ESaIS6_IS7_iEEEESt10_Select1stISE_ESA_SaISE_EE24_M_get_insert_unique_posERS7_, symObjAddr: 0x824C, symBinAddr: 0x10000A974, symSize: 0x160 }
  - { offsetInCU: 0x3B42C, offset: 0x3B42C, size: 0x8, addend: 0x0, symName: __ZNSt8_Rb_treeINSt7__cxx1112basic_stringIcSt11char_traitsIcESaIcEEESt4pairIKS5_St3mapIS5_iSt4lessIS5_ESaIS6_IS7_iEEEESt10_Select1stISE_ESA_SaISE_EE11_M_leftmostEv, symObjAddr: 0x83AC, symBinAddr: 0x10000AAD4, symSize: 0x18 }
  - { offsetInCU: 0x3B558, offset: 0x3B558, size: 0x8, addend: 0x0, symName: __ZNSt4pairIPSt18_Rb_tree_node_baseS1_EC1IS1_S1_Lb1EEERKS1_S5_, symObjAddr: 0x8210, symBinAddr: 0x10000A938, symSize: 0x3C }
  - { offsetInCU: 0x3B560, offset: 0x3B560, size: 0x8, addend: 0x0, symName: __ZNSt8_Rb_treeINSt7__cxx1112basic_stringIcSt11char_traitsIcESaIcEEESt4pairIKS5_St3mapIS5_iSt4lessIS5_ESaIS6_IS7_iEEEESt10_Select1stISE_ESA_SaISE_EE24_M_get_insert_unique_posERS7_, symObjAddr: 0x824C, symBinAddr: 0x10000A974, symSize: 0x160 }
  - { offsetInCU: 0x3B580, offset: 0x3B580, size: 0x8, addend: 0x0, symName: __ZNSt8_Rb_treeINSt7__cxx1112basic_stringIcSt11char_traitsIcESaIcEEESt4pairIKS5_St3mapIS5_iSt4lessIS5_ESaIS6_IS7_iEEEESt10_Select1stISE_ESA_SaISE_EE12_M_rightmostEv, symObjAddr: 0x81F8, symBinAddr: 0x10000A920, symSize: 0x18 }
  - { offsetInCU: 0x3B588, offset: 0x3B588, size: 0x8, addend: 0x0, symName: __ZNSt4pairIPSt18_Rb_tree_node_baseS1_EC1IS1_S1_Lb1EEERKS1_S5_, symObjAddr: 0x8210, symBinAddr: 0x10000A938, symSize: 0x3C }
  - { offsetInCU: 0x3B5B0, offset: 0x3B5B0, size: 0x8, addend: 0x0, symName: __ZNKSt23_Rb_tree_const_iteratorISt4pairIKNSt7__cxx1112basic_stringIcSt11char_traitsIcESaIcEEESt3mapIS6_iSt4lessIS6_ESaIS0_IS7_iEEEEE13_M_const_castEv, symObjAddr: 0x81D0, symBinAddr: 0x10000A8F8, symSize: 0x28 }
  - { offsetInCU: 0x3B5B8, offset: 0x3B5B8, size: 0x8, addend: 0x0, symName: __ZNSt8_Rb_treeINSt7__cxx1112basic_stringIcSt11char_traitsIcESaIcEEESt4pairIKS5_St3mapIS5_iSt4lessIS5_ESaIS6_IS7_iEEEESt10_Select1stISE_ESA_SaISE_EE12_M_rightmostEv, symObjAddr: 0x81F8, symBinAddr: 0x10000A920, symSize: 0x18 }
  - { offsetInCU: 0x3B5E0, offset: 0x3B5E0, size: 0x8, addend: 0x0, symName: __ZNSt8_Rb_treeINSt7__cxx1112basic_stringIcSt11char_traitsIcESaIcEEESt4pairIKS5_St3mapIS5_iSt4lessIS5_ESaIS6_IS7_iEEEESt10_Select1stISE_ESA_SaISE_EE14_M_create_nodeIJRKSt21piecewise_construct_tSt5tupleIJRS7_EESN_IJEEEEEPSt13_Rb_tree_nodeISE_EDpOT_, symObjAddr: 0x8160, symBinAddr: 0x10000A888, symSize: 0x70 }
  - { offsetInCU: 0x3B5E8, offset: 0x3B5E8, size: 0x8, addend: 0x0, symName: __ZNKSt23_Rb_tree_const_iteratorISt4pairIKNSt7__cxx1112basic_stringIcSt11char_traitsIcESaIcEEESt3mapIS6_iSt4lessIS6_ESaIS0_IS7_iEEEEE13_M_const_castEv, symObjAddr: 0x81D0, symBinAddr: 0x10000A8F8, symSize: 0x28 }
  - { offsetInCU: 0x3B6F6, offset: 0x3B6F6, size: 0x8, addend: 0x0, symName: __ZNSt10_Head_baseILm0ERKNSt7__cxx1112basic_stringIcSt11char_traitsIcESaIcEEELb0EEC2ES7_, symObjAddr: 0x813C, symBinAddr: 0x10000A864, symSize: 0x24 }
  - { offsetInCU: 0x3B6FE, offset: 0x3B6FE, size: 0x8, addend: 0x0, symName: __ZNSt8_Rb_treeINSt7__cxx1112basic_stringIcSt11char_traitsIcESaIcEEESt4pairIKS5_St3mapIS5_iSt4lessIS5_ESaIS6_IS7_iEEEESt10_Select1stISE_ESA_SaISE_EE14_M_create_nodeIJRKSt21piecewise_construct_tSt5tupleIJRS7_EESN_IJEEEEEPSt13_Rb_tree_nodeISE_EDpOT_, symObjAddr: 0x8160, symBinAddr: 0x10000A888, symSize: 0x70 }
  - { offsetInCU: 0x3B789, offset: 0x3B789, size: 0x8, addend: 0x0, symName: __ZSt12__relocate_aIP7ExpenseS1_SaIS0_EET0_T_S4_S3_RT1_, symObjAddr: 0x80E0, symBinAddr: 0x10000A808, symSize: 0x5C }
  - { offsetInCU: 0x3B791, offset: 0x3B791, size: 0x8, addend: 0x0, symName: __ZNSt10_Head_baseILm0ERKNSt7__cxx1112basic_stringIcSt11char_traitsIcESaIcEEELb0EEC2ES7_, symObjAddr: 0x813C, symBinAddr: 0x10000A864, symSize: 0x24 }
  - { offsetInCU: 0x3B7E4, offset: 0x3B7E4, size: 0x8, addend: 0x0, symName: __ZNKSt6vectorI7ExpenseSaIS0_EE4sizeEv, symObjAddr: 0x80A4, symBinAddr: 0x10000A7CC, symSize: 0x3C }
  - { offsetInCU: 0x3B7EC, offset: 0x3B7EC, size: 0x8, addend: 0x0, symName: __ZSt12__relocate_aIP7ExpenseS1_SaIS0_EET0_T_S4_S3_RT1_, symObjAddr: 0x80E0, symBinAddr: 0x10000A808, symSize: 0x5C }
  - { offsetInCU: 0x3B814, offset: 0x3B814, size: 0x8, addend: 0x0, symName: __ZNKSt6vectorI7ExpenseSaIS0_EE8max_sizeEv, symObjAddr: 0x8084, symBinAddr: 0x10000A7AC, symSize: 0x20 }
  - { offsetInCU: 0x3B81C, offset: 0x3B81C, size: 0x8, addend: 0x0, symName: __ZNKSt6vectorI7ExpenseSaIS0_EE4sizeEv, symObjAddr: 0x80A4, symBinAddr: 0x10000A7CC, symSize: 0x3C }
  - { offsetInCU: 0x3B844, offset: 0x3B844, size: 0x8, addend: 0x0, symName: __ZNSt20__uninitialized_copyILb0EE13__uninit_copyIN9__gnu_cxx17__normal_iteratorIPK4UserSt6vectorIS4_SaIS4_EEEEPS4_EET0_T_SD_SC_, symObjAddr: 0x8058, symBinAddr: 0x10000A780, symSize: 0x2C }
  - { offsetInCU: 0x3B84C, offset: 0x3B84C, size: 0x8, addend: 0x0, symName: __ZNKSt6vectorI7ExpenseSaIS0_EE8max_sizeEv, symObjAddr: 0x8084, symBinAddr: 0x10000A7AC, symSize: 0x20 }
  - { offsetInCU: 0x3B8DF, offset: 0x3B8DF, size: 0x8, addend: 0x0, symName: __ZNSt20__uninitialized_copyILb1EE13__uninit_copyIPdS2_EET0_T_S4_S3_, symObjAddr: 0x802C, symBinAddr: 0x10000A754, symSize: 0x2C }
  - { offsetInCU: 0x3B8E7, offset: 0x3B8E7, size: 0x8, addend: 0x0, symName: __ZNSt20__uninitialized_copyILb0EE13__uninit_copyIN9__gnu_cxx17__normal_iteratorIPK4UserSt6vectorIS4_SaIS4_EEEEPS4_EET0_T_SD_SC_, symObjAddr: 0x8058, symBinAddr: 0x10000A780, symSize: 0x2C }
  - { offsetInCU: 0x3B98C, offset: 0x3B98C, size: 0x8, addend: 0x0, symName: __ZSt12__niter_wrapIPdET_RKS1_S1_, symObjAddr: 0x8014, symBinAddr: 0x10000A73C, symSize: 0x18 }
  - { offsetInCU: 0x3B994, offset: 0x3B994, size: 0x8, addend: 0x0, symName: __ZNSt20__uninitialized_copyILb1EE13__uninit_copyIPdS2_EET0_T_S4_S3_, symObjAddr: 0x802C, symBinAddr: 0x10000A754, symSize: 0x2C }
  - { offsetInCU: 0x3BA03, offset: 0x3BA03, size: 0x8, addend: 0x0, symName: __ZSt14__copy_move_a1ILb0EPdS0_ET1_T0_S2_S1_, symObjAddr: 0x7FE8, symBinAddr: 0x10000A710, symSize: 0x2C }
  - { offsetInCU: 0x3BA0B, offset: 0x3BA0B, size: 0x8, addend: 0x0, symName: __ZSt12__niter_wrapIPdET_RKS1_S1_, symObjAddr: 0x8014, symBinAddr: 0x10000A73C, symSize: 0x18 }
  - { offsetInCU: 0x3BA71, offset: 0x3BA71, size: 0x8, addend: 0x0, symName: __ZSt12__niter_baseIPdET_S1_, symObjAddr: 0x7FD4, symBinAddr: 0x10000A6FC, symSize: 0x14 }
  - { offsetInCU: 0x3BA79, offset: 0x3BA79, size: 0x8, addend: 0x0, symName: __ZSt14__copy_move_a1ILb0EPdS0_ET1_T0_S2_S1_, symObjAddr: 0x7FE8, symBinAddr: 0x10000A710, symSize: 0x2C }
  - { offsetInCU: 0x3BA87, offset: 0x3BA87, size: 0x8, addend: 0x0, symName: __ZNSt12_Destroy_auxILb1EE9__destroyIN9__gnu_cxx17__normal_iteratorIPdSt6vectorIdSaIdEEEEEEvT_S9_, symObjAddr: 0x7FBC, symBinAddr: 0x10000A6E4, symSize: 0x18 }
  - { offsetInCU: 0x3BA8F, offset: 0x3BA8F, size: 0x8, addend: 0x0, symName: __ZSt12__niter_baseIPdET_S1_, symObjAddr: 0x7FD4, symBinAddr: 0x10000A6FC, symSize: 0x14 }
  - { offsetInCU: 0x3BB78, offset: 0x3BB78, size: 0x8, addend: 0x0, symName: __ZSt12__niter_wrapIN9__gnu_cxx17__normal_iteratorIPdSt6vectorIdSaIdEEEES2_ET_S7_T0_, symObjAddr: 0x7F80, symBinAddr: 0x10000A6A8, symSize: 0x3C }
  - { offsetInCU: 0x3BB80, offset: 0x3BB80, size: 0x8, addend: 0x0, symName: __ZNSt12_Destroy_auxILb1EE9__destroyIN9__gnu_cxx17__normal_iteratorIPdSt6vectorIdSaIdEEEEEEvT_S9_, symObjAddr: 0x7FBC, symBinAddr: 0x10000A6E4, symSize: 0x18 }
  - { offsetInCU: 0x3BB99, offset: 0x3BB99, size: 0x8, addend: 0x0, symName: __ZSt14__copy_move_a1ILb0EPKdPdET1_T0_S4_S3_, symObjAddr: 0x7F54, symBinAddr: 0x10000A67C, symSize: 0x2C }
  - { offsetInCU: 0x3BBA1, offset: 0x3BBA1, size: 0x8, addend: 0x0, symName: __ZSt12__niter_wrapIN9__gnu_cxx17__normal_iteratorIPdSt6vectorIdSaIdEEEES2_ET_S7_T0_, symObjAddr: 0x7F80, symBinAddr: 0x10000A6A8, symSize: 0x3C }
  - { offsetInCU: 0x3BC4C, offset: 0x3BC4C, size: 0x8, addend: 0x0, symName: __ZSt12__niter_baseIPdSt6vectorIdSaIdEEET_N9__gnu_cxx17__normal_iteratorIS4_T0_EE, symObjAddr: 0x7F34, symBinAddr: 0x10000A65C, symSize: 0x20 }
  - { offsetInCU: 0x3BC54, offset: 0x3BC54, size: 0x8, addend: 0x0, symName: __ZSt14__copy_move_a1ILb0EPKdPdET1_T0_S4_S3_, symObjAddr: 0x7F54, symBinAddr: 0x10000A67C, symSize: 0x2C }
  - { offsetInCU: 0x3BCAD, offset: 0x3BCAD, size: 0x8, addend: 0x0, symName: __ZSt12__niter_baseIPKdSt6vectorIdSaIdEEET_N9__gnu_cxx17__normal_iteratorIS5_T0_EE, symObjAddr: 0x7F14, symBinAddr: 0x10000A63C, symSize: 0x20 }
  - { offsetInCU: 0x3BCB5, offset: 0x3BCB5, size: 0x8, addend: 0x0, symName: __ZSt12__niter_baseIPdSt6vectorIdSaIdEEET_N9__gnu_cxx17__normal_iteratorIS4_T0_EE, symObjAddr: 0x7F34, symBinAddr: 0x10000A65C, symSize: 0x20 }
  - { offsetInCU: 0x3BCAD, offset: 0x3BCAD, size: 0x8, addend: 0x0, symName: __ZNSt20__uninitialized_copyILb0EE13__uninit_copyIP4UserS3_EET0_T_S5_S4_, symObjAddr: 0x7EE8, symBinAddr: 0x10000A610, symSize: 0x2C }
  - { offsetInCU: 0x3BCB5, offset: 0x3BCB5, size: 0x8, addend: 0x0, symName: __ZSt12__niter_baseIPKdSt6vectorIdSaIdEEET_N9__gnu_cxx17__normal_iteratorIS5_T0_EE, symObjAddr: 0x7F14, symBinAddr: 0x10000A63C, symSize: 0x20 }
  - { offsetInCU: 0x3BD5C, offset: 0x3BD5C, size: 0x8, addend: 0x0, symName: __ZSt12__niter_wrapIP4UserET_RKS2_S2_, symObjAddr: 0x7ED0, symBinAddr: 0x10000A5F8, symSize: 0x18 }
  - { offsetInCU: 0x3BD64, offset: 0x3BD64, size: 0x8, addend: 0x0, symName: __ZNSt20__uninitialized_copyILb0EE13__uninit_copyIP4UserS3_EET0_T_S5_S4_, symObjAddr: 0x7EE8, symBinAddr: 0x10000A610, symSize: 0x2C }
  - { offsetInCU: 0x3BDD1, offset: 0x3BDD1, size: 0x8, addend: 0x0, symName: __ZSt14__copy_move_a1ILb0EP4UserS1_ET1_T0_S3_S2_, symObjAddr: 0x7EA4, symBinAddr: 0x10000A5CC, symSize: 0x2C }
  - { offsetInCU: 0x3BDD9, offset: 0x3BDD9, size: 0x8, addend: 0x0, symName: __ZSt12__niter_wrapIP4UserET_RKS2_S2_, symObjAddr: 0x7ED0, symBinAddr: 0x10000A5F8, symSize: 0x18 }
  - { offsetInCU: 0x3BE41, offset: 0x3BE41, size: 0x8, addend: 0x0, symName: __ZSt12__niter_baseIP4UserET_S2_, symObjAddr: 0x7E90, symBinAddr: 0x10000A5B8, symSize: 0x14 }
  - { offsetInCU: 0x3BE49, offset: 0x3BE49, size: 0x8, addend: 0x0, symName: __ZSt14__copy_move_a1ILb0EP4UserS1_ET1_T0_S3_S2_, symObjAddr: 0x7EA4, symBinAddr: 0x10000A5CC, symSize: 0x2C }
  - { offsetInCU: 0x3BE55, offset: 0x3BE55, size: 0x8, addend: 0x0, symName: __ZNSt12_Destroy_auxILb0EE9__destroyIN9__gnu_cxx17__normal_iteratorIP4UserSt6vectorIS4_SaIS4_EEEEEEvT_SA_, symObjAddr: 0x7E38, symBinAddr: 0x10000A560, symSize: 0x58 }
  - { offsetInCU: 0x3BE5D, offset: 0x3BE5D, size: 0x8, addend: 0x0, symName: __ZSt12__niter_baseIP4UserET_S2_, symObjAddr: 0x7E90, symBinAddr: 0x10000A5B8, symSize: 0x14 }
  - { offsetInCU: 0x3BF54, offset: 0x3BF54, size: 0x8, addend: 0x0, symName: __ZSt12__niter_wrapIN9__gnu_cxx17__normal_iteratorIP4UserSt6vectorIS2_SaIS2_EEEES3_ET_S8_T0_, symObjAddr: 0x7DE8, symBinAddr: 0x10000A510, symSize: 0x50 }
  - { offsetInCU: 0x3BF5C, offset: 0x3BF5C, size: 0x8, addend: 0x0, symName: __ZNSt12_Destroy_auxILb0EE9__destroyIN9__gnu_cxx17__normal_iteratorIP4UserSt6vectorIS4_SaIS4_EEEEEEvT_SA_, symObjAddr: 0x7E38, symBinAddr: 0x10000A560, symSize: 0x58 }
  - { offsetInCU: 0x3BF75, offset: 0x3BF75, size: 0x8, addend: 0x0, symName: __ZSt14__copy_move_a1ILb0EPK4UserPS0_ET1_T0_S5_S4_, symObjAddr: 0x7DBC, symBinAddr: 0x10000A4E4, symSize: 0x2C }
  - { offsetInCU: 0x3BF7D, offset: 0x3BF7D, size: 0x8, addend: 0x0, symName: __ZSt12__niter_wrapIN9__gnu_cxx17__normal_iteratorIP4UserSt6vectorIS2_SaIS2_EEEES3_ET_S8_T0_, symObjAddr: 0x7DE8, symBinAddr: 0x10000A510, symSize: 0x50 }
  - { offsetInCU: 0x3C02A, offset: 0x3C02A, size: 0x8, addend: 0x0, symName: __ZSt12__niter_baseIP4UserSt6vectorIS0_SaIS0_EEET_N9__gnu_cxx17__normal_iteratorIS5_T0_EE, symObjAddr: 0x7D9C, symBinAddr: 0x10000A4C4, symSize: 0x20 }
  - { offsetInCU: 0x3C032, offset: 0x3C032, size: 0x8, addend: 0x0, symName: __ZSt14__copy_move_a1ILb0EPK4UserPS0_ET1_T0_S5_S4_, symObjAddr: 0x7DBC, symBinAddr: 0x10000A4E4, symSize: 0x2C }
  - { offsetInCU: 0x3C08B, offset: 0x3C08B, size: 0x8, addend: 0x0, symName: __ZSt12__niter_baseIPK4UserSt6vectorIS0_SaIS0_EEET_N9__gnu_cxx17__normal_iteratorIS6_T0_EE, symObjAddr: 0x7D7C, symBinAddr: 0x10000A4A4, symSize: 0x20 }
  - { offsetInCU: 0x3C093, offset: 0x3C093, size: 0x8, addend: 0x0, symName: __ZSt12__niter_baseIP4UserSt6vectorIS0_SaIS0_EEET_N9__gnu_cxx17__normal_iteratorIS5_T0_EE, symObjAddr: 0x7D9C, symBinAddr: 0x10000A4C4, symSize: 0x20 }
  - { offsetInCU: 0x3C087, offset: 0x3C087, size: 0x8, addend: 0x0, symName: __ZNSt12_Destroy_auxILb1EE9__destroyIPdEEvT_S3_, symObjAddr: 0x7D64, symBinAddr: 0x10000A48C, symSize: 0x18 }
  - { offsetInCU: 0x3C08F, offset: 0x3C08F, size: 0x8, addend: 0x0, symName: __ZSt12__niter_baseIPK4UserSt6vectorIS0_SaIS0_EEET_N9__gnu_cxx17__normal_iteratorIS6_T0_EE, symObjAddr: 0x7D7C, symBinAddr: 0x10000A4A4, symSize: 0x20 }
  - { offsetInCU: 0x3C0CC, offset: 0x3C0CC, size: 0x8, addend: 0x0, symName: __ZNSt15__new_allocatorIdE10deallocateEPdm, symObjAddr: 0x7D34, symBinAddr: 0x10000A45C, symSize: 0x30 }
  - { offsetInCU: 0x3C0D4, offset: 0x3C0D4, size: 0x8, addend: 0x0, symName: __ZNSt12_Destroy_auxILb1EE9__destroyIPdEEvT_S3_, symObjAddr: 0x7D64, symBinAddr: 0x10000A48C, symSize: 0x18 }
  - { offsetInCU: 0x3C122, offset: 0x3C122, size: 0x8, addend: 0x0, symName: __ZNSt12_Destroy_auxILb0EE9__destroyIP4UserEEvT_S4_, symObjAddr: 0x7CE8, symBinAddr: 0x10000A410, symSize: 0x4C }
  - { offsetInCU: 0x3C12A, offset: 0x3C12A, size: 0x8, addend: 0x0, symName: __ZNSt15__new_allocatorIdE10deallocateEPdm, symObjAddr: 0x7D34, symBinAddr: 0x10000A45C, symSize: 0x30 }
  - { offsetInCU: 0x3C173, offset: 0x3C173, size: 0x8, addend: 0x0, symName: __ZNSt15__new_allocatorI4UserE10deallocateEPS0_m, symObjAddr: 0x7CA4, symBinAddr: 0x10000A3CC, symSize: 0x44 }
  - { offsetInCU: 0x3C17B, offset: 0x3C17B, size: 0x8, addend: 0x0, symName: __ZNSt12_Destroy_auxILb0EE9__destroyIP4UserEEvT_S4_, symObjAddr: 0x7CE8, symBinAddr: 0x10000A410, symSize: 0x4C }
  - { offsetInCU: 0x3C2EF, offset: 0x3C2EF, size: 0x8, addend: 0x0, symName: __ZSt12__relocate_aIPNSt7__cxx1112basic_stringIcSt11char_traitsIcESaIcEEES6_SaIS5_EET0_T_S9_S8_RT1_, symObjAddr: 0x7C48, symBinAddr: 0x10000A370, symSize: 0x5C }
  - { offsetInCU: 0x3C2F7, offset: 0x3C2F7, size: 0x8, addend: 0x0, symName: __ZNSt15__new_allocatorI4UserE10deallocateEPS0_m, symObjAddr: 0x7CA4, symBinAddr: 0x10000A3CC, symSize: 0x44 }
  - { offsetInCU: 0x3C2D2, offset: 0x3C2D2, size: 0x8, addend: 0x0, symName: __ZNKSt6vectorINSt7__cxx1112basic_stringIcSt11char_traitsIcESaIcEEESaIS5_EE4sizeEv, symObjAddr: 0x7C20, symBinAddr: 0x10000A348, symSize: 0x28 }
  - { offsetInCU: 0x3C2DA, offset: 0x3C2DA, size: 0x8, addend: 0x0, symName: __ZSt12__relocate_aIPNSt7__cxx1112basic_stringIcSt11char_traitsIcESaIcEEES6_SaIS5_EET0_T_S9_S8_RT1_, symObjAddr: 0x7C48, symBinAddr: 0x10000A370, symSize: 0x5C }
  - { offsetInCU: 0x3C302, offset: 0x3C302, size: 0x8, addend: 0x0, symName: __ZNKSt6vectorINSt7__cxx1112basic_stringIcSt11char_traitsIcESaIcEEESaIS5_EE8max_sizeEv, symObjAddr: 0x7C00, symBinAddr: 0x10000A328, symSize: 0x20 }
  - { offsetInCU: 0x3C30A, offset: 0x3C30A, size: 0x8, addend: 0x0, symName: __ZNKSt6vectorINSt7__cxx1112basic_stringIcSt11char_traitsIcESaIcEEESaIS5_EE4sizeEv, symObjAddr: 0x7C20, symBinAddr: 0x10000A348, symSize: 0x28 }
  - { offsetInCU: 0x3C332, offset: 0x3C332, size: 0x8, addend: 0x0, symName: __ZNSt12_Destroy_auxILb0EE9__destroyIPNSt7__cxx1112basic_stringIcSt11char_traitsIcESaIcEEEEEvT_S9_, symObjAddr: 0x7BB4, symBinAddr: 0x10000A2DC, symSize: 0x4C }
  - { offsetInCU: 0x3C33A, offset: 0x3C33A, size: 0x8, addend: 0x0, symName: __ZNKSt6vectorINSt7__cxx1112basic_stringIcSt11char_traitsIcESaIcEEESaIS5_EE8max_sizeEv, symObjAddr: 0x7C00, symBinAddr: 0x10000A328, symSize: 0x20 }
  - { offsetInCU: 0x3C383, offset: 0x3C383, size: 0x8, addend: 0x0, symName: __ZNSt15__new_allocatorINSt7__cxx1112basic_stringIcSt11char_traitsIcESaIcEEEE10deallocateEPS5_m, symObjAddr: 0x7B84, symBinAddr: 0x10000A2AC, symSize: 0x30 }
  - { offsetInCU: 0x3C38B, offset: 0x3C38B, size: 0x8, addend: 0x0, symName: __ZNSt12_Destroy_auxILb0EE9__destroyIPNSt7__cxx1112basic_stringIcSt11char_traitsIcESaIcEEEEEvT_S9_, symObjAddr: 0x7BB4, symBinAddr: 0x10000A2DC, symSize: 0x4C }
  - { offsetInCU: 0x3C517, offset: 0x3C517, size: 0x8, addend: 0x0, symName: __ZSt18uninitialized_copyIN9__gnu_cxx17__normal_iteratorIPKdSt6vectorIdSaIdEEEEPdET0_T_SA_S9_, symObjAddr: 0x7B48, symBinAddr: 0x10000A270, symSize: 0x3C }
  - { offsetInCU: 0x3C51F, offset: 0x3C51F, size: 0x8, addend: 0x0, symName: __ZNSt15__new_allocatorINSt7__cxx1112basic_stringIcSt11char_traitsIcESaIcEEEE10deallocateEPS5_m, symObjAddr: 0x7B84, symBinAddr: 0x10000A2AC, symSize: 0x30 }
  - { offsetInCU: 0x3C4FB, offset: 0x3C4FB, size: 0x8, addend: 0x0, symName: __ZNSt12_Vector_baseIdSaIdEE17_M_create_storageEm, symObjAddr: 0x7AE8, symBinAddr: 0x10000A210, symSize: 0x60 }
  - { offsetInCU: 0x3C503, offset: 0x3C503, size: 0x8, addend: 0x0, symName: __ZSt18uninitialized_copyIN9__gnu_cxx17__normal_iteratorIPKdSt6vectorIdSaIdEEEEPdET0_T_SA_S9_, symObjAddr: 0x7B48, symBinAddr: 0x10000A270, symSize: 0x3C }
  - { offsetInCU: 0x3C59B, offset: 0x3C59B, size: 0x8, addend: 0x0, symName: __ZNSt12_Vector_baseIdSaIdEE12_Vector_implC1ERKS0_, symObjAddr: 0x7A9C, symBinAddr: 0x10000A1C4, symSize: 0x4C }
  - { offsetInCU: 0x3C5A3, offset: 0x3C5A3, size: 0x8, addend: 0x0, symName: __ZNSt12_Vector_baseIdSaIdEE17_M_create_storageEm, symObjAddr: 0x7AE8, symBinAddr: 0x10000A210, symSize: 0x60 }
  - { offsetInCU: 0x3C62D, offset: 0x3C62D, size: 0x8, addend: 0x0, symName: __ZNK9__gnu_cxx17__normal_iteratorIPdSt6vectorIdSaIdEEE4baseEv, symObjAddr: 0x7A88, symBinAddr: 0x10000A1B0, symSize: 0x14 }
  - { offsetInCU: 0x3C635, offset: 0x3C635, size: 0x8, addend: 0x0, symName: __ZNSt12_Vector_baseIdSaIdEE12_Vector_implC1ERKS0_, symObjAddr: 0x7A9C, symBinAddr: 0x10000A1C4, symSize: 0x4C }
  - { offsetInCU: 0x3C65D, offset: 0x3C65D, size: 0x8, addend: 0x0, symName: __ZNSt6vectorIdSaIdEE11_S_relocateEPdS2_S2_RS0_, symObjAddr: 0x7A54, symBinAddr: 0x10000A17C, symSize: 0x34 }
  - { offsetInCU: 0x3C665, offset: 0x3C665, size: 0x8, addend: 0x0, symName: __ZNK9__gnu_cxx17__normal_iteratorIPdSt6vectorIdSaIdEEE4baseEv, symObjAddr: 0x7A88, symBinAddr: 0x10000A1B0, symSize: 0x14 }
  - { offsetInCU: 0x3C756, offset: 0x3C756, size: 0x8, addend: 0x0, symName: __ZN9__gnu_cxxmiIPdSt6vectorIdSaIdEEEENS_17__normal_iteratorIT_T0_E15difference_typeERKS8_SB_, symObjAddr: 0x7A14, symBinAddr: 0x10000A13C, symSize: 0x40 }
  - { offsetInCU: 0x3C75E, offset: 0x3C75E, size: 0x8, addend: 0x0, symName: __ZNSt6vectorIdSaIdEE11_S_relocateEPdS2_S2_RS0_, symObjAddr: 0x7A54, symBinAddr: 0x10000A17C, symSize: 0x34 }
  - { offsetInCU: 0x3C743, offset: 0x3C743, size: 0x8, addend: 0x0, symName: __ZNKSt6vectorIdSaIdEE12_M_check_lenEmPKc, symObjAddr: 0x7944, symBinAddr: 0x10000A06C, symSize: 0xD0 }
  - { offsetInCU: 0x3C74B, offset: 0x3C74B, size: 0x8, addend: 0x0, symName: __ZN9__gnu_cxxmiIPdSt6vectorIdSaIdEEEENS_17__normal_iteratorIT_T0_E15difference_typeERKS8_SB_, symObjAddr: 0x7A14, symBinAddr: 0x10000A13C, symSize: 0x40 }
  - { offsetInCU: 0x3C856, offset: 0x3C856, size: 0x8, addend: 0x0, symName: __ZSt7forwardIRKdEOT_RNSt16remove_referenceIS2_E4typeE, symObjAddr: 0x7930, symBinAddr: 0x10000A058, symSize: 0x14 }
  - { offsetInCU: 0x3C85E, offset: 0x3C85E, size: 0x8, addend: 0x0, symName: __ZNKSt6vectorIdSaIdEE12_M_check_lenEmPKc, symObjAddr: 0x7944, symBinAddr: 0x10000A06C, symSize: 0xD0 }
  - { offsetInCU: 0x3C896, offset: 0x3C896, size: 0x8, addend: 0x0, symName: __ZNK9__gnu_cxx17__normal_iteratorIP4UserSt6vectorIS1_SaIS1_EEE4baseEv, symObjAddr: 0x791C, symBinAddr: 0x10000A044, symSize: 0x14 }
  - { offsetInCU: 0x3C89E, offset: 0x3C89E, size: 0x8, addend: 0x0, symName: __ZSt7forwardIRKdEOT_RNSt16remove_referenceIS2_E4typeE, symObjAddr: 0x7930, symBinAddr: 0x10000A058, symSize: 0x14 }
  - { offsetInCU: 0x3C8C6, offset: 0x3C8C6, size: 0x8, addend: 0x0, symName: __ZNSt6vectorI4UserSaIS0_EE11_S_relocateEPS0_S3_S3_RS1_, symObjAddr: 0x78E8, symBinAddr: 0x10000A010, symSize: 0x34 }
  - { offsetInCU: 0x3C8CE, offset: 0x3C8CE, size: 0x8, addend: 0x0, symName: __ZNK9__gnu_cxx17__normal_iteratorIP4UserSt6vectorIS1_SaIS1_EEE4baseEv, symObjAddr: 0x791C, symBinAddr: 0x10000A044, symSize: 0x14 }
  - { offsetInCU: 0x3C9C3, offset: 0x3C9C3, size: 0x8, addend: 0x0, symName: __ZN9__gnu_cxxmiIP4UserSt6vectorIS1_SaIS1_EEEENS_17__normal_iteratorIT_T0_E15difference_typeERKS9_SC_, symObjAddr: 0x7894, symBinAddr: 0x100009FBC, symSize: 0x54 }
  - { offsetInCU: 0x3C9CB, offset: 0x3C9CB, size: 0x8, addend: 0x0, symName: __ZNSt6vectorI4UserSaIS0_EE11_S_relocateEPS0_S3_S3_RS1_, symObjAddr: 0x78E8, symBinAddr: 0x10000A010, symSize: 0x34 }
  - { offsetInCU: 0x3C9A2, offset: 0x3C9A2, size: 0x8, addend: 0x0, symName: __ZNKSt6vectorI4UserSaIS0_EE12_M_check_lenEmPKc, symObjAddr: 0x77C4, symBinAddr: 0x100009EEC, symSize: 0xD0 }
  - { offsetInCU: 0x3C9AA, offset: 0x3C9AA, size: 0x8, addend: 0x0, symName: __ZN9__gnu_cxxmiIP4UserSt6vectorIS1_SaIS1_EEEENS_17__normal_iteratorIT_T0_E15difference_typeERKS9_SC_, symObjAddr: 0x7894, symBinAddr: 0x100009FBC, symSize: 0x54 }
  - { offsetInCU: 0x3CAB7, offset: 0x3CAB7, size: 0x8, addend: 0x0, symName: __ZSt7forwardIRK4UserEOT_RNSt16remove_referenceIS3_E4typeE, symObjAddr: 0x77B0, symBinAddr: 0x100009ED8, symSize: 0x14 }
  - { offsetInCU: 0x3CABF, offset: 0x3CABF, size: 0x8, addend: 0x0, symName: __ZNKSt6vectorI4UserSaIS0_EE12_M_check_lenEmPKc, symObjAddr: 0x77C4, symBinAddr: 0x100009EEC, symSize: 0xD0 }
  - { offsetInCU: 0x3CAB9, offset: 0x3CAB9, size: 0x8, addend: 0x0, symName: __ZNKSt8__detail14_Node_iteratorISt4pairIKNSt7__cxx1112basic_stringIcSt11char_traitsIcESaIcEEE4UserELb0ELb1EEptEv, symObjAddr: 0x778C, symBinAddr: 0x100009EB4, symSize: 0x24 }
  - { offsetInCU: 0x3CAC1, offset: 0x3CAC1, size: 0x8, addend: 0x0, symName: __ZSt7forwardIRK4UserEOT_RNSt16remove_referenceIS3_E4typeE, symObjAddr: 0x77B0, symBinAddr: 0x100009ED8, symSize: 0x14 }
  - { offsetInCU: 0x3CAE9, offset: 0x3CAE9, size: 0x8, addend: 0x0, symName: __ZNSt10_HashtableINSt7__cxx1112basic_stringIcSt11char_traitsIcESaIcEEESt4pairIKS5_4UserESaIS9_ENSt8__detail10_Select1stESt8equal_toIS5_ESt4hashIS5_ENSB_18_Mod_range_hashingENSB_20_Default_ranged_hashENSB_20_Prime_rehash_policyENSB_17_Hashtable_traitsILb1ELb0ELb1EEEE21_M_insert_unique_nodeEmmPNSB_10_Hash_nodeIS9_Lb1EEEm, symObjAddr: 0x76A4, symBinAddr: 0x100009DCC, symSize: 0xE8 }
  - { offsetInCU: 0x3CAF1, offset: 0x3CAF1, size: 0x8, addend: 0x0, symName: __ZNKSt8__detail14_Node_iteratorISt4pairIKNSt7__cxx1112basic_stringIcSt11char_traitsIcESaIcEEE4UserELb0ELb1EEptEv, symObjAddr: 0x778C, symBinAddr: 0x100009EB4, symSize: 0x24 }
  - { offsetInCU: 0x3CCDA, offset: 0x3CCDA, size: 0x8, addend: 0x0, symName: __ZNSt10_HashtableINSt7__cxx1112basic_stringIcSt11char_traitsIcESaIcEEESt4pairIKS5_4UserESaIS9_ENSt8__detail10_Select1stESt8equal_toIS5_ESt4hashIS5_ENSB_18_Mod_range_hashingENSB_20_Default_ranged_hashENSB_20_Prime_rehash_policyENSB_17_Hashtable_traitsILb1ELb0ELb1EEEE12_Scoped_nodeD1Ev, symObjAddr: 0x7660, symBinAddr: 0x100009D88, symSize: 0x44 }
  - { offsetInCU: 0x3CCE2, offset: 0x3CCE2, size: 0x8, addend: 0x0, symName: __ZNSt10_HashtableINSt7__cxx1112basic_stringIcSt11char_traitsIcESaIcEEESt4pairIKS5_4UserESaIS9_ENSt8__detail10_Select1stESt8equal_toIS5_ESt4hashIS5_ENSB_18_Mod_range_hashingENSB_20_Default_ranged_hashENSB_20_Prime_rehash_policyENSB_17_Hashtable_traitsILb1ELb0ELb1EEEE21_M_insert_unique_nodeEmmPNSB_10_Hash_nodeIS9_Lb1EEEm, symObjAddr: 0x76A4, symBinAddr: 0x100009DCC, symSize: 0xE8 }
  - { offsetInCU: 0x3CDEA, offset: 0x3CDEA, size: 0x8, addend: 0x0, symName: __ZNSt10_HashtableINSt7__cxx1112basic_stringIcSt11char_traitsIcESaIcEEESt4pairIKS5_4UserESaIS9_ENSt8__detail10_Select1stESt8equal_toIS5_ESt4hashIS5_ENSB_18_Mod_range_hashingENSB_20_Default_ranged_hashENSB_20_Prime_rehash_policyENSB_17_Hashtable_traitsILb1ELb0ELb1EEEE12_Scoped_nodeC1IJRKSt21piecewise_construct_tSt5tupleIJRS7_EESS_IJEEEEEPNSB_16_Hashtable_allocISaINSB_10_Hash_nodeIS9_Lb1EEEEEEDpOT_, symObjAddr: 0x75D8, symBinAddr: 0x100009D00, symSize: 0x88 }
  - { offsetInCU: 0x3CDF2, offset: 0x3CDF2, size: 0x8, addend: 0x0, symName: __ZNSt10_HashtableINSt7__cxx1112basic_stringIcSt11char_traitsIcESaIcEEESt4pairIKS5_4UserESaIS9_ENSt8__detail10_Select1stESt8equal_toIS5_ESt4hashIS5_ENSB_18_Mod_range_hashingENSB_20_Default_ranged_hashENSB_20_Prime_rehash_policyENSB_17_Hashtable_traitsILb1ELb0ELb1EEEE12_Scoped_nodeD1Ev, symObjAddr: 0x7660, symBinAddr: 0x100009D88, symSize: 0x44 }
  - { offsetInCU: 0x3CCE7, offset: 0x3CCE7, size: 0x8, addend: 0x0, symName: __ZNSt8__detail21_Hash_node_value_baseISt4pairIKNSt7__cxx1112basic_stringIcSt11char_traitsIcESaIcEEE4UserEE4_M_vEv, symObjAddr: 0x75BC, symBinAddr: 0x100009CE4, symSize: 0x1C }
  - { offsetInCU: 0x3CCEF, offset: 0x3CCEF, size: 0x8, addend: 0x0, symName: __ZNSt10_HashtableINSt7__cxx1112basic_stringIcSt11char_traitsIcESaIcEEESt4pairIKS5_4UserESaIS9_ENSt8__detail10_Select1stESt8equal_toIS5_ESt4hashIS5_ENSB_18_Mod_range_hashingENSB_20_Default_ranged_hashENSB_20_Prime_rehash_policyENSB_17_Hashtable_traitsILb1ELb0ELb1EEEE12_Scoped_nodeC1IJRKSt21piecewise_construct_tSt5tupleIJRS7_EESS_IJEEEEEPNSB_16_Hashtable_allocISaINSB_10_Hash_nodeIS9_Lb1EEEEEEDpOT_, symObjAddr: 0x75D8, symBinAddr: 0x100009D00, symSize: 0x88 }
  - { offsetInCU: 0x3CDCB, offset: 0x3CDCB, size: 0x8, addend: 0x0, symName: __ZNSt8__detail14_Node_iteratorISt4pairIKNSt7__cxx1112basic_stringIcSt11char_traitsIcESaIcEEE4UserELb0ELb1EEC1EPNS_10_Hash_nodeISA_Lb1EEE, symObjAddr: 0x7594, symBinAddr: 0x100009CBC, symSize: 0x28 }
  - { offsetInCU: 0x3CDD3, offset: 0x3CDD3, size: 0x8, addend: 0x0, symName: __ZNSt8__detail21_Hash_node_value_baseISt4pairIKNSt7__cxx1112basic_stringIcSt11char_traitsIcESaIcEEE4UserEE4_M_vEv, symObjAddr: 0x75BC, symBinAddr: 0x100009CE4, symSize: 0x1C }
  - { offsetInCU: 0x3CD7F, offset: 0x3CD7F, size: 0x8, addend: 0x0, symName: __ZNKSt10_HashtableINSt7__cxx1112basic_stringIcSt11char_traitsIcESaIcEEESt4pairIKS5_4UserESaIS9_ENSt8__detail10_Select1stESt8equal_toIS5_ESt4hashIS5_ENSB_18_Mod_range_hashingENSB_20_Default_ranged_hashENSB_20_Prime_rehash_policyENSB_17_Hashtable_traitsILb1ELb0ELb1EEEE12_M_find_nodeEmRS7_m, symObjAddr: 0x7540, symBinAddr: 0x100009C68, symSize: 0x54 }
  - { offsetInCU: 0x3CD87, offset: 0x3CD87, size: 0x8, addend: 0x0, symName: __ZNSt8__detail14_Node_iteratorISt4pairIKNSt7__cxx1112basic_stringIcSt11char_traitsIcESaIcEEE4UserELb0ELb1EEC1EPNS_10_Hash_nodeISA_Lb1EEE, symObjAddr: 0x7594, symBinAddr: 0x100009CBC, symSize: 0x28 }
  - { offsetInCU: 0x3CE00, offset: 0x3CE00, size: 0x8, addend: 0x0, symName: __ZNKSt10_HashtableINSt7__cxx1112basic_stringIcSt11char_traitsIcESaIcEEESt4pairIKS5_4UserESaIS9_ENSt8__detail10_Select1stESt8equal_toIS5_ESt4hashIS5_ENSB_18_Mod_range_hashingENSB_20_Default_ranged_hashENSB_20_Prime_rehash_policyENSB_17_Hashtable_traitsILb1ELb0ELb1EEEE15_M_bucket_indexEm, symObjAddr: 0x7510, symBinAddr: 0x100009C38, symSize: 0x30 }
  - { offsetInCU: 0x3CE08, offset: 0x3CE08, size: 0x8, addend: 0x0, symName: __ZNKSt10_HashtableINSt7__cxx1112basic_stringIcSt11char_traitsIcESaIcEEESt4pairIKS5_4UserESaIS9_ENSt8__detail10_Select1stESt8equal_toIS5_ESt4hashIS5_ENSB_18_Mod_range_hashingENSB_20_Default_ranged_hashENSB_20_Prime_rehash_policyENSB_17_Hashtable_traitsILb1ELb0ELb1EEEE12_M_find_nodeEmRS7_m, symObjAddr: 0x7540, symBinAddr: 0x100009C68, symSize: 0x54 }
  - { offsetInCU: 0x3CE44, offset: 0x3CE44, size: 0x8, addend: 0x0, symName: __ZNKSt8__detail15_Hash_code_baseINSt7__cxx1112basic_stringIcSt11char_traitsIcESaIcEEESt4pairIKS6_4UserENS_10_Select1stESt4hashIS6_ENS_18_Mod_range_hashingENS_20_Default_ranged_hashELb1EE12_M_hash_codeERS8_, symObjAddr: 0x74E8, symBinAddr: 0x100009C10, symSize: 0x28 }
  - { offsetInCU: 0x3CE4C, offset: 0x3CE4C, size: 0x8, addend: 0x0, symName: __ZNKSt10_HashtableINSt7__cxx1112basic_stringIcSt11char_traitsIcESaIcEEESt4pairIKS5_4UserESaIS9_ENSt8__detail10_Select1stESt8equal_toIS5_ESt4hashIS5_ENSB_18_Mod_range_hashingENSB_20_Default_ranged_hashENSB_20_Prime_rehash_policyENSB_17_Hashtable_traitsILb1ELb0ELb1EEEE15_M_bucket_indexEm, symObjAddr: 0x7510, symBinAddr: 0x100009C38, symSize: 0x30 }
  - { offsetInCU: 0x3CE88, offset: 0x3CE88, size: 0x8, addend: 0x0, symName: __ZNKSt8__detail15_Hashtable_baseINSt7__cxx1112basic_stringIcSt11char_traitsIcESaIcEEESt4pairIKS6_4UserENS_10_Select1stESt8equal_toIS6_ESt4hashIS6_ENS_18_Mod_range_hashingENS_20_Default_ranged_hashENS_17_Hashtable_traitsILb1ELb0ELb1EEEE13_M_key_equalsERS8_RKNS_16_Hash_node_valueISA_Lb1EEE, symObjAddr: 0x7490, symBinAddr: 0x100009BB8, symSize: 0x58 }
  - { offsetInCU: 0x3CE90, offset: 0x3CE90, size: 0x8, addend: 0x0, symName: __ZNKSt8__detail15_Hash_code_baseINSt7__cxx1112basic_stringIcSt11char_traitsIcESaIcEEESt4pairIKS6_4UserENS_10_Select1stESt4hashIS6_ENS_18_Mod_range_hashingENS_20_Default_ranged_hashELb1EE12_M_hash_codeERS8_, symObjAddr: 0x74E8, symBinAddr: 0x100009C10, symSize: 0x28 }
  - { offsetInCU: 0x3CEE0, offset: 0x3CEE0, size: 0x8, addend: 0x0, symName: __ZNSt8__detail14_Node_iteratorISt4pairIKNSt7__cxx1112basic_stringIcSt11char_traitsIcESaIcEEE4UserELb0ELb1EEppEv, symObjAddr: 0x7470, symBinAddr: 0x100009B98, symSize: 0x20 }
  - { offsetInCU: 0x3CEE8, offset: 0x3CEE8, size: 0x8, addend: 0x0, symName: __ZNKSt8__detail15_Hashtable_baseINSt7__cxx1112basic_stringIcSt11char_traitsIcESaIcEEESt4pairIKS6_4UserENS_10_Select1stESt8equal_toIS6_ESt4hashIS6_ENS_18_Mod_range_hashingENS_20_Default_ranged_hashENS_17_Hashtable_traitsILb1ELb0ELb1EEEE13_M_key_equalsERS8_RKNS_16_Hash_node_valueISA_Lb1EEE, symObjAddr: 0x7490, symBinAddr: 0x100009BB8, symSize: 0x58 }
  - { offsetInCU: 0x3CF92, offset: 0x3CF92, size: 0x8, addend: 0x0, symName: __ZNSt8__detailneERKNS_19_Node_iterator_baseISt4pairIKNSt7__cxx1112basic_stringIcSt11char_traitsIcESaIcEEE4UserELb1EEESD_, symObjAddr: 0x7440, symBinAddr: 0x100009B68, symSize: 0x30 }
  - { offsetInCU: 0x3CF9A, offset: 0x3CF9A, size: 0x8, addend: 0x0, symName: __ZNSt8__detail14_Node_iteratorISt4pairIKNSt7__cxx1112basic_stringIcSt11char_traitsIcESaIcEEE4UserELb0ELb1EEppEv, symObjAddr: 0x7470, symBinAddr: 0x100009B98, symSize: 0x20 }
  - { offsetInCU: 0x3CF6E, offset: 0x3CF6E, size: 0x8, addend: 0x0, symName: __ZNSt10_HashtableINSt7__cxx1112basic_stringIcSt11char_traitsIcESaIcEEESt4pairIKS5_4UserESaIS9_ENSt8__detail10_Select1stESt8equal_toIS5_ESt4hashIS5_ENSB_18_Mod_range_hashingENSB_20_Default_ranged_hashENSB_20_Prime_rehash_policyENSB_17_Hashtable_traitsILb1ELb0ELb1EEEE5beginEv, symObjAddr: 0x7414, symBinAddr: 0x100009B3C, symSize: 0x2C }
  - { offsetInCU: 0x3CF76, offset: 0x3CF76, size: 0x8, addend: 0x0, symName: __ZNSt8__detailneERKNS_19_Node_iterator_baseISt4pairIKNSt7__cxx1112basic_stringIcSt11char_traitsIcESaIcEEE4UserELb1EEESD_, symObjAddr: 0x7440, symBinAddr: 0x100009B68, symSize: 0x30 }
  - { offsetInCU: 0x3CF9F, offset: 0x3CF9F, size: 0x8, addend: 0x0, symName: __ZNSt10_HashtableINSt7__cxx1112basic_stringIcSt11char_traitsIcESaIcEEESt4pairIKS5_4UserESaIS9_ENSt8__detail10_Select1stESt8equal_toIS5_ESt4hashIS5_ENSB_18_Mod_range_hashingENSB_20_Default_ranged_hashENSB_20_Prime_rehash_policyENSB_17_Hashtable_traitsILb1ELb0ELb1EEEE22__small_size_thresholdEv, symObjAddr: 0x7400, symBinAddr: 0x100009B28, symSize: 0x14 }
  - { offsetInCU: 0x3CFA7, offset: 0x3CFA7, size: 0x8, addend: 0x0, symName: __ZNSt10_HashtableINSt7__cxx1112basic_stringIcSt11char_traitsIcESaIcEEESt4pairIKS5_4UserESaIS9_ENSt8__detail10_Select1stESt8equal_toIS5_ESt4hashIS5_ENSB_18_Mod_range_hashingENSB_20_Default_ranged_hashENSB_20_Prime_rehash_policyENSB_17_Hashtable_traitsILb1ELb0ELb1EEEE5beginEv, symObjAddr: 0x7414, symBinAddr: 0x100009B3C, symSize: 0x2C }
  - { offsetInCU: 0x3CFBC, offset: 0x3CFBC, size: 0x8, addend: 0x0, symName: __ZNKSt10_HashtableINSt7__cxx1112basic_stringIcSt11char_traitsIcESaIcEEESt4pairIKS5_4UserESaIS9_ENSt8__detail10_Select1stESt8equal_toIS5_ESt4hashIS5_ENSB_18_Mod_range_hashingENSB_20_Default_ranged_hashENSB_20_Prime_rehash_policyENSB_17_Hashtable_traitsILb1ELb0ELb1EEEE4sizeEv, symObjAddr: 0x73E8, symBinAddr: 0x100009B10, symSize: 0x18 }
  - { offsetInCU: 0x3CFC4, offset: 0x3CFC4, size: 0x8, addend: 0x0, symName: __ZNSt10_HashtableINSt7__cxx1112basic_stringIcSt11char_traitsIcESaIcEEESt4pairIKS5_4UserESaIS9_ENSt8__detail10_Select1stESt8equal_toIS5_ESt4hashIS5_ENSB_18_Mod_range_hashingENSB_20_Default_ranged_hashENSB_20_Prime_rehash_policyENSB_17_Hashtable_traitsILb1ELb0ELb1EEEE22__small_size_thresholdEv, symObjAddr: 0x7400, symBinAddr: 0x100009B28, symSize: 0x14 }
  - { offsetInCU: 0x3CFEC, offset: 0x3CFEC, size: 0x8, addend: 0x0, symName: __ZNKSt8_Rb_treeINSt7__cxx1112basic_stringIcSt11char_traitsIcESaIcEEESt4pairIKS5_St3mapIS5_iSt4lessIS5_ESaIS6_IS7_iEEEESt10_Select1stISE_ESA_SaISE_EE9_M_mbeginEv, symObjAddr: 0x73D0, symBinAddr: 0x100009AF8, symSize: 0x18 }
  - { offsetInCU: 0x3CFF4, offset: 0x3CFF4, size: 0x8, addend: 0x0, symName: __ZNKSt10_HashtableINSt7__cxx1112basic_stringIcSt11char_traitsIcESaIcEEESt4pairIKS5_4UserESaIS9_ENSt8__detail10_Select1stESt8equal_toIS5_ESt4hashIS5_ENSB_18_Mod_range_hashingENSB_20_Default_ranged_hashENSB_20_Prime_rehash_policyENSB_17_Hashtable_traitsILb1ELb0ELb1EEEE4sizeEv, symObjAddr: 0x73E8, symBinAddr: 0x100009B10, symSize: 0x18 }
  - { offsetInCU: 0x3D01C, offset: 0x3D01C, size: 0x8, addend: 0x0, symName: __ZNSt8_Rb_treeINSt7__cxx1112basic_stringIcSt11char_traitsIcESaIcEEESt4pairIKS5_St3mapIS5_iSt4lessIS5_ESaIS6_IS7_iEEEESt10_Select1stISE_ESA_SaISE_EE12_M_drop_nodeEPSt13_Rb_tree_nodeISE_E, symObjAddr: 0x739C, symBinAddr: 0x100009AC4, symSize: 0x34 }
  - { offsetInCU: 0x3D024, offset: 0x3D024, size: 0x8, addend: 0x0, symName: __ZNKSt8_Rb_treeINSt7__cxx1112basic_stringIcSt11char_traitsIcESaIcEEESt4pairIKS5_St3mapIS5_iSt4lessIS5_ESaIS6_IS7_iEEEESt10_Select1stISE_ESA_SaISE_EE9_M_mbeginEv, symObjAddr: 0x73D0, symBinAddr: 0x100009AF8, symSize: 0x18 }
  - { offsetInCU: 0x3D060, offset: 0x3D060, size: 0x8, addend: 0x0, symName: __ZNSt8_Rb_treeINSt7__cxx1112basic_stringIcSt11char_traitsIcESaIcEEESt4pairIKS5_St3mapIS5_iSt4lessIS5_ESaIS6_IS7_iEEEESt10_Select1stISE_ESA_SaISE_EE7_S_leftEPSt18_Rb_tree_node_base, symObjAddr: 0x7384, symBinAddr: 0x100009AAC, symSize: 0x18 }
  - { offsetInCU: 0x3D068, offset: 0x3D068, size: 0x8, addend: 0x0, symName: __ZNSt8_Rb_treeINSt7__cxx1112basic_stringIcSt11char_traitsIcESaIcEEESt4pairIKS5_St3mapIS5_iSt4lessIS5_ESaIS6_IS7_iEEEESt10_Select1stISE_ESA_SaISE_EE12_M_drop_nodeEPSt13_Rb_tree_nodeISE_E, symObjAddr: 0x739C, symBinAddr: 0x100009AC4, symSize: 0x34 }
  - { offsetInCU: 0x3D092, offset: 0x3D092, size: 0x8, addend: 0x0, symName: __ZNSt8_Rb_treeINSt7__cxx1112basic_stringIcSt11char_traitsIcESaIcEEESt4pairIKS5_St3mapIS5_iSt4lessIS5_ESaIS6_IS7_iEEEESt10_Select1stISE_ESA_SaISE_EE8_S_rightEPSt18_Rb_tree_node_base, symObjAddr: 0x736C, symBinAddr: 0x100009A94, symSize: 0x18 }
  - { offsetInCU: 0x3D09A, offset: 0x3D09A, size: 0x8, addend: 0x0, symName: __ZNSt8_Rb_treeINSt7__cxx1112basic_stringIcSt11char_traitsIcESaIcEEESt4pairIKS5_St3mapIS5_iSt4lessIS5_ESaIS6_IS7_iEEEESt10_Select1stISE_ESA_SaISE_EE7_S_leftEPSt18_Rb_tree_node_base, symObjAddr: 0x7384, symBinAddr: 0x100009AAC, symSize: 0x18 }
  - { offsetInCU: 0x3D10F, offset: 0x3D10F, size: 0x8, addend: 0x0, symName: __ZSt8_DestroyIP7ExpenseEvT_S2_, symObjAddr: 0x7344, symBinAddr: 0x100009A6C, symSize: 0x28 }
  - { offsetInCU: 0x3D117, offset: 0x3D117, size: 0x8, addend: 0x0, symName: __ZNSt8_Rb_treeINSt7__cxx1112basic_stringIcSt11char_traitsIcESaIcEEESt4pairIKS5_St3mapIS5_iSt4lessIS5_ESaIS6_IS7_iEEEESt10_Select1stISE_ESA_SaISE_EE8_S_rightEPSt18_Rb_tree_node_base, symObjAddr: 0x736C, symBinAddr: 0x100009A94, symSize: 0x18 }
  - { offsetInCU: 0x3D18D, offset: 0x3D18D, size: 0x8, addend: 0x0, symName: __ZNSt10_HashtableINSt7__cxx1112basic_stringIcSt11char_traitsIcESaIcEEESt4pairIKS5_4UserESaIS9_ENSt8__detail10_Select1stESt8equal_toIS5_ESt4hashIS5_ENSB_18_Mod_range_hashingENSB_20_Default_ranged_hashENSB_20_Prime_rehash_policyENSB_17_Hashtable_traitsILb1ELb0ELb1EEEE21_M_deallocate_bucketsEPPNSB_15_Hash_node_baseEm, symObjAddr: 0x72F4, symBinAddr: 0x100009A1C, symSize: 0x50 }
  - { offsetInCU: 0x3D195, offset: 0x3D195, size: 0x8, addend: 0x0, symName: __ZSt8_DestroyIP7ExpenseEvT_S2_, symObjAddr: 0x7344, symBinAddr: 0x100009A6C, symSize: 0x28 }
  - { offsetInCU: 0x3D1E5, offset: 0x3D1E5, size: 0x8, addend: 0x0, symName: __ZNSt8__detail16_Hashtable_allocISaINS_10_Hash_nodeISt4pairIKNSt7__cxx1112basic_stringIcSt11char_traitsIcESaIcEEE4UserELb1EEEEE19_M_deallocate_nodesEPSC_, symObjAddr: 0x72A4, symBinAddr: 0x1000099CC, symSize: 0x50 }
  - { offsetInCU: 0x3D1ED, offset: 0x3D1ED, size: 0x8, addend: 0x0, symName: __ZNSt10_HashtableINSt7__cxx1112basic_stringIcSt11char_traitsIcESaIcEEESt4pairIKS5_4UserESaIS9_ENSt8__detail10_Select1stESt8equal_toIS5_ESt4hashIS5_ENSB_18_Mod_range_hashingENSB_20_Default_ranged_hashENSB_20_Prime_rehash_policyENSB_17_Hashtable_traitsILb1ELb0ELb1EEEE21_M_deallocate_bucketsEPPNSB_15_Hash_node_baseEm, symObjAddr: 0x72F4, symBinAddr: 0x100009A1C, symSize: 0x50 }
  - { offsetInCU: 0x3D251, offset: 0x3D251, size: 0x8, addend: 0x0, symName: __ZNKSt10_HashtableINSt7__cxx1112basic_stringIcSt11char_traitsIcESaIcEEESt4pairIKS5_4UserESaIS9_ENSt8__detail10_Select1stESt8equal_toIS5_ESt4hashIS5_ENSB_18_Mod_range_hashingENSB_20_Default_ranged_hashENSB_20_Prime_rehash_policyENSB_17_Hashtable_traitsILb1ELb0ELb1EEEE8_M_beginEv, symObjAddr: 0x728C, symBinAddr: 0x1000099B4, symSize: 0x18 }
  - { offsetInCU: 0x3D259, offset: 0x3D259, size: 0x8, addend: 0x0, symName: __ZNSt8__detail16_Hashtable_allocISaINS_10_Hash_nodeISt4pairIKNSt7__cxx1112basic_stringIcSt11char_traitsIcESaIcEEE4UserELb1EEEEE19_M_deallocate_nodesEPSC_, symObjAddr: 0x72A4, symBinAddr: 0x1000099CC, symSize: 0x50 }
  - { offsetInCU: 0x3D29A, offset: 0x3D29A, size: 0x8, addend: 0x0, symName: __ZNSt8_Rb_treeINSt7__cxx1112basic_stringIcSt11char_traitsIcESaIcEEESt4pairIKS5_St3mapIS5_iSt4lessIS5_ESaIS6_IS7_iEEEESt10_Select1stISE_ESA_SaISE_EE6_S_keyEPKSt18_Rb_tree_node_base, symObjAddr: 0x7270, symBinAddr: 0x100009998, symSize: 0x1C }
  - { offsetInCU: 0x3D2A2, offset: 0x3D2A2, size: 0x8, addend: 0x0, symName: __ZNKSt10_HashtableINSt7__cxx1112basic_stringIcSt11char_traitsIcESaIcEEESt4pairIKS5_4UserESaIS9_ENSt8__detail10_Select1stESt8equal_toIS5_ESt4hashIS5_ENSB_18_Mod_range_hashingENSB_20_Default_ranged_hashENSB_20_Prime_rehash_policyENSB_17_Hashtable_traitsILb1ELb0ELb1EEEE8_M_beginEv, symObjAddr: 0x728C, symBinAddr: 0x1000099B4, symSize: 0x18 }
  - { offsetInCU: 0x3D2CC, offset: 0x3D2CC, size: 0x8, addend: 0x0, symName: __ZNSt8_Rb_treeINSt7__cxx1112basic_stringIcSt11char_traitsIcESaIcEEESt4pairIKS5_St3mapIS5_iSt4lessIS5_ESaIS6_IS7_iEEEESt10_Select1stISE_ESA_SaISE_EE14_M_lower_boundEPSt13_Rb_tree_nodeISE_EPSt18_Rb_tree_node_baseRS7_, symObjAddr: 0x71D0, symBinAddr: 0x1000098F8, symSize: 0xA0 }
  - { offsetInCU: 0x3D2D4, offset: 0x3D2D4, size: 0x8, addend: 0x0, symName: __ZNSt8_Rb_treeINSt7__cxx1112basic_stringIcSt11char_traitsIcESaIcEEESt4pairIKS5_St3mapIS5_iSt4lessIS5_ESaIS6_IS7_iEEEESt10_Select1stISE_ESA_SaISE_EE6_S_keyEPKSt18_Rb_tree_node_base, symObjAddr: 0x7270, symBinAddr: 0x100009998, symSize: 0x1C }
  - { offsetInCU: 0x3D338, offset: 0x3D338, size: 0x8, addend: 0x0, symName: __ZNSt8_Rb_treeINSt7__cxx1112basic_stringIcSt11char_traitsIcESaIcEEESt4pairIKS5_St3mapIS5_iSt4lessIS5_ESaIS6_IS7_iEEEESt10_Select1stISE_ESA_SaISE_EE6_M_endEv, symObjAddr: 0x71B8, symBinAddr: 0x1000098E0, symSize: 0x18 }
  - { offsetInCU: 0x3D340, offset: 0x3D340, size: 0x8, addend: 0x0, symName: __ZNSt8_Rb_treeINSt7__cxx1112basic_stringIcSt11char_traitsIcESaIcEEESt4pairIKS5_St3mapIS5_iSt4lessIS5_ESaIS6_IS7_iEEEESt10_Select1stISE_ESA_SaISE_EE14_M_lower_boundEPSt13_Rb_tree_nodeISE_EPSt18_Rb_tree_node_baseRS7_, symObjAddr: 0x71D0, symBinAddr: 0x1000098F8, symSize: 0xA0 }
  - { offsetInCU: 0x3D368, offset: 0x3D368, size: 0x8, addend: 0x0, symName: __ZN9__gnu_cxx16__aligned_membufISt4pairIKNSt7__cxx1112basic_stringIcSt11char_traitsIcESaIcEEEiEE6_M_ptrEv, symObjAddr: 0x719C, symBinAddr: 0x1000098C4, symSize: 0x1C }
  - { offsetInCU: 0x3D370, offset: 0x3D370, size: 0x8, addend: 0x0, symName: __ZNSt8_Rb_treeINSt7__cxx1112basic_stringIcSt11char_traitsIcESaIcEEESt4pairIKS5_St3mapIS5_iSt4lessIS5_ESaIS6_IS7_iEEEESt10_Select1stISE_ESA_SaISE_EE6_M_endEv, symObjAddr: 0x71B8, symBinAddr: 0x1000098E0, symSize: 0x18 }
  - { offsetInCU: 0x3D398, offset: 0x3D398, size: 0x8, addend: 0x0, symName: __ZNKSt8_Rb_treeINSt7__cxx1112basic_stringIcSt11char_traitsIcESaIcEEESt4pairIKS5_iESt10_Select1stIS8_ESt4lessIS5_ESaIS8_EE9_M_mbeginEv, symObjAddr: 0x7184, symBinAddr: 0x1000098AC, symSize: 0x18 }
  - { offsetInCU: 0x3D3A0, offset: 0x3D3A0, size: 0x8, addend: 0x0, symName: __ZN9__gnu_cxx16__aligned_membufISt4pairIKNSt7__cxx1112basic_stringIcSt11char_traitsIcESaIcEEEiEE6_M_ptrEv, symObjAddr: 0x719C, symBinAddr: 0x1000098C4, symSize: 0x1C }
  - { offsetInCU: 0x3D3C8, offset: 0x3D3C8, size: 0x8, addend: 0x0, symName: __ZNSt8_Rb_treeINSt7__cxx1112basic_stringIcSt11char_traitsIcESaIcEEESt4pairIKS5_iESt10_Select1stIS8_ESt4lessIS5_ESaIS8_EE12_M_drop_nodeEPSt13_Rb_tree_nodeIS8_E, symObjAddr: 0x7150, symBinAddr: 0x100009878, symSize: 0x34 }
  - { offsetInCU: 0x3D3D0, offset: 0x3D3D0, size: 0x8, addend: 0x0, symName: __ZNKSt8_Rb_treeINSt7__cxx1112basic_stringIcSt11char_traitsIcESaIcEEESt4pairIKS5_iESt10_Select1stIS8_ESt4lessIS5_ESaIS8_EE9_M_mbeginEv, symObjAddr: 0x7184, symBinAddr: 0x1000098AC, symSize: 0x18 }
  - { offsetInCU: 0x3D40C, offset: 0x3D40C, size: 0x8, addend: 0x0, symName: __ZNSt8_Rb_treeINSt7__cxx1112basic_stringIcSt11char_traitsIcESaIcEEESt4pairIKS5_iESt10_Select1stIS8_ESt4lessIS5_ESaIS8_EE7_S_leftEPSt18_Rb_tree_node_base, symObjAddr: 0x7138, symBinAddr: 0x100009860, symSize: 0x18 }
  - { offsetInCU: 0x3D414, offset: 0x3D414, size: 0x8, addend: 0x0, symName: __ZNSt8_Rb_treeINSt7__cxx1112basic_stringIcSt11char_traitsIcESaIcEEESt4pairIKS5_iESt10_Select1stIS8_ESt4lessIS5_ESaIS8_EE12_M_drop_nodeEPSt13_Rb_tree_nodeIS8_E, symObjAddr: 0x7150, symBinAddr: 0x100009878, symSize: 0x34 }
  - { offsetInCU: 0x3D43E, offset: 0x3D43E, size: 0x8, addend: 0x0, symName: __ZNSt8_Rb_treeINSt7__cxx1112basic_stringIcSt11char_traitsIcESaIcEEESt4pairIKS5_iESt10_Select1stIS8_ESt4lessIS5_ESaIS8_EE8_S_rightEPSt18_Rb_tree_node_base, symObjAddr: 0x7120, symBinAddr: 0x100009848, symSize: 0x18 }
  - { offsetInCU: 0x3D446, offset: 0x3D446, size: 0x8, addend: 0x0, symName: __ZNSt8_Rb_treeINSt7__cxx1112basic_stringIcSt11char_traitsIcESaIcEEESt4pairIKS5_iESt10_Select1stIS8_ESt4lessIS5_ESaIS8_EE7_S_leftEPSt18_Rb_tree_node_base, symObjAddr: 0x7138, symBinAddr: 0x100009860, symSize: 0x18 }
  - { offsetInCU: 0x3D470, offset: 0x3D470, size: 0x8, addend: 0x0, symName: __ZNSt8_Rb_treeINSt7__cxx1112basic_stringIcSt11char_traitsIcESaIcEEESt4pairIKS5_iESt10_Select1stIS8_ESt4lessIS5_ESaIS8_EE7_M_copyILb0ENSE_11_Alloc_nodeEEEPSt13_Rb_tree_nodeIS8_ERKSE_RT0_, symObjAddr: 0x708C, symBinAddr: 0x1000097B4, symSize: 0x94 }
  - { offsetInCU: 0x3D478, offset: 0x3D478, size: 0x8, addend: 0x0, symName: __ZNSt8_Rb_treeINSt7__cxx1112basic_stringIcSt11char_traitsIcESaIcEEESt4pairIKS5_iESt10_Select1stIS8_ESt4lessIS5_ESaIS8_EE8_S_rightEPSt18_Rb_tree_node_base, symObjAddr: 0x7120, symBinAddr: 0x100009848, symSize: 0x18 }
  - { offsetInCU: 0x3D5B0, offset: 0x3D5B0, size: 0x8, addend: 0x0, symName: __ZNSt8_Rb_treeINSt7__cxx1112basic_stringIcSt11char_traitsIcESaIcEEESt4pairIKS5_iESt10_Select1stIS8_ESt4lessIS5_ESaIS8_EE11_Alloc_nodeC1ERSE_, symObjAddr: 0x7068, symBinAddr: 0x100009790, symSize: 0x24 }
  - { offsetInCU: 0x3D5B8, offset: 0x3D5B8, size: 0x8, addend: 0x0, symName: __ZNSt8_Rb_treeINSt7__cxx1112basic_stringIcSt11char_traitsIcESaIcEEESt4pairIKS5_iESt10_Select1stIS8_ESt4lessIS5_ESaIS8_EE7_M_copyILb0ENSE_11_Alloc_nodeEEEPSt13_Rb_tree_nodeIS8_ERKSE_RT0_, symObjAddr: 0x708C, symBinAddr: 0x1000097B4, symSize: 0x94 }
  - { offsetInCU: 0x3D5F6, offset: 0x3D5F6, size: 0x8, addend: 0x0, symName: __ZNSt15__new_allocatorISt13_Rb_tree_nodeISt4pairIKNSt7__cxx1112basic_stringIcSt11char_traitsIcESaIcEEEiEEED2Ev, symObjAddr: 0x7054, symBinAddr: 0x10000977C, symSize: 0x14 }
  - { offsetInCU: 0x3D5FE, offset: 0x3D5FE, size: 0x8, addend: 0x0, symName: __ZNSt8_Rb_treeINSt7__cxx1112basic_stringIcSt11char_traitsIcESaIcEEESt4pairIKS5_iESt10_Select1stIS8_ESt4lessIS5_ESaIS8_EE11_Alloc_nodeC1ERSE_, symObjAddr: 0x7068, symBinAddr: 0x100009790, symSize: 0x24 }
  - { offsetInCU: 0x3D644, offset: 0x3D644, size: 0x8, addend: 0x0, symName: __ZNSt20_Rb_tree_key_compareISt4lessINSt7__cxx1112basic_stringIcSt11char_traitsIcESaIcEEEEEC2ERKS7_, symObjAddr: 0x703C, symBinAddr: 0x100009764, symSize: 0x18 }
  - { offsetInCU: 0x3D64C, offset: 0x3D64C, size: 0x8, addend: 0x0, symName: __ZNSt15__new_allocatorISt13_Rb_tree_nodeISt4pairIKNSt7__cxx1112basic_stringIcSt11char_traitsIcESaIcEEEiEEED2Ev, symObjAddr: 0x7054, symBinAddr: 0x10000977C, symSize: 0x14 }
  - { offsetInCU: 0x3D664, offset: 0x3D664, size: 0x8, addend: 0x0, symName: __ZN9__gnu_cxx16__aligned_membufISt4pairIKNSt7__cxx1112basic_stringIcSt11char_traitsIcESaIcEEESt3mapIS7_iSt4lessIS7_ESaIS1_IS8_iEEEEE6_M_ptrEv, symObjAddr: 0x7020, symBinAddr: 0x100009748, symSize: 0x1C }
  - { offsetInCU: 0x3D66C, offset: 0x3D66C, size: 0x8, addend: 0x0, symName: __ZNSt20_Rb_tree_key_compareISt4lessINSt7__cxx1112basic_stringIcSt11char_traitsIcESaIcEEEEEC2ERKS7_, symObjAddr: 0x703C, symBinAddr: 0x100009764, symSize: 0x18 }
  - { offsetInCU: 0x3D733, offset: 0x3D733, size: 0x8, addend: 0x0, symName: __ZNSt17_Rb_tree_iteratorISt4pairIKNSt7__cxx1112basic_stringIcSt11char_traitsIcESaIcEEEiEEC1EPSt18_Rb_tree_node_base, symObjAddr: 0x6FFC, symBinAddr: 0x100009724, symSize: 0x24 }
  - { offsetInCU: 0x3D73B, offset: 0x3D73B, size: 0x8, addend: 0x0, symName: __ZN9__gnu_cxx16__aligned_membufISt4pairIKNSt7__cxx1112basic_stringIcSt11char_traitsIcESaIcEEESt3mapIS7_iSt4lessIS7_ESaIS1_IS8_iEEEEE6_M_ptrEv, symObjAddr: 0x7020, symBinAddr: 0x100009748, symSize: 0x1C }
  - { offsetInCU: 0x3D6FC, offset: 0x3D6FC, size: 0x8, addend: 0x0, symName: __ZNSt8_Rb_treeINSt7__cxx1112basic_stringIcSt11char_traitsIcESaIcEEESt4pairIKS5_iESt10_Select1stIS8_ESt4lessIS5_ESaIS8_EE10_Auto_node9_M_insertES6_IPSt18_Rb_tree_node_baseSH_E, symObjAddr: 0x6FB0, symBinAddr: 0x1000096D8, symSize: 0x4C }
  - { offsetInCU: 0x3D704, offset: 0x3D704, size: 0x8, addend: 0x0, symName: __ZNSt17_Rb_tree_iteratorISt4pairIKNSt7__cxx1112basic_stringIcSt11char_traitsIcESaIcEEEiEEC1EPSt18_Rb_tree_node_base, symObjAddr: 0x6FFC, symBinAddr: 0x100009724, symSize: 0x24 }
  - { offsetInCU: 0x3D755, offset: 0x3D755, size: 0x8, addend: 0x0, symName: __ZNKSt8_Rb_treeINSt7__cxx1112basic_stringIcSt11char_traitsIcESaIcEEESt4pairIKS5_iESt10_Select1stIS8_ESt4lessIS5_ESaIS8_EE10_Auto_node6_M_keyEv, symObjAddr: 0x6F90, symBinAddr: 0x1000096B8, symSize: 0x20 }
  - { offsetInCU: 0x3D75D, offset: 0x3D75D, size: 0x8, addend: 0x0, symName: __ZNSt8_Rb_treeINSt7__cxx1112basic_stringIcSt11char_traitsIcESaIcEEESt4pairIKS5_iESt10_Select1stIS8_ESt4lessIS5_ESaIS8_EE10_Auto_node9_M_insertES6_IPSt18_Rb_tree_node_baseSH_E, symObjAddr: 0x6FB0, symBinAddr: 0x1000096D8, symSize: 0x4C }
  - { offsetInCU: 0x3D785, offset: 0x3D785, size: 0x8, addend: 0x0, symName: __ZNSt8_Rb_treeINSt7__cxx1112basic_stringIcSt11char_traitsIcESaIcEEESt4pairIKS5_iESt10_Select1stIS8_ESt4lessIS5_ESaIS8_EE29_M_get_insert_hint_unique_posESt23_Rb_tree_const_iteratorIS8_ERS7_, symObjAddr: 0x6C58, symBinAddr: 0x100009380, symSize: 0x338 }
  - { offsetInCU: 0x3D78D, offset: 0x3D78D, size: 0x8, addend: 0x0, symName: __ZNKSt8_Rb_treeINSt7__cxx1112basic_stringIcSt11char_traitsIcESaIcEEESt4pairIKS5_iESt10_Select1stIS8_ESt4lessIS5_ESaIS8_EE10_Auto_node6_M_keyEv, symObjAddr: 0x6F90, symBinAddr: 0x1000096B8, symSize: 0x20 }
  - { offsetInCU: 0x3D8F8, offset: 0x3D8F8, size: 0x8, addend: 0x0, symName: __ZNSt8_Rb_treeINSt7__cxx1112basic_stringIcSt11char_traitsIcESaIcEEESt4pairIKS5_iESt10_Select1stIS8_ESt4lessIS5_ESaIS8_EE10_Auto_nodeD1Ev, symObjAddr: 0x6C14, symBinAddr: 0x10000933C, symSize: 0x44 }
  - { offsetInCU: 0x3D900, offset: 0x3D900, size: 0x8, addend: 0x0, symName: __ZNSt8_Rb_treeINSt7__cxx1112basic_stringIcSt11char_traitsIcESaIcEEESt4pairIKS5_iESt10_Select1stIS8_ESt4lessIS5_ESaIS8_EE29_M_get_insert_hint_unique_posESt23_Rb_tree_const_iteratorIS8_ERS7_, symObjAddr: 0x6C58, symBinAddr: 0x100009380, symSize: 0x338 }
  - { offsetInCU: 0x3D9D4, offset: 0x3D9D4, size: 0x8, addend: 0x0, symName: __ZNSt8_Rb_treeINSt7__cxx1112basic_stringIcSt11char_traitsIcESaIcEEESt4pairIKS5_iESt10_Select1stIS8_ESt4lessIS5_ESaIS8_EE10_Auto_nodeC1IJRKSt21piecewise_construct_tSt5tupleIJRS7_EESK_IJEEEEERSE_DpOT_, symObjAddr: 0x6B98, symBinAddr: 0x1000092C0, symSize: 0x7C }
  - { offsetInCU: 0x3D9DC, offset: 0x3D9DC, size: 0x8, addend: 0x0, symName: __ZNSt8_Rb_treeINSt7__cxx1112basic_stringIcSt11char_traitsIcESaIcEEESt4pairIKS5_iESt10_Select1stIS8_ESt4lessIS5_ESaIS8_EE10_Auto_nodeD1Ev, symObjAddr: 0x6C14, symBinAddr: 0x10000933C, symSize: 0x44 }
  - { offsetInCU: 0x3D999, offset: 0x3D999, size: 0x8, addend: 0x0, symName: __ZNKSt8_Rb_treeINSt7__cxx1112basic_stringIcSt11char_traitsIcESaIcEEESt4pairIKS5_iESt10_Select1stIS8_ESt4lessIS5_ESaIS8_EE8key_compEv, symObjAddr: 0x6B80, symBinAddr: 0x1000092A8, symSize: 0x18 }
  - { offsetInCU: 0x3D9A1, offset: 0x3D9A1, size: 0x8, addend: 0x0, symName: __ZNSt8_Rb_treeINSt7__cxx1112basic_stringIcSt11char_traitsIcESaIcEEESt4pairIKS5_iESt10_Select1stIS8_ESt4lessIS5_ESaIS8_EE10_Auto_nodeC1IJRKSt21piecewise_construct_tSt5tupleIJRS7_EESK_IJEEEEERSE_DpOT_, symObjAddr: 0x6B98, symBinAddr: 0x1000092C0, symSize: 0x7C }
  - { offsetInCU: 0x3D9C9, offset: 0x3D9C9, size: 0x8, addend: 0x0, symName: __ZNSt8_Rb_treeINSt7__cxx1112basic_stringIcSt11char_traitsIcESaIcEEESt4pairIKS5_iESt10_Select1stIS8_ESt4lessIS5_ESaIS8_EE11lower_boundERS7_, symObjAddr: 0x6B38, symBinAddr: 0x100009260, symSize: 0x48 }
  - { offsetInCU: 0x3D9D1, offset: 0x3D9D1, size: 0x8, addend: 0x0, symName: __ZNKSt8_Rb_treeINSt7__cxx1112basic_stringIcSt11char_traitsIcESaIcEEESt4pairIKS5_iESt10_Select1stIS8_ESt4lessIS5_ESaIS8_EE8key_compEv, symObjAddr: 0x6B80, symBinAddr: 0x1000092A8, symSize: 0x18 }
  - { offsetInCU: 0x3DAD0, offset: 0x3DAD0, size: 0x8, addend: 0x0, symName: __ZNSt17_Rb_tree_iteratorISt4pairIKNSt7__cxx1112basic_stringIcSt11char_traitsIcESaIcEEESt3mapIS6_iSt4lessIS6_ESaIS0_IS7_iEEEEEC1EPSt18_Rb_tree_node_base, symObjAddr: 0x6B14, symBinAddr: 0x10000923C, symSize: 0x24 }
  - { offsetInCU: 0x3DAD8, offset: 0x3DAD8, size: 0x8, addend: 0x0, symName: __ZNSt8_Rb_treeINSt7__cxx1112basic_stringIcSt11char_traitsIcESaIcEEESt4pairIKS5_iESt10_Select1stIS8_ESt4lessIS5_ESaIS8_EE11lower_boundERS7_, symObjAddr: 0x6B38, symBinAddr: 0x100009260, symSize: 0x48 }
  - { offsetInCU: 0x3DA75, offset: 0x3DA75, size: 0x8, addend: 0x0, symName: __ZNSt8_Rb_treeINSt7__cxx1112basic_stringIcSt11char_traitsIcESaIcEEESt4pairIKS5_St3mapIS5_iSt4lessIS5_ESaIS6_IS7_iEEEESt10_Select1stISE_ESA_SaISE_EE10_Auto_node9_M_insertES6_IPSt18_Rb_tree_node_baseSL_E, symObjAddr: 0x6AC8, symBinAddr: 0x1000091F0, symSize: 0x4C }
  - { offsetInCU: 0x3DA7D, offset: 0x3DA7D, size: 0x8, addend: 0x0, symName: __ZNSt17_Rb_tree_iteratorISt4pairIKNSt7__cxx1112basic_stringIcSt11char_traitsIcESaIcEEESt3mapIS6_iSt4lessIS6_ESaIS0_IS7_iEEEEEC1EPSt18_Rb_tree_node_base, symObjAddr: 0x6B14, symBinAddr: 0x10000923C, symSize: 0x24 }
  - { offsetInCU: 0x3DACE, offset: 0x3DACE, size: 0x8, addend: 0x0, symName: __ZNKSt8_Rb_treeINSt7__cxx1112basic_stringIcSt11char_traitsIcESaIcEEESt4pairIKS5_St3mapIS5_iSt4lessIS5_ESaIS6_IS7_iEEEESt10_Select1stISE_ESA_SaISE_EE10_Auto_node6_M_keyEv, symObjAddr: 0x6AA8, symBinAddr: 0x1000091D0, symSize: 0x20 }
  - { offsetInCU: 0x3DAD6, offset: 0x3DAD6, size: 0x8, addend: 0x0, symName: __ZNSt8_Rb_treeINSt7__cxx1112basic_stringIcSt11char_traitsIcESaIcEEESt4pairIKS5_St3mapIS5_iSt4lessIS5_ESaIS6_IS7_iEEEESt10_Select1stISE_ESA_SaISE_EE10_Auto_node9_M_insertES6_IPSt18_Rb_tree_node_baseSL_E, symObjAddr: 0x6AC8, symBinAddr: 0x1000091F0, symSize: 0x4C }
  - { offsetInCU: 0x3DAFE, offset: 0x3DAFE, size: 0x8, addend: 0x0, symName: __ZNSt8_Rb_treeINSt7__cxx1112basic_stringIcSt11char_traitsIcESaIcEEESt4pairIKS5_St3mapIS5_iSt4lessIS5_ESaIS6_IS7_iEEEESt10_Select1stISE_ESA_SaISE_EE29_M_get_insert_hint_unique_posESt23_Rb_tree_const_iteratorISE_ERS7_, symObjAddr: 0x6770, symBinAddr: 0x100008E98, symSize: 0x338 }
  - { offsetInCU: 0x3DB06, offset: 0x3DB06, size: 0x8, addend: 0x0, symName: __ZNKSt8_Rb_treeINSt7__cxx1112basic_stringIcSt11char_traitsIcESaIcEEESt4pairIKS5_St3mapIS5_iSt4lessIS5_ESaIS6_IS7_iEEEESt10_Select1stISE_ESA_SaISE_EE10_Auto_node6_M_keyEv, symObjAddr: 0x6AA8, symBinAddr: 0x1000091D0, symSize: 0x20 }
  - { offsetInCU: 0x3DC8C, offset: 0x3DC8C, size: 0x8, addend: 0x0, symName: __ZNSt8_Rb_treeINSt7__cxx1112basic_stringIcSt11char_traitsIcESaIcEEESt4pairIKS5_St3mapIS5_iSt4lessIS5_ESaIS6_IS7_iEEEESt10_Select1stISE_ESA_SaISE_EE10_Auto_nodeD1Ev, symObjAddr: 0x672C, symBinAddr: 0x100008E54, symSize: 0x44 }
  - { offsetInCU: 0x3DC94, offset: 0x3DC94, size: 0x8, addend: 0x0, symName: __ZNSt8_Rb_treeINSt7__cxx1112basic_stringIcSt11char_traitsIcESaIcEEESt4pairIKS5_St3mapIS5_iSt4lessIS5_ESaIS6_IS7_iEEEESt10_Select1stISE_ESA_SaISE_EE29_M_get_insert_hint_unique_posESt23_Rb_tree_const_iteratorISE_ERS7_, symObjAddr: 0x6770, symBinAddr: 0x100008E98, symSize: 0x338 }
  - { offsetInCU: 0x3DD68, offset: 0x3DD68, size: 0x8, addend: 0x0, symName: __ZNSt8_Rb_treeINSt7__cxx1112basic_stringIcSt11char_traitsIcESaIcEEESt4pairIKS5_St3mapIS5_iSt4lessIS5_ESaIS6_IS7_iEEEESt10_Select1stISE_ESA_SaISE_EE10_Auto_nodeC1IJRKSt21piecewise_construct_tSt5tupleIJRS7_EESO_IJEEEEERSI_DpOT_, symObjAddr: 0x66B0, symBinAddr: 0x100008DD8, symSize: 0x7C }
  - { offsetInCU: 0x3DD70, offset: 0x3DD70, size: 0x8, addend: 0x0, symName: __ZNSt8_Rb_treeINSt7__cxx1112basic_stringIcSt11char_traitsIcESaIcEEESt4pairIKS5_St3mapIS5_iSt4lessIS5_ESaIS6_IS7_iEEEESt10_Select1stISE_ESA_SaISE_EE10_Auto_nodeD1Ev, symObjAddr: 0x672C, symBinAddr: 0x100008E54, symSize: 0x44 }
  - { offsetInCU: 0x3DD6C, offset: 0x3DD6C, size: 0x8, addend: 0x0, symName: __ZSt7forwardISt5tupleIJEEEOT_RNSt16remove_referenceIS2_E4typeE, symObjAddr: 0x669C, symBinAddr: 0x100008DC4, symSize: 0x14 }
  - { offsetInCU: 0x3DD74, offset: 0x3DD74, size: 0x8, addend: 0x0, symName: __ZNSt8_Rb_treeINSt7__cxx1112basic_stringIcSt11char_traitsIcESaIcEEESt4pairIKS5_St3mapIS5_iSt4lessIS5_ESaIS6_IS7_iEEEESt10_Select1stISE_ESA_SaISE_EE10_Auto_nodeC1IJRKSt21piecewise_construct_tSt5tupleIJRS7_EESO_IJEEEEERSI_DpOT_, symObjAddr: 0x66B0, symBinAddr: 0x100008DD8, symSize: 0x7C }
  - { offsetInCU: 0x3DE4D, offset: 0x3DE4D, size: 0x8, addend: 0x0, symName: __ZSt7forwardISt5tupleIJRKNSt7__cxx1112basic_stringIcSt11char_traitsIcESaIcEEEEEEOT_RNSt16remove_referenceISA_E4typeE, symObjAddr: 0x6688, symBinAddr: 0x100008DB0, symSize: 0x14 }
  - { offsetInCU: 0x3DE55, offset: 0x3DE55, size: 0x8, addend: 0x0, symName: __ZSt7forwardISt5tupleIJEEEOT_RNSt16remove_referenceIS2_E4typeE, symObjAddr: 0x669C, symBinAddr: 0x100008DC4, symSize: 0x14 }
  - { offsetInCU: 0x3DE39, offset: 0x3DE39, size: 0x8, addend: 0x0, symName: __ZSt7forwardIRKSt21piecewise_construct_tEOT_RNSt16remove_referenceIS3_E4typeE, symObjAddr: 0x6674, symBinAddr: 0x100008D9C, symSize: 0x14 }
  - { offsetInCU: 0x3DE41, offset: 0x3DE41, size: 0x8, addend: 0x0, symName: __ZSt7forwardISt5tupleIJRKNSt7__cxx1112basic_stringIcSt11char_traitsIcESaIcEEEEEEOT_RNSt16remove_referenceISA_E4typeE, symObjAddr: 0x6688, symBinAddr: 0x100008DB0, symSize: 0x14 }
  - { offsetInCU: 0x3DE93, offset: 0x3DE93, size: 0x8, addend: 0x0, symName: __ZNSt11_Tuple_implILm0EJRKNSt7__cxx1112basic_stringIcSt11char_traitsIcESaIcEEEEEC2ES7_, symObjAddr: 0x664C, symBinAddr: 0x100008D74, symSize: 0x28 }
  - { offsetInCU: 0x3DE9B, offset: 0x3DE9B, size: 0x8, addend: 0x0, symName: __ZSt7forwardIRKSt21piecewise_construct_tEOT_RNSt16remove_referenceIS3_E4typeE, symObjAddr: 0x6674, symBinAddr: 0x100008D9C, symSize: 0x14 }
  - { offsetInCU: 0x3DF09, offset: 0x3DF09, size: 0x8, addend: 0x0, symName: __ZStltIcSt11char_traitsIcESaIcEEbRKNSt7__cxx1112basic_stringIT_T0_T1_EESA_, symObjAddr: 0x6620, symBinAddr: 0x100008D48, symSize: 0x2C }
  - { offsetInCU: 0x3DF11, offset: 0x3DF11, size: 0x8, addend: 0x0, symName: __ZNSt11_Tuple_implILm0EJRKNSt7__cxx1112basic_stringIcSt11char_traitsIcESaIcEEEEEC2ES7_, symObjAddr: 0x664C, symBinAddr: 0x100008D74, symSize: 0x28 }
  - { offsetInCU: 0x3DEF4, offset: 0x3DEF4, size: 0x8, addend: 0x0, symName: __ZNKSt8_Rb_treeINSt7__cxx1112basic_stringIcSt11char_traitsIcESaIcEEESt4pairIKS5_St3mapIS5_iSt4lessIS5_ESaIS6_IS7_iEEEESt10_Select1stISE_ESA_SaISE_EE8key_compEv, symObjAddr: 0x6608, symBinAddr: 0x100008D30, symSize: 0x18 }
  - { offsetInCU: 0x3DEFC, offset: 0x3DEFC, size: 0x8, addend: 0x0, symName: __ZStltIcSt11char_traitsIcESaIcEEbRKNSt7__cxx1112basic_stringIT_T0_T1_EESA_, symObjAddr: 0x6620, symBinAddr: 0x100008D48, symSize: 0x2C }
  - { offsetInCU: 0x3DF24, offset: 0x3DF24, size: 0x8, addend: 0x0, symName: __ZNSt8_Rb_treeINSt7__cxx1112basic_stringIcSt11char_traitsIcESaIcEEESt4pairIKS5_St3mapIS5_iSt4lessIS5_ESaIS6_IS7_iEEEESt10_Select1stISE_ESA_SaISE_EE11lower_boundERS7_, symObjAddr: 0x65C0, symBinAddr: 0x100008CE8, symSize: 0x48 }
  - { offsetInCU: 0x3DF2C, offset: 0x3DF2C, size: 0x8, addend: 0x0, symName: __ZNKSt8_Rb_treeINSt7__cxx1112basic_stringIcSt11char_traitsIcESaIcEEESt4pairIKS5_St3mapIS5_iSt4lessIS5_ESaIS6_IS7_iEEEESt10_Select1stISE_ESA_SaISE_EE8key_compEv, symObjAddr: 0x6608, symBinAddr: 0x100008D30, symSize: 0x18 }
  - { offsetInCU: 0x3DFA4, offset: 0x3DFA4, size: 0x8, addend: 0x0, symName: __ZNK9__gnu_cxx17__normal_iteratorIP7ExpenseSt6vectorIS1_SaIS1_EEE4baseEv, symObjAddr: 0x65AC, symBinAddr: 0x100008CD4, symSize: 0x14 }
  - { offsetInCU: 0x3DFAC, offset: 0x3DFAC, size: 0x8, addend: 0x0, symName: __ZNSt8_Rb_treeINSt7__cxx1112basic_stringIcSt11char_traitsIcESaIcEEESt4pairIKS5_St3mapIS5_iSt4lessIS5_ESaIS6_IS7_iEEEESt10_Select1stISE_ESA_SaISE_EE11lower_boundERS7_, symObjAddr: 0x65C0, symBinAddr: 0x100008CE8, symSize: 0x48 }
  - { offsetInCU: 0x3DFD4, offset: 0x3DFD4, size: 0x8, addend: 0x0, symName: __ZNSt6vectorI7ExpenseSaIS0_EE11_S_relocateEPS0_S3_S3_RS1_, symObjAddr: 0x6578, symBinAddr: 0x100008CA0, symSize: 0x34 }
  - { offsetInCU: 0x3DFDC, offset: 0x3DFDC, size: 0x8, addend: 0x0, symName: __ZNK9__gnu_cxx17__normal_iteratorIP7ExpenseSt6vectorIS1_SaIS1_EEE4baseEv, symObjAddr: 0x65AC, symBinAddr: 0x100008CD4, symSize: 0x14 }
  - { offsetInCU: 0x3E042, offset: 0x3E042, size: 0x8, addend: 0x0, symName: __ZNSt12_Vector_baseI7ExpenseSaIS0_EE11_M_allocateEm, symObjAddr: 0x6528, symBinAddr: 0x100008C50, symSize: 0x50 }
  - { offsetInCU: 0x3E04A, offset: 0x3E04A, size: 0x8, addend: 0x0, symName: __ZNSt6vectorI7ExpenseSaIS0_EE11_S_relocateEPS0_S3_S3_RS1_, symObjAddr: 0x6578, symBinAddr: 0x100008CA0, symSize: 0x34 }
  - { offsetInCU: 0x3E153, offset: 0x3E153, size: 0x8, addend: 0x0, symName: __ZN9__gnu_cxxmiIP7ExpenseSt6vectorIS1_SaIS1_EEEENS_17__normal_iteratorIT_T0_E15difference_typeERKS9_SC_, symObjAddr: 0x64D4, symBinAddr: 0x100008BFC, symSize: 0x54 }
  - { offsetInCU: 0x3E15B, offset: 0x3E15B, size: 0x8, addend: 0x0, symName: __ZNSt12_Vector_baseI7ExpenseSaIS0_EE11_M_allocateEm, symObjAddr: 0x6528, symBinAddr: 0x100008C50, symSize: 0x50 }
  - { offsetInCU: 0x3E133, offset: 0x3E133, size: 0x8, addend: 0x0, symName: __ZNSt6vectorI7ExpenseSaIS0_EE5beginEv, symObjAddr: 0x64B0, symBinAddr: 0x100008BD8, symSize: 0x24 }
  - { offsetInCU: 0x3E13B, offset: 0x3E13B, size: 0x8, addend: 0x0, symName: __ZN9__gnu_cxxmiIP7ExpenseSt6vectorIS1_SaIS1_EEEENS_17__normal_iteratorIT_T0_E15difference_typeERKS9_SC_, symObjAddr: 0x64D4, symBinAddr: 0x100008BFC, symSize: 0x54 }
  - { offsetInCU: 0x3E163, offset: 0x3E163, size: 0x8, addend: 0x0, symName: __ZNKSt6vectorI7ExpenseSaIS0_EE12_M_check_lenEmPKc, symObjAddr: 0x63E0, symBinAddr: 0x100008B08, symSize: 0xD0 }
  - { offsetInCU: 0x3E16B, offset: 0x3E16B, size: 0x8, addend: 0x0, symName: __ZNSt6vectorI7ExpenseSaIS0_EE5beginEv, symObjAddr: 0x64B0, symBinAddr: 0x100008BD8, symSize: 0x24 }
  - { offsetInCU: 0x3E244, offset: 0x3E244, size: 0x8, addend: 0x0, symName: __ZN9__gnu_cxx17__normal_iteratorIP7ExpenseSt6vectorIS1_SaIS1_EEEC1ERKS2_, symObjAddr: 0x63B8, symBinAddr: 0x100008AE0, symSize: 0x28 }
  - { offsetInCU: 0x3E24C, offset: 0x3E24C, size: 0x8, addend: 0x0, symName: __ZNKSt6vectorI7ExpenseSaIS0_EE12_M_check_lenEmPKc, symObjAddr: 0x63E0, symBinAddr: 0x100008B08, symSize: 0xD0 }
  - { offsetInCU: 0x3E2C6, offset: 0x3E2C6, size: 0x8, addend: 0x0, symName: __ZN7ExpenseC1ERKS_, symObjAddr: 0x6308, symBinAddr: 0x100008A30, symSize: 0xB0 }
  - { offsetInCU: 0x3E2CE, offset: 0x3E2CE, size: 0x8, addend: 0x0, symName: __ZN9__gnu_cxx17__normal_iteratorIP7ExpenseSt6vectorIS1_SaIS1_EEEC1ERKS2_, symObjAddr: 0x63B8, symBinAddr: 0x100008AE0, symSize: 0x28 }
  - { offsetInCU: 0x3E349, offset: 0x3E349, size: 0x8, addend: 0x0, symName: __ZSt7forwardIRK7ExpenseEOT_RNSt16remove_referenceIS3_E4typeE, symObjAddr: 0x62F4, symBinAddr: 0x100008A1C, symSize: 0x14 }
  - { offsetInCU: 0x3E351, offset: 0x3E351, size: 0x8, addend: 0x0, symName: __ZN7ExpenseC1ERKS_, symObjAddr: 0x6308, symBinAddr: 0x100008A30, symSize: 0xB0 }
  - { offsetInCU: 0x3E409, offset: 0x3E409, size: 0x8, addend: 0x0, symName: __ZSt18uninitialized_copyIN9__gnu_cxx17__normal_iteratorIPK4UserSt6vectorIS2_SaIS2_EEEEPS2_ET0_T_SB_SA_, symObjAddr: 0x62C0, symBinAddr: 0x1000089E8, symSize: 0x34 }
  - { offsetInCU: 0x3E411, offset: 0x3E411, size: 0x8, addend: 0x0, symName: __ZSt7forwardIRK7ExpenseEOT_RNSt16remove_referenceIS3_E4typeE, symObjAddr: 0x62F4, symBinAddr: 0x100008A1C, symSize: 0x14 }
  - { offsetInCU: 0x3E3E9, offset: 0x3E3E9, size: 0x8, addend: 0x0, symName: __ZNSt12_Vector_baseI4UserSaIS0_EE17_M_create_storageEm, symObjAddr: 0x624C, symBinAddr: 0x100008974, symSize: 0x74 }
  - { offsetInCU: 0x3E3F1, offset: 0x3E3F1, size: 0x8, addend: 0x0, symName: __ZSt18uninitialized_copyIN9__gnu_cxx17__normal_iteratorIPK4UserSt6vectorIS2_SaIS2_EEEEPS2_ET0_T_SB_SA_, symObjAddr: 0x62C0, symBinAddr: 0x1000089E8, symSize: 0x34 }
  - { offsetInCU: 0x3E48F, offset: 0x3E48F, size: 0x8, addend: 0x0, symName: __ZNSt12_Vector_baseI4UserSaIS0_EE12_Vector_implC1ERKS1_, symObjAddr: 0x6200, symBinAddr: 0x100008928, symSize: 0x4C }
  - { offsetInCU: 0x3E497, offset: 0x3E497, size: 0x8, addend: 0x0, symName: __ZNSt12_Vector_baseI4UserSaIS0_EE17_M_create_storageEm, symObjAddr: 0x624C, symBinAddr: 0x100008974, symSize: 0x74 }
  - { offsetInCU: 0x3E56F, offset: 0x3E56F, size: 0x8, addend: 0x0, symName: __ZSt18uninitialized_copyIPdS0_ET0_T_S2_S1_, symObjAddr: 0x61C4, symBinAddr: 0x1000088EC, symSize: 0x3C }
  - { offsetInCU: 0x3E577, offset: 0x3E577, size: 0x8, addend: 0x0, symName: __ZNSt12_Vector_baseI4UserSaIS0_EE12_Vector_implC1ERKS1_, symObjAddr: 0x6200, symBinAddr: 0x100008928, symSize: 0x4C }
  - { offsetInCU: 0x3E616, offset: 0x3E616, size: 0x8, addend: 0x0, symName: __ZSt13__copy_move_aILb0EPdS0_ET1_T0_S2_S1_, symObjAddr: 0x6164, symBinAddr: 0x10000888C, symSize: 0x60 }
  - { offsetInCU: 0x3E61E, offset: 0x3E61E, size: 0x8, addend: 0x0, symName: __ZSt18uninitialized_copyIPdS0_ET0_T_S2_S1_, symObjAddr: 0x61C4, symBinAddr: 0x1000088EC, symSize: 0x3C }
  - { offsetInCU: 0x3E686, offset: 0x3E686, size: 0x8, addend: 0x0, symName: __ZSt12__miter_baseIPdET_S1_, symObjAddr: 0x6150, symBinAddr: 0x100008878, symSize: 0x14 }
  - { offsetInCU: 0x3E68E, offset: 0x3E68E, size: 0x8, addend: 0x0, symName: __ZSt13__copy_move_aILb0EPdS0_ET1_T0_S2_S1_, symObjAddr: 0x6164, symBinAddr: 0x10000888C, symSize: 0x60 }
  - { offsetInCU: 0x3E72D, offset: 0x3E72D, size: 0x8, addend: 0x0, symName: __ZSt8_DestroyIN9__gnu_cxx17__normal_iteratorIPdSt6vectorIdSaIdEEEEEvT_S7_, symObjAddr: 0x6128, symBinAddr: 0x100008850, symSize: 0x28 }
  - { offsetInCU: 0x3E735, offset: 0x3E735, size: 0x8, addend: 0x0, symName: __ZSt12__miter_baseIPdET_S1_, symObjAddr: 0x6150, symBinAddr: 0x100008878, symSize: 0x14 }
  - { offsetInCU: 0x3E7F4, offset: 0x3E7F4, size: 0x8, addend: 0x0, symName: __ZSt13__copy_move_aILb0EN9__gnu_cxx17__normal_iteratorIPKdSt6vectorIdSaIdEEEENS1_IPdS6_EEET1_T0_SB_SA_, symObjAddr: 0x60C8, symBinAddr: 0x1000087F0, symSize: 0x60 }
  - { offsetInCU: 0x3E7FC, offset: 0x3E7FC, size: 0x8, addend: 0x0, symName: __ZSt8_DestroyIN9__gnu_cxx17__normal_iteratorIPdSt6vectorIdSaIdEEEEEvT_S7_, symObjAddr: 0x6128, symBinAddr: 0x100008850, symSize: 0x28 }
  - { offsetInCU: 0x3E827, offset: 0x3E827, size: 0x8, addend: 0x0, symName: __ZSt12__miter_baseIN9__gnu_cxx17__normal_iteratorIPKdSt6vectorIdSaIdEEEEET_S8_, symObjAddr: 0x60B4, symBinAddr: 0x1000087DC, symSize: 0x14 }
  - { offsetInCU: 0x3E82F, offset: 0x3E82F, size: 0x8, addend: 0x0, symName: __ZSt13__copy_move_aILb0EN9__gnu_cxx17__normal_iteratorIPKdSt6vectorIdSaIdEEEENS1_IPdS6_EEET1_T0_SB_SA_, symObjAddr: 0x60C8, symBinAddr: 0x1000087F0, symSize: 0x60 }
  - { offsetInCU: 0x3E838, offset: 0x3E838, size: 0x8, addend: 0x0, symName: __ZN9__gnu_cxx17__normal_iteratorIPdSt6vectorIdSaIdEEEC1ERKS1_, symObjAddr: 0x608C, symBinAddr: 0x1000087B4, symSize: 0x28 }
  - { offsetInCU: 0x3E840, offset: 0x3E840, size: 0x8, addend: 0x0, symName: __ZSt12__miter_baseIN9__gnu_cxx17__normal_iteratorIPKdSt6vectorIdSaIdEEEEET_S8_, symObjAddr: 0x60B4, symBinAddr: 0x1000087DC, symSize: 0x14 }
  - { offsetInCU: 0x3E837, offset: 0x3E837, size: 0x8, addend: 0x0, symName: __ZNSt12_Vector_baseIdSaIdEE11_M_allocateEm, symObjAddr: 0x603C, symBinAddr: 0x100008764, symSize: 0x50 }
  - { offsetInCU: 0x3E83F, offset: 0x3E83F, size: 0x8, addend: 0x0, symName: __ZN9__gnu_cxx17__normal_iteratorIPdSt6vectorIdSaIdEEEC1ERKS1_, symObjAddr: 0x608C, symBinAddr: 0x1000087B4, symSize: 0x28 }
  - { offsetInCU: 0x3E91A, offset: 0x3E91A, size: 0x8, addend: 0x0, symName: __ZN9__gnu_cxx17__normal_iteratorIPKdSt6vectorIdSaIdEEEC1ERKS2_, symObjAddr: 0x6014, symBinAddr: 0x10000873C, symSize: 0x28 }
  - { offsetInCU: 0x3E922, offset: 0x3E922, size: 0x8, addend: 0x0, symName: __ZNSt12_Vector_baseIdSaIdEE11_M_allocateEm, symObjAddr: 0x603C, symBinAddr: 0x100008764, symSize: 0x50 }
  - { offsetInCU: 0x3E96C, offset: 0x3E96C, size: 0x8, addend: 0x0, symName: __ZSt18uninitialized_copyIP4UserS1_ET0_T_S3_S2_, symObjAddr: 0x5FE0, symBinAddr: 0x100008708, symSize: 0x34 }
  - { offsetInCU: 0x3E974, offset: 0x3E974, size: 0x8, addend: 0x0, symName: __ZN9__gnu_cxx17__normal_iteratorIPKdSt6vectorIdSaIdEEEC1ERKS2_, symObjAddr: 0x6014, symBinAddr: 0x10000873C, symSize: 0x28 }
  - { offsetInCU: 0x3EA13, offset: 0x3EA13, size: 0x8, addend: 0x0, symName: __ZSt13__copy_move_aILb0EP4UserS1_ET1_T0_S3_S2_, symObjAddr: 0x5F80, symBinAddr: 0x1000086A8, symSize: 0x60 }
  - { offsetInCU: 0x3EA1B, offset: 0x3EA1B, size: 0x8, addend: 0x0, symName: __ZSt18uninitialized_copyIP4UserS1_ET0_T_S3_S2_, symObjAddr: 0x5FE0, symBinAddr: 0x100008708, symSize: 0x34 }
  - { offsetInCU: 0x3EA85, offset: 0x3EA85, size: 0x8, addend: 0x0, symName: __ZSt12__miter_baseIP4UserET_S2_, symObjAddr: 0x5F6C, symBinAddr: 0x100008694, symSize: 0x14 }
  - { offsetInCU: 0x3EA8D, offset: 0x3EA8D, size: 0x8, addend: 0x0, symName: __ZSt13__copy_move_aILb0EP4UserS1_ET1_T0_S3_S2_, symObjAddr: 0x5F80, symBinAddr: 0x1000086A8, symSize: 0x60 }
  - { offsetInCU: 0x3EB2E, offset: 0x3EB2E, size: 0x8, addend: 0x0, symName: __ZSt8_DestroyIN9__gnu_cxx17__normal_iteratorIP4UserSt6vectorIS2_SaIS2_EEEEEvT_S8_, symObjAddr: 0x5F44, symBinAddr: 0x10000866C, symSize: 0x28 }
  - { offsetInCU: 0x3EB36, offset: 0x3EB36, size: 0x8, addend: 0x0, symName: __ZSt12__miter_baseIP4UserET_S2_, symObjAddr: 0x5F6C, symBinAddr: 0x100008694, symSize: 0x14 }
  - { offsetInCU: 0x3EBF3, offset: 0x3EBF3, size: 0x8, addend: 0x0, symName: __ZSt13__copy_move_aILb0EN9__gnu_cxx17__normal_iteratorIPK4UserSt6vectorIS2_SaIS2_EEEENS1_IPS2_S7_EEET1_T0_SC_SB_, symObjAddr: 0x5EE4, symBinAddr: 0x10000860C, symSize: 0x60 }
  - { offsetInCU: 0x3EBFB, offset: 0x3EBFB, size: 0x8, addend: 0x0, symName: __ZSt8_DestroyIN9__gnu_cxx17__normal_iteratorIP4UserSt6vectorIS2_SaIS2_EEEEEvT_S8_, symObjAddr: 0x5F44, symBinAddr: 0x10000866C, symSize: 0x28 }
  - { offsetInCU: 0x3EC28, offset: 0x3EC28, size: 0x8, addend: 0x0, symName: __ZSt12__miter_baseIN9__gnu_cxx17__normal_iteratorIPK4UserSt6vectorIS2_SaIS2_EEEEET_S9_, symObjAddr: 0x5ED0, symBinAddr: 0x1000085F8, symSize: 0x14 }
  - { offsetInCU: 0x3EC30, offset: 0x3EC30, size: 0x8, addend: 0x0, symName: __ZSt13__copy_move_aILb0EN9__gnu_cxx17__normal_iteratorIPK4UserSt6vectorIS2_SaIS2_EEEENS1_IPS2_S7_EEET1_T0_SC_SB_, symObjAddr: 0x5EE4, symBinAddr: 0x10000860C, symSize: 0x60 }
  - { offsetInCU: 0x3EC3D, offset: 0x3EC3D, size: 0x8, addend: 0x0, symName: __ZN9__gnu_cxx17__normal_iteratorIP4UserSt6vectorIS1_SaIS1_EEEC1ERKS2_, symObjAddr: 0x5EA8, symBinAddr: 0x1000085D0, symSize: 0x28 }
  - { offsetInCU: 0x3EC45, offset: 0x3EC45, size: 0x8, addend: 0x0, symName: __ZSt12__miter_baseIN9__gnu_cxx17__normal_iteratorIPK4UserSt6vectorIS2_SaIS2_EEEEET_S9_, symObjAddr: 0x5ED0, symBinAddr: 0x1000085F8, symSize: 0x14 }
  - { offsetInCU: 0x3EC34, offset: 0x3EC34, size: 0x8, addend: 0x0, symName: __ZNSt12_Vector_baseI4UserSaIS0_EE11_M_allocateEm, symObjAddr: 0x5E58, symBinAddr: 0x100008580, symSize: 0x50 }
  - { offsetInCU: 0x3EC3C, offset: 0x3EC3C, size: 0x8, addend: 0x0, symName: __ZN9__gnu_cxx17__normal_iteratorIP4UserSt6vectorIS1_SaIS1_EEEC1ERKS2_, symObjAddr: 0x5EA8, symBinAddr: 0x1000085D0, symSize: 0x28 }
  - { offsetInCU: 0x3ED1F, offset: 0x3ED1F, size: 0x8, addend: 0x0, symName: __ZN9__gnu_cxx17__normal_iteratorIPK4UserSt6vectorIS1_SaIS1_EEEC1ERKS3_, symObjAddr: 0x5E30, symBinAddr: 0x100008558, symSize: 0x28 }
  - { offsetInCU: 0x3ED27, offset: 0x3ED27, size: 0x8, addend: 0x0, symName: __ZNSt12_Vector_baseI4UserSaIS0_EE11_M_allocateEm, symObjAddr: 0x5E58, symBinAddr: 0x100008580, symSize: 0x50 }
  - { offsetInCU: 0x3ED15, offset: 0x3ED15, size: 0x8, addend: 0x0, symName: __ZNSt6vectorI4UserSaIS0_EE15_M_erase_at_endEPS0_, symObjAddr: 0x5D94, symBinAddr: 0x1000084BC, symSize: 0x9C }
  - { offsetInCU: 0x3ED1D, offset: 0x3ED1D, size: 0x8, addend: 0x0, symName: __ZN9__gnu_cxx17__normal_iteratorIPK4UserSt6vectorIS1_SaIS1_EEEC1ERKS3_, symObjAddr: 0x5E30, symBinAddr: 0x100008558, symSize: 0x28 }
  - { offsetInCU: 0x3EDED, offset: 0x3EDED, size: 0x8, addend: 0x0, symName: __ZSt8_DestroyIPdEvT_S1_, symObjAddr: 0x5D6C, symBinAddr: 0x100008494, symSize: 0x28 }
  - { offsetInCU: 0x3EDF5, offset: 0x3EDF5, size: 0x8, addend: 0x0, symName: __ZNSt6vectorI4UserSaIS0_EE15_M_erase_at_endEPS0_, symObjAddr: 0x5D94, symBinAddr: 0x1000084BC, symSize: 0x9C }
  - { offsetInCU: 0x3EE9F, offset: 0x3EE9F, size: 0x8, addend: 0x0, symName: __ZSt8_DestroyIP4UserEvT_S2_, symObjAddr: 0x5D44, symBinAddr: 0x10000846C, symSize: 0x28 }
  - { offsetInCU: 0x3EEA7, offset: 0x3EEA7, size: 0x8, addend: 0x0, symName: __ZSt8_DestroyIPdEvT_S1_, symObjAddr: 0x5D6C, symBinAddr: 0x100008494, symSize: 0x28 }
  - { offsetInCU: 0x3EF5F, offset: 0x3EF5F, size: 0x8, addend: 0x0, symName: __ZNK9__gnu_cxx17__normal_iteratorIPNSt7__cxx1112basic_stringIcSt11char_traitsIcESaIcEEESt6vectorIS6_SaIS6_EEE4baseEv, symObjAddr: 0x5D30, symBinAddr: 0x100008458, symSize: 0x14 }
  - { offsetInCU: 0x3EF67, offset: 0x3EF67, size: 0x8, addend: 0x0, symName: __ZSt8_DestroyIP4UserEvT_S2_, symObjAddr: 0x5D44, symBinAddr: 0x10000846C, symSize: 0x28 }
  - { offsetInCU: 0x3EF8F, offset: 0x3EF8F, size: 0x8, addend: 0x0, symName: __ZNSt6vectorINSt7__cxx1112basic_stringIcSt11char_traitsIcESaIcEEESaIS5_EE11_S_relocateEPS5_S8_S8_RS6_, symObjAddr: 0x5CFC, symBinAddr: 0x100008424, symSize: 0x34 }
  - { offsetInCU: 0x3EF97, offset: 0x3EF97, size: 0x8, addend: 0x0, symName: __ZNK9__gnu_cxx17__normal_iteratorIPNSt7__cxx1112basic_stringIcSt11char_traitsIcESaIcEEESt6vectorIS6_SaIS6_EEE4baseEv, symObjAddr: 0x5D30, symBinAddr: 0x100008458, symSize: 0x14 }
  - { offsetInCU: 0x3EFFD, offset: 0x3EFFD, size: 0x8, addend: 0x0, symName: __ZNSt12_Vector_baseINSt7__cxx1112basic_stringIcSt11char_traitsIcESaIcEEESaIS5_EE11_M_allocateEm, symObjAddr: 0x5CAC, symBinAddr: 0x1000083D4, symSize: 0x50 }
  - { offsetInCU: 0x3F005, offset: 0x3F005, size: 0x8, addend: 0x0, symName: __ZNSt6vectorINSt7__cxx1112basic_stringIcSt11char_traitsIcESaIcEEESaIS5_EE11_S_relocateEPS5_S8_S8_RS6_, symObjAddr: 0x5CFC, symBinAddr: 0x100008424, symSize: 0x34 }
  - { offsetInCU: 0x3F16D, offset: 0x3F16D, size: 0x8, addend: 0x0, symName: __ZN9__gnu_cxxmiIPNSt7__cxx1112basic_stringIcSt11char_traitsIcESaIcEEESt6vectorIS6_SaIS6_EEEENS_17__normal_iteratorIT_T0_E15difference_typeERKSE_SH_, symObjAddr: 0x5C6C, symBinAddr: 0x100008394, symSize: 0x40 }
  - { offsetInCU: 0x3F175, offset: 0x3F175, size: 0x8, addend: 0x0, symName: __ZNSt12_Vector_baseINSt7__cxx1112basic_stringIcSt11char_traitsIcESaIcEEESaIS5_EE11_M_allocateEm, symObjAddr: 0x5CAC, symBinAddr: 0x1000083D4, symSize: 0x50 }
  - { offsetInCU: 0x3F0EE, offset: 0x3F0EE, size: 0x8, addend: 0x0, symName: __ZNSt6vectorINSt7__cxx1112basic_stringIcSt11char_traitsIcESaIcEEESaIS5_EE5beginEv, symObjAddr: 0x5C48, symBinAddr: 0x100008370, symSize: 0x24 }
  - { offsetInCU: 0x3F0F6, offset: 0x3F0F6, size: 0x8, addend: 0x0, symName: __ZN9__gnu_cxxmiIPNSt7__cxx1112basic_stringIcSt11char_traitsIcESaIcEEESt6vectorIS6_SaIS6_EEEENS_17__normal_iteratorIT_T0_E15difference_typeERKSE_SH_, symObjAddr: 0x5C6C, symBinAddr: 0x100008394, symSize: 0x40 }
  - { offsetInCU: 0x3F11E, offset: 0x3F11E, size: 0x8, addend: 0x0, symName: __ZNKSt6vectorINSt7__cxx1112basic_stringIcSt11char_traitsIcESaIcEEESaIS5_EE12_M_check_lenEmPKc, symObjAddr: 0x5B78, symBinAddr: 0x1000082A0, symSize: 0xD0 }
  - { offsetInCU: 0x3F126, offset: 0x3F126, size: 0x8, addend: 0x0, symName: __ZNSt6vectorINSt7__cxx1112basic_stringIcSt11char_traitsIcESaIcEEESaIS5_EE5beginEv, symObjAddr: 0x5C48, symBinAddr: 0x100008370, symSize: 0x24 }
  - { offsetInCU: 0x3F22B, offset: 0x3F22B, size: 0x8, addend: 0x0, symName: __ZN9__gnu_cxx17__normal_iteratorIPNSt7__cxx1112basic_stringIcSt11char_traitsIcESaIcEEESt6vectorIS6_SaIS6_EEEC1ERKS7_, symObjAddr: 0x5B50, symBinAddr: 0x100008278, symSize: 0x28 }
  - { offsetInCU: 0x3F233, offset: 0x3F233, size: 0x8, addend: 0x0, symName: __ZNKSt6vectorINSt7__cxx1112basic_stringIcSt11char_traitsIcESaIcEEESaIS5_EE12_M_check_lenEmPKc, symObjAddr: 0x5B78, symBinAddr: 0x1000082A0, symSize: 0xD0 }
  - { offsetInCU: 0x3F2E6, offset: 0x3F2E6, size: 0x8, addend: 0x0, symName: __ZSt7forwardIRKNSt7__cxx1112basic_stringIcSt11char_traitsIcESaIcEEEEOT_RNSt16remove_referenceIS8_E4typeE, symObjAddr: 0x5B3C, symBinAddr: 0x100008264, symSize: 0x14 }
  - { offsetInCU: 0x3F2EE, offset: 0x3F2EE, size: 0x8, addend: 0x0, symName: __ZN9__gnu_cxx17__normal_iteratorIPNSt7__cxx1112basic_stringIcSt11char_traitsIcESaIcEEESt6vectorIS6_SaIS6_EEEC1ERKS7_, symObjAddr: 0x5B50, symBinAddr: 0x100008278, symSize: 0x28 }
  - { offsetInCU: 0x3F314, offset: 0x3F314, size: 0x8, addend: 0x0, symName: __ZSt8_DestroyIPNSt7__cxx1112basic_stringIcSt11char_traitsIcESaIcEEEEvT_S7_, symObjAddr: 0x5B14, symBinAddr: 0x10000823C, symSize: 0x28 }
  - { offsetInCU: 0x3F31C, offset: 0x3F31C, size: 0x8, addend: 0x0, symName: __ZSt7forwardIRKNSt7__cxx1112basic_stringIcSt11char_traitsIcESaIcEEEEOT_RNSt16remove_referenceIS8_E4typeE, symObjAddr: 0x5B3C, symBinAddr: 0x100008264, symSize: 0x14 }
  - { offsetInCU: 0x3F46E, offset: 0x3F46E, size: 0x8, addend: 0x0, symName: __ZSt22__uninitialized_copy_aIN9__gnu_cxx17__normal_iteratorIPKdSt6vectorIdSaIdEEEEPddET0_T_SA_S9_RSaIT1_E, symObjAddr: 0x5AE4, symBinAddr: 0x10000820C, symSize: 0x30 }
  - { offsetInCU: 0x3F476, offset: 0x3F476, size: 0x8, addend: 0x0, symName: __ZSt8_DestroyIPNSt7__cxx1112basic_stringIcSt11char_traitsIcESaIcEEEEvT_S7_, symObjAddr: 0x5B14, symBinAddr: 0x10000823C, symSize: 0x28 }
  - { offsetInCU: 0x3F492, offset: 0x3F492, size: 0x8, addend: 0x0, symName: __ZNSt12_Vector_baseIdSaIdEEC2EmRKS0_, symObjAddr: 0x5A90, symBinAddr: 0x1000081B8, symSize: 0x54 }
  - { offsetInCU: 0x3F49A, offset: 0x3F49A, size: 0x8, addend: 0x0, symName: __ZSt22__uninitialized_copy_aIN9__gnu_cxx17__normal_iteratorIPKdSt6vectorIdSaIdEEEEPddET0_T_SA_S9_RSaIT1_E, symObjAddr: 0x5AE4, symBinAddr: 0x10000820C, symSize: 0x30 }
  - { offsetInCU: 0x3F4D3, offset: 0x3F4D3, size: 0x8, addend: 0x0, symName: __ZNSt6vectorIdSaIdEE17_M_realloc_insertIJRKdEEEvN9__gnu_cxx17__normal_iteratorIPdS1_EEDpOT_, symObjAddr: 0x58D0, symBinAddr: 0x100007FF8, symSize: 0x1C0 }
  - { offsetInCU: 0x3F4DB, offset: 0x3F4DB, size: 0x8, addend: 0x0, symName: __ZNSt12_Vector_baseIdSaIdEEC2EmRKS0_, symObjAddr: 0x5A90, symBinAddr: 0x1000081B8, symSize: 0x54 }
  - { offsetInCU: 0x3F69E, offset: 0x3F69E, size: 0x8, addend: 0x0, symName: __ZNSt6vectorI4UserSaIS0_EE17_M_realloc_insertIJRKS0_EEEvN9__gnu_cxx17__normal_iteratorIPS0_S2_EEDpOT_, symObjAddr: 0x55E4, symBinAddr: 0x100007D0C, symSize: 0x2EC }
  - { offsetInCU: 0x3F6A6, offset: 0x3F6A6, size: 0x8, addend: 0x0, symName: __ZNSt6vectorIdSaIdEE17_M_realloc_insertIJRKdEEEvN9__gnu_cxx17__normal_iteratorIPdS1_EEDpOT_, symObjAddr: 0x58D0, symBinAddr: 0x100007FF8, symSize: 0x1C0 }
  - { offsetInCU: 0x3F91C, offset: 0x3F91C, size: 0x8, addend: 0x0, symName: __ZNSt8__detail9_Map_baseINSt7__cxx1112basic_stringIcSt11char_traitsIcESaIcEEESt4pairIKS6_4UserESaISA_ENS_10_Select1stESt8equal_toIS6_ESt4hashIS6_ENS_18_Mod_range_hashingENS_20_Default_ranged_hashENS_20_Prime_rehash_policyENS_17_Hashtable_traitsILb1ELb0ELb1EEELb1EEixERS8_, symObjAddr: 0x54DC, symBinAddr: 0x100007C04, symSize: 0x108 }
  - { offsetInCU: 0x3F924, offset: 0x3F924, size: 0x8, addend: 0x0, symName: __ZNSt6vectorI4UserSaIS0_EE17_M_realloc_insertIJRKS0_EEEvN9__gnu_cxx17__normal_iteratorIPS0_S2_EEDpOT_, symObjAddr: 0x55E4, symBinAddr: 0x100007D0C, symSize: 0x2EC }
  - { offsetInCU: 0x3F9FE, offset: 0x3F9FE, size: 0x8, addend: 0x0, symName: __ZNSt10_HashtableINSt7__cxx1112basic_stringIcSt11char_traitsIcESaIcEEESt4pairIKS5_4UserESaIS9_ENSt8__detail10_Select1stESt8equal_toIS5_ESt4hashIS5_ENSB_18_Mod_range_hashingENSB_20_Default_ranged_hashENSB_20_Prime_rehash_policyENSB_17_Hashtable_traitsILb1ELb0ELb1EEEE3endEv, symObjAddr: 0x54B8, symBinAddr: 0x100007BE0, symSize: 0x24 }
  - { offsetInCU: 0x3FA06, offset: 0x3FA06, size: 0x8, addend: 0x0, symName: __ZNSt8__detail9_Map_baseINSt7__cxx1112basic_stringIcSt11char_traitsIcESaIcEEESt4pairIKS6_4UserESaISA_ENS_10_Select1stESt8equal_toIS6_ESt4hashIS6_ENS_18_Mod_range_hashingENS_20_Default_ranged_hashENS_20_Prime_rehash_policyENS_17_Hashtable_traitsILb1ELb0ELb1EEELb1EEixERS8_, symObjAddr: 0x54DC, symBinAddr: 0x100007C04, symSize: 0x108 }
  - { offsetInCU: 0x3FA2E, offset: 0x3FA2E, size: 0x8, addend: 0x0, symName: __ZNSt10_HashtableINSt7__cxx1112basic_stringIcSt11char_traitsIcESaIcEEESt4pairIKS5_4UserESaIS9_ENSt8__detail10_Select1stESt8equal_toIS5_ESt4hashIS5_ENSB_18_Mod_range_hashingENSB_20_Default_ranged_hashENSB_20_Prime_rehash_policyENSB_17_Hashtable_traitsILb1ELb0ELb1EEEE4findERS7_, symObjAddr: 0x53B0, symBinAddr: 0x100007AD8, symSize: 0x108 }
  - { offsetInCU: 0x3FA36, offset: 0x3FA36, size: 0x8, addend: 0x0, symName: __ZNSt10_HashtableINSt7__cxx1112basic_stringIcSt11char_traitsIcESaIcEEESt4pairIKS5_4UserESaIS9_ENSt8__detail10_Select1stESt8equal_toIS5_ESt4hashIS5_ENSB_18_Mod_range_hashingENSB_20_Default_ranged_hashENSB_20_Prime_rehash_policyENSB_17_Hashtable_traitsILb1ELb0ELb1EEEE3endEv, symObjAddr: 0x54B8, symBinAddr: 0x100007BE0, symSize: 0x24 }
  - { offsetInCU: 0x3FAC4, offset: 0x3FAC4, size: 0x8, addend: 0x0, symName: __ZNSt8_Rb_treeINSt7__cxx1112basic_stringIcSt11char_traitsIcESaIcEEESt4pairIKS5_St3mapIS5_iSt4lessIS5_ESaIS6_IS7_iEEEESt10_Select1stISE_ESA_SaISE_EE8_M_beginEv, symObjAddr: 0x5394, symBinAddr: 0x100007ABC, symSize: 0x1C }
  - { offsetInCU: 0x3FACC, offset: 0x3FACC, size: 0x8, addend: 0x0, symName: __ZNSt10_HashtableINSt7__cxx1112basic_stringIcSt11char_traitsIcESaIcEEESt4pairIKS5_4UserESaIS9_ENSt8__detail10_Select1stESt8equal_toIS5_ESt4hashIS5_ENSB_18_Mod_range_hashingENSB_20_Default_ranged_hashENSB_20_Prime_rehash_policyENSB_17_Hashtable_traitsILb1ELb0ELb1EEEE4findERS7_, symObjAddr: 0x53B0, symBinAddr: 0x100007AD8, symSize: 0x108 }
  - { offsetInCU: 0x3FAF4, offset: 0x3FAF4, size: 0x8, addend: 0x0, symName: __ZNSt8_Rb_treeINSt7__cxx1112basic_stringIcSt11char_traitsIcESaIcEEESt4pairIKS5_St3mapIS5_iSt4lessIS5_ESaIS6_IS7_iEEEESt10_Select1stISE_ESA_SaISE_EE8_M_eraseEPSt13_Rb_tree_nodeISE_E, symObjAddr: 0x5330, symBinAddr: 0x100007A58, symSize: 0x64 }
  - { offsetInCU: 0x3FAFC, offset: 0x3FAFC, size: 0x8, addend: 0x0, symName: __ZNSt8_Rb_treeINSt7__cxx1112basic_stringIcSt11char_traitsIcESaIcEEESt4pairIKS5_St3mapIS5_iSt4lessIS5_ESaIS6_IS7_iEEEESt10_Select1stISE_ESA_SaISE_EE8_M_beginEv, symObjAddr: 0x5394, symBinAddr: 0x100007ABC, symSize: 0x1C }
  - { offsetInCU: 0x3FC1A, offset: 0x3FC1A, size: 0x8, addend: 0x0, symName: __ZNSt15__new_allocatorISt13_Rb_tree_nodeISt4pairIKNSt7__cxx1112basic_stringIcSt11char_traitsIcESaIcEEESt3mapIS7_iSt4lessIS7_ESaIS1_IS8_iEEEEEED2Ev, symObjAddr: 0x531C, symBinAddr: 0x100007A44, symSize: 0x14 }
  - { offsetInCU: 0x3FC22, offset: 0x3FC22, size: 0x8, addend: 0x0, symName: __ZNSt8_Rb_treeINSt7__cxx1112basic_stringIcSt11char_traitsIcESaIcEEESt4pairIKS5_St3mapIS5_iSt4lessIS5_ESaIS6_IS7_iEEEESt10_Select1stISE_ESA_SaISE_EE8_M_eraseEPSt13_Rb_tree_nodeISE_E, symObjAddr: 0x5330, symBinAddr: 0x100007A58, symSize: 0x64 }
  - { offsetInCU: 0x3FC2F, offset: 0x3FC2F, size: 0x8, addend: 0x0, symName: __ZNSt20_Rb_tree_key_compareISt4lessINSt7__cxx1112basic_stringIcSt11char_traitsIcESaIcEEEEEC2Ev, symObjAddr: 0x5308, symBinAddr: 0x100007A30, symSize: 0x14 }
  - { offsetInCU: 0x3FC37, offset: 0x3FC37, size: 0x8, addend: 0x0, symName: __ZNSt15__new_allocatorISt13_Rb_tree_nodeISt4pairIKNSt7__cxx1112basic_stringIcSt11char_traitsIcESaIcEEESt3mapIS7_iSt4lessIS7_ESaIS1_IS8_iEEEEEED2Ev, symObjAddr: 0x531C, symBinAddr: 0x100007A44, symSize: 0x14 }
  - { offsetInCU: 0x3FC71, offset: 0x3FC71, size: 0x8, addend: 0x0, symName: __ZNSt12_Vector_baseI7ExpenseSaIS0_EE19_M_get_Tp_allocatorEv, symObjAddr: 0x52F4, symBinAddr: 0x100007A1C, symSize: 0x14 }
  - { offsetInCU: 0x3FC79, offset: 0x3FC79, size: 0x8, addend: 0x0, symName: __ZNSt20_Rb_tree_key_compareISt4lessINSt7__cxx1112basic_stringIcSt11char_traitsIcESaIcEEEEEC2Ev, symObjAddr: 0x5308, symBinAddr: 0x100007A30, symSize: 0x14 }
  - { offsetInCU: 0x3FCA1, offset: 0x3FCA1, size: 0x8, addend: 0x0, symName: __ZNSt12_Vector_baseI7ExpenseSaIS0_EE13_M_deallocateEPS0_m, symObjAddr: 0x529C, symBinAddr: 0x1000079C4, symSize: 0x58 }
  - { offsetInCU: 0x3FCA9, offset: 0x3FCA9, size: 0x8, addend: 0x0, symName: __ZNSt12_Vector_baseI7ExpenseSaIS0_EE19_M_get_Tp_allocatorEv, symObjAddr: 0x52F4, symBinAddr: 0x100007A1C, symSize: 0x14 }
  - { offsetInCU: 0x3FD87, offset: 0x3FD87, size: 0x8, addend: 0x0, symName: __ZNSt15__new_allocatorI7ExpenseED2Ev, symObjAddr: 0x5288, symBinAddr: 0x1000079B0, symSize: 0x14 }
  - { offsetInCU: 0x3FD8F, offset: 0x3FD8F, size: 0x8, addend: 0x0, symName: __ZNSt12_Vector_baseI7ExpenseSaIS0_EE13_M_deallocateEPS0_m, symObjAddr: 0x529C, symBinAddr: 0x1000079C4, symSize: 0x58 }
  - { offsetInCU: 0x3FDE7, offset: 0x3FDE7, size: 0x8, addend: 0x0, symName: __ZNSt12_Vector_baseI7ExpenseSaIS0_EE17_Vector_impl_dataC2Ev, symObjAddr: 0x525C, symBinAddr: 0x100007984, symSize: 0x2C }
  - { offsetInCU: 0x3FDEF, offset: 0x3FDEF, size: 0x8, addend: 0x0, symName: __ZNSt15__new_allocatorI7ExpenseED2Ev, symObjAddr: 0x5288, symBinAddr: 0x1000079B0, symSize: 0x14 }
  - { offsetInCU: 0x3FDF4, offset: 0x3FDF4, size: 0x8, addend: 0x0, symName: __ZNSt10_HashtableINSt7__cxx1112basic_stringIcSt11char_traitsIcESaIcEEESt4pairIKS5_4UserESaIS9_ENSt8__detail10_Select1stESt8equal_toIS5_ESt4hashIS5_ENSB_18_Mod_range_hashingENSB_20_Default_ranged_hashENSB_20_Prime_rehash_policyENSB_17_Hashtable_traitsILb1ELb0ELb1EEEE21_M_deallocate_bucketsEv, symObjAddr: 0x5228, symBinAddr: 0x100007950, symSize: 0x34 }
  - { offsetInCU: 0x3FDFC, offset: 0x3FDFC, size: 0x8, addend: 0x0, symName: __ZNSt12_Vector_baseI7ExpenseSaIS0_EE17_Vector_impl_dataC2Ev, symObjAddr: 0x525C, symBinAddr: 0x100007984, symSize: 0x2C }
  - { offsetInCU: 0x3FE24, offset: 0x3FE24, size: 0x8, addend: 0x0, symName: __ZNSt10_HashtableINSt7__cxx1112basic_stringIcSt11char_traitsIcESaIcEEESt4pairIKS5_4UserESaIS9_ENSt8__detail10_Select1stESt8equal_toIS5_ESt4hashIS5_ENSB_18_Mod_range_hashingENSB_20_Default_ranged_hashENSB_20_Prime_rehash_policyENSB_17_Hashtable_traitsILb1ELb0ELb1EEEE5clearEv, symObjAddr: 0x51C4, symBinAddr: 0x1000078EC, symSize: 0x64 }
  - { offsetInCU: 0x3FE2C, offset: 0x3FE2C, size: 0x8, addend: 0x0, symName: __ZNSt10_HashtableINSt7__cxx1112basic_stringIcSt11char_traitsIcESaIcEEESt4pairIKS5_4UserESaIS9_ENSt8__detail10_Select1stESt8equal_toIS5_ESt4hashIS5_ENSB_18_Mod_range_hashingENSB_20_Default_ranged_hashENSB_20_Prime_rehash_policyENSB_17_Hashtable_traitsILb1ELb0ELb1EEEE21_M_deallocate_bucketsEv, symObjAddr: 0x5228, symBinAddr: 0x100007950, symSize: 0x34 }
  - { offsetInCU: 0x3FEFA, offset: 0x3FEFA, size: 0x8, addend: 0x0, symName: __ZNSt15__new_allocatorINSt8__detail10_Hash_nodeISt4pairIKNSt7__cxx1112basic_stringIcSt11char_traitsIcESaIcEEE4UserELb1EEEED2Ev, symObjAddr: 0x51B0, symBinAddr: 0x1000078D8, symSize: 0x14 }
  - { offsetInCU: 0x3FF02, offset: 0x3FF02, size: 0x8, addend: 0x0, symName: __ZNSt10_HashtableINSt7__cxx1112basic_stringIcSt11char_traitsIcESaIcEEESt4pairIKS5_4UserESaIS9_ENSt8__detail10_Select1stESt8equal_toIS5_ESt4hashIS5_ENSB_18_Mod_range_hashingENSB_20_Default_ranged_hashENSB_20_Prime_rehash_policyENSB_17_Hashtable_traitsILb1ELb0ELb1EEEE5clearEv, symObjAddr: 0x51C4, symBinAddr: 0x1000078EC, symSize: 0x64 }
  - { offsetInCU: 0x3FEC4, offset: 0x3FEC4, size: 0x8, addend: 0x0, symName: __ZNSt8_Rb_treeINSt7__cxx1112basic_stringIcSt11char_traitsIcESaIcEEESt4pairIKS5_St3mapIS5_iSt4lessIS5_ESaIS6_IS7_iEEEESt10_Select1stISE_ESA_SaISE_EE4findERS7_, symObjAddr: 0x5100, symBinAddr: 0x100007828, symSize: 0xB0 }
  - { offsetInCU: 0x3FECC, offset: 0x3FECC, size: 0x8, addend: 0x0, symName: __ZNSt15__new_allocatorINSt8__detail10_Hash_nodeISt4pairIKNSt7__cxx1112basic_stringIcSt11char_traitsIcESaIcEEE4UserELb1EEEED2Ev, symObjAddr: 0x51B0, symBinAddr: 0x1000078D8, symSize: 0x14 }
  - { offsetInCU: 0x3FF1D, offset: 0x3FF1D, size: 0x8, addend: 0x0, symName: __ZNSt13_Rb_tree_nodeISt4pairIKNSt7__cxx1112basic_stringIcSt11char_traitsIcESaIcEEEiEE9_M_valptrEv, symObjAddr: 0x50E0, symBinAddr: 0x100007808, symSize: 0x20 }
  - { offsetInCU: 0x3FF25, offset: 0x3FF25, size: 0x8, addend: 0x0, symName: __ZNSt8_Rb_treeINSt7__cxx1112basic_stringIcSt11char_traitsIcESaIcEEESt4pairIKS5_St3mapIS5_iSt4lessIS5_ESaIS6_IS7_iEEEESt10_Select1stISE_ESA_SaISE_EE4findERS7_, symObjAddr: 0x5100, symBinAddr: 0x100007828, symSize: 0xB0 }
  - { offsetInCU: 0x3FF4D, offset: 0x3FF4D, size: 0x8, addend: 0x0, symName: __ZNSt8_Rb_treeINSt7__cxx1112basic_stringIcSt11char_traitsIcESaIcEEESt4pairIKS5_iESt10_Select1stIS8_ESt4lessIS5_ESaIS8_EE3endEv, symObjAddr: 0x50B8, symBinAddr: 0x1000077E0, symSize: 0x28 }
  - { offsetInCU: 0x3FF55, offset: 0x3FF55, size: 0x8, addend: 0x0, symName: __ZNSt13_Rb_tree_nodeISt4pairIKNSt7__cxx1112basic_stringIcSt11char_traitsIcESaIcEEEiEE9_M_valptrEv, symObjAddr: 0x50E0, symBinAddr: 0x100007808, symSize: 0x20 }
  - { offsetInCU: 0x3FF7D, offset: 0x3FF7D, size: 0x8, addend: 0x0, symName: __ZNSt8_Rb_treeINSt7__cxx1112basic_stringIcSt11char_traitsIcESaIcEEESt4pairIKS5_iESt10_Select1stIS8_ESt4lessIS5_ESaIS8_EE5beginEv, symObjAddr: 0x5090, symBinAddr: 0x1000077B8, symSize: 0x28 }
  - { offsetInCU: 0x3FF85, offset: 0x3FF85, size: 0x8, addend: 0x0, symName: __ZNSt8_Rb_treeINSt7__cxx1112basic_stringIcSt11char_traitsIcESaIcEEESt4pairIKS5_iESt10_Select1stIS8_ESt4lessIS5_ESaIS8_EE3endEv, symObjAddr: 0x50B8, symBinAddr: 0x1000077E0, symSize: 0x28 }
  - { offsetInCU: 0x3FFAD, offset: 0x3FFAD, size: 0x8, addend: 0x0, symName: __ZNSt8_Rb_treeINSt7__cxx1112basic_stringIcSt11char_traitsIcESaIcEEESt4pairIKS5_iESt10_Select1stIS8_ESt4lessIS5_ESaIS8_EE8_M_beginEv, symObjAddr: 0x5074, symBinAddr: 0x10000779C, symSize: 0x1C }
  - { offsetInCU: 0x3FFB5, offset: 0x3FFB5, size: 0x8, addend: 0x0, symName: __ZNSt8_Rb_treeINSt7__cxx1112basic_stringIcSt11char_traitsIcESaIcEEESt4pairIKS5_iESt10_Select1stIS8_ESt4lessIS5_ESaIS8_EE5beginEv, symObjAddr: 0x5090, symBinAddr: 0x1000077B8, symSize: 0x28 }
  - { offsetInCU: 0x3FFDD, offset: 0x3FFDD, size: 0x8, addend: 0x0, symName: __ZNSt8_Rb_treeINSt7__cxx1112basic_stringIcSt11char_traitsIcESaIcEEESt4pairIKS5_iESt10_Select1stIS8_ESt4lessIS5_ESaIS8_EE8_M_eraseEPSt13_Rb_tree_nodeIS8_E, symObjAddr: 0x5010, symBinAddr: 0x100007738, symSize: 0x64 }
  - { offsetInCU: 0x3FFE5, offset: 0x3FFE5, size: 0x8, addend: 0x0, symName: __ZNSt8_Rb_treeINSt7__cxx1112basic_stringIcSt11char_traitsIcESaIcEEESt4pairIKS5_iESt10_Select1stIS8_ESt4lessIS5_ESaIS8_EE8_M_beginEv, symObjAddr: 0x5074, symBinAddr: 0x10000779C, symSize: 0x1C }
  - { offsetInCU: 0x40049, offset: 0x40049, size: 0x8, addend: 0x0, symName: __ZNSt8_Rb_treeINSt7__cxx1112basic_stringIcSt11char_traitsIcESaIcEEESt4pairIKS5_iESt10_Select1stIS8_ESt4lessIS5_ESaIS8_EE7_M_copyERKSE_, symObjAddr: 0x4FD8, symBinAddr: 0x100007700, symSize: 0x38 }
  - { offsetInCU: 0x40051, offset: 0x40051, size: 0x8, addend: 0x0, symName: __ZNSt8_Rb_treeINSt7__cxx1112basic_stringIcSt11char_traitsIcESaIcEEESt4pairIKS5_iESt10_Select1stIS8_ESt4lessIS5_ESaIS8_EE8_M_eraseEPSt13_Rb_tree_nodeIS8_E, symObjAddr: 0x5010, symBinAddr: 0x100007738, symSize: 0x64 }
  - { offsetInCU: 0x400A2, offset: 0x400A2, size: 0x8, addend: 0x0, symName: __ZNSt8_Rb_treeINSt7__cxx1112basic_stringIcSt11char_traitsIcESaIcEEESt4pairIKS5_iESt10_Select1stIS8_ESt4lessIS5_ESaIS8_EE7_M_rootEv, symObjAddr: 0x4FC0, symBinAddr: 0x1000076E8, symSize: 0x18 }
  - { offsetInCU: 0x400AA, offset: 0x400AA, size: 0x8, addend: 0x0, symName: __ZNSt8_Rb_treeINSt7__cxx1112basic_stringIcSt11char_traitsIcESaIcEEESt4pairIKS5_iESt10_Select1stIS8_ESt4lessIS5_ESaIS8_EE7_M_copyERKSE_, symObjAddr: 0x4FD8, symBinAddr: 0x100007700, symSize: 0x38 }
  - { offsetInCU: 0x400D2, offset: 0x400D2, size: 0x8, addend: 0x0, symName: __ZNKSt8_Rb_treeINSt7__cxx1112basic_stringIcSt11char_traitsIcESaIcEEESt4pairIKS5_iESt10_Select1stIS8_ESt4lessIS5_ESaIS8_EE7_M_rootEv, symObjAddr: 0x4FA8, symBinAddr: 0x1000076D0, symSize: 0x18 }
  - { offsetInCU: 0x400DA, offset: 0x400DA, size: 0x8, addend: 0x0, symName: __ZNSt8_Rb_treeINSt7__cxx1112basic_stringIcSt11char_traitsIcESaIcEEESt4pairIKS5_iESt10_Select1stIS8_ESt4lessIS5_ESaIS8_EE7_M_rootEv, symObjAddr: 0x4FC0, symBinAddr: 0x1000076E8, symSize: 0x18 }
  - { offsetInCU: 0x401ED, offset: 0x401ED, size: 0x8, addend: 0x0, symName: __ZNSt8_Rb_treeINSt7__cxx1112basic_stringIcSt11char_traitsIcESaIcEEESt4pairIKS5_iESt10_Select1stIS8_ESt4lessIS5_ESaIS8_EE13_Rb_tree_implISC_Lb1EEC1ERKSG_, symObjAddr: 0x4F08, symBinAddr: 0x100007630, symSize: 0xA0 }
  - { offsetInCU: 0x401F5, offset: 0x401F5, size: 0x8, addend: 0x0, symName: __ZNKSt8_Rb_treeINSt7__cxx1112basic_stringIcSt11char_traitsIcESaIcEEESt4pairIKS5_iESt10_Select1stIS8_ESt4lessIS5_ESaIS8_EE7_M_rootEv, symObjAddr: 0x4FA8, symBinAddr: 0x1000076D0, symSize: 0x18 }
  - { offsetInCU: 0x402DA, offset: 0x402DA, size: 0x8, addend: 0x0, symName: __ZNSt13_Rb_tree_nodeISt4pairIKNSt7__cxx1112basic_stringIcSt11char_traitsIcESaIcEEESt3mapIS6_iSt4lessIS6_ESaIS0_IS7_iEEEEE9_M_valptrEv, symObjAddr: 0x4EE8, symBinAddr: 0x100007610, symSize: 0x20 }
  - { offsetInCU: 0x402E2, offset: 0x402E2, size: 0x8, addend: 0x0, symName: __ZNSt8_Rb_treeINSt7__cxx1112basic_stringIcSt11char_traitsIcESaIcEEESt4pairIKS5_iESt10_Select1stIS8_ESt4lessIS5_ESaIS8_EE13_Rb_tree_implISC_Lb1EEC1ERKSG_, symObjAddr: 0x4F08, symBinAddr: 0x100007630, symSize: 0xA0 }
  - { offsetInCU: 0x4030A, offset: 0x4030A, size: 0x8, addend: 0x0, symName: __ZNSt8_Rb_treeINSt7__cxx1112basic_stringIcSt11char_traitsIcESaIcEEESt4pairIKS5_St3mapIS5_iSt4lessIS5_ESaIS6_IS7_iEEEESt10_Select1stISE_ESA_SaISE_EE3endEv, symObjAddr: 0x4EC0, symBinAddr: 0x1000075E8, symSize: 0x28 }
  - { offsetInCU: 0x40312, offset: 0x40312, size: 0x8, addend: 0x0, symName: __ZNSt13_Rb_tree_nodeISt4pairIKNSt7__cxx1112basic_stringIcSt11char_traitsIcESaIcEEESt3mapIS6_iSt4lessIS6_ESaIS0_IS7_iEEEEE9_M_valptrEv, symObjAddr: 0x4EE8, symBinAddr: 0x100007610, symSize: 0x20 }
  - { offsetInCU: 0x4033A, offset: 0x4033A, size: 0x8, addend: 0x0, symName: __ZNSt8_Rb_treeINSt7__cxx1112basic_stringIcSt11char_traitsIcESaIcEEESt4pairIKS5_St3mapIS5_iSt4lessIS5_ESaIS6_IS7_iEEEESt10_Select1stISE_ESA_SaISE_EE5beginEv, symObjAddr: 0x4E98, symBinAddr: 0x1000075C0, symSize: 0x28 }
  - { offsetInCU: 0x40342, offset: 0x40342, size: 0x8, addend: 0x0, symName: __ZNSt8_Rb_treeINSt7__cxx1112basic_stringIcSt11char_traitsIcESaIcEEESt4pairIKS5_St3mapIS5_iSt4lessIS5_ESaIS6_IS7_iEEEESt10_Select1stISE_ESA_SaISE_EE3endEv, symObjAddr: 0x4EC0, symBinAddr: 0x1000075E8, symSize: 0x28 }
  - { offsetInCU: 0x4036A, offset: 0x4036A, size: 0x8, addend: 0x0, symName: __ZNKSt8_Rb_treeINSt7__cxx1112basic_stringIcSt11char_traitsIcESaIcEEESt4pairIKS5_St3mapIS5_iSt4lessIS5_ESaIS6_IS7_iEEEESt10_Select1stISE_ESA_SaISE_EE4sizeEv, symObjAddr: 0x4E80, symBinAddr: 0x1000075A8, symSize: 0x18 }
  - { offsetInCU: 0x40372, offset: 0x40372, size: 0x8, addend: 0x0, symName: __ZNSt8_Rb_treeINSt7__cxx1112basic_stringIcSt11char_traitsIcESaIcEEESt4pairIKS5_St3mapIS5_iSt4lessIS5_ESaIS6_IS7_iEEEESt10_Select1stISE_ESA_SaISE_EE5beginEv, symObjAddr: 0x4E98, symBinAddr: 0x1000075C0, symSize: 0x28 }
  - { offsetInCU: 0x4039A, offset: 0x4039A, size: 0x8, addend: 0x0, symName: __ZNSt8_Rb_treeINSt7__cxx1112basic_stringIcSt11char_traitsIcESaIcEEESt4pairIKS5_iESt10_Select1stIS8_ESt4lessIS5_ESaIS8_EE22_M_emplace_hint_uniqueIJRKSt21piecewise_construct_tSt5tupleIJRS7_EESJ_IJEEEEESt17_Rb_tree_iteratorIS8_ESt23_Rb_tree_const_iteratorIS8_EDpOT_, symObjAddr: 0x4DA8, symBinAddr: 0x1000074D0, symSize: 0xD8 }
  - { offsetInCU: 0x403A2, offset: 0x403A2, size: 0x8, addend: 0x0, symName: __ZNKSt8_Rb_treeINSt7__cxx1112basic_stringIcSt11char_traitsIcESaIcEEESt4pairIKS5_St3mapIS5_iSt4lessIS5_ESaIS6_IS7_iEEEESt10_Select1stISE_ESA_SaISE_EE4sizeEv, symObjAddr: 0x4E80, symBinAddr: 0x1000075A8, symSize: 0x18 }
  - { offsetInCU: 0x40504, offset: 0x40504, size: 0x8, addend: 0x0, symName: __ZNSt23_Rb_tree_const_iteratorISt4pairIKNSt7__cxx1112basic_stringIcSt11char_traitsIcESaIcEEEiEEC1ERKSt17_Rb_tree_iteratorIS8_E, symObjAddr: 0x4D80, symBinAddr: 0x1000074A8, symSize: 0x28 }
  - { offsetInCU: 0x4050C, offset: 0x4050C, size: 0x8, addend: 0x0, symName: __ZNSt8_Rb_treeINSt7__cxx1112basic_stringIcSt11char_traitsIcESaIcEEESt4pairIKS5_iESt10_Select1stIS8_ESt4lessIS5_ESaIS8_EE22_M_emplace_hint_uniqueIJRKSt21piecewise_construct_tSt5tupleIJRS7_EESJ_IJEEEEESt17_Rb_tree_iteratorIS8_ESt23_Rb_tree_const_iteratorIS8_EDpOT_, symObjAddr: 0x4DA8, symBinAddr: 0x1000074D0, symSize: 0xD8 }
  - { offsetInCU: 0x404C2, offset: 0x404C2, size: 0x8, addend: 0x0, symName: __ZNKSt3mapINSt7__cxx1112basic_stringIcSt11char_traitsIcESaIcEEEiSt4lessIS5_ESaISt4pairIKS5_iEEE8key_compEv, symObjAddr: 0x4D54, symBinAddr: 0x10000747C, symSize: 0x2C }
  - { offsetInCU: 0x404CA, offset: 0x404CA, size: 0x8, addend: 0x0, symName: __ZNSt23_Rb_tree_const_iteratorISt4pairIKNSt7__cxx1112basic_stringIcSt11char_traitsIcESaIcEEEiEEC1ERKSt17_Rb_tree_iteratorIS8_E, symObjAddr: 0x4D80, symBinAddr: 0x1000074A8, symSize: 0x28 }
  - { offsetInCU: 0x4055D, offset: 0x4055D, size: 0x8, addend: 0x0, symName: __ZSteqRKSt17_Rb_tree_iteratorISt4pairIKNSt7__cxx1112basic_stringIcSt11char_traitsIcESaIcEEEiEESB_, symObjAddr: 0x4D24, symBinAddr: 0x10000744C, symSize: 0x30 }
  - { offsetInCU: 0x40565, offset: 0x40565, size: 0x8, addend: 0x0, symName: __ZNKSt3mapINSt7__cxx1112basic_stringIcSt11char_traitsIcESaIcEEEiSt4lessIS5_ESaISt4pairIKS5_iEEE8key_compEv, symObjAddr: 0x4D54, symBinAddr: 0x10000747C, symSize: 0x2C }
  - { offsetInCU: 0x40550, offset: 0x40550, size: 0x8, addend: 0x0, symName: __ZNSt3mapINSt7__cxx1112basic_stringIcSt11char_traitsIcESaIcEEEiSt4lessIS5_ESaISt4pairIKS5_iEEE11lower_boundERS9_, symObjAddr: 0x4D00, symBinAddr: 0x100007428, symSize: 0x24 }
  - { offsetInCU: 0x40558, offset: 0x40558, size: 0x8, addend: 0x0, symName: __ZSteqRKSt17_Rb_tree_iteratorISt4pairIKNSt7__cxx1112basic_stringIcSt11char_traitsIcESaIcEEEiEESB_, symObjAddr: 0x4D24, symBinAddr: 0x10000744C, symSize: 0x30 }
  - { offsetInCU: 0x40594, offset: 0x40594, size: 0x8, addend: 0x0, symName: __ZNSt8_Rb_treeINSt7__cxx1112basic_stringIcSt11char_traitsIcESaIcEEESt4pairIKS5_St3mapIS5_iSt4lessIS5_ESaIS6_IS7_iEEEESt10_Select1stISE_ESA_SaISE_EE22_M_emplace_hint_uniqueIJRKSt21piecewise_construct_tSt5tupleIJRS7_EESN_IJEEEEESt17_Rb_tree_iteratorISE_ESt23_Rb_tree_const_iteratorISE_EDpOT_, symObjAddr: 0x4C28, symBinAddr: 0x100007350, symSize: 0xD8 }
  - { offsetInCU: 0x4059C, offset: 0x4059C, size: 0x8, addend: 0x0, symName: __ZNSt3mapINSt7__cxx1112basic_stringIcSt11char_traitsIcESaIcEEEiSt4lessIS5_ESaISt4pairIKS5_iEEE11lower_boundERS9_, symObjAddr: 0x4D00, symBinAddr: 0x100007428, symSize: 0x24 }
  - { offsetInCU: 0x40722, offset: 0x40722, size: 0x8, addend: 0x0, symName: __ZNSt23_Rb_tree_const_iteratorISt4pairIKNSt7__cxx1112basic_stringIcSt11char_traitsIcESaIcEEESt3mapIS6_iSt4lessIS6_ESaIS0_IS7_iEEEEEC1ERKSt17_Rb_tree_iteratorISE_E, symObjAddr: 0x4C00, symBinAddr: 0x100007328, symSize: 0x28 }
  - { offsetInCU: 0x4072A, offset: 0x4072A, size: 0x8, addend: 0x0, symName: __ZNSt8_Rb_treeINSt7__cxx1112basic_stringIcSt11char_traitsIcESaIcEEESt4pairIKS5_St3mapIS5_iSt4lessIS5_ESaIS6_IS7_iEEEESt10_Select1stISE_ESA_SaISE_EE22_M_emplace_hint_uniqueIJRKSt21piecewise_construct_tSt5tupleIJRS7_EESN_IJEEEEESt17_Rb_tree_iteratorISE_ESt23_Rb_tree_const_iteratorISE_EDpOT_, symObjAddr: 0x4C28, symBinAddr: 0x100007350, symSize: 0xD8 }
  - { offsetInCU: 0x4074C, offset: 0x4074C, size: 0x8, addend: 0x0, symName: __ZNSt5tupleIJRKNSt7__cxx1112basic_stringIcSt11char_traitsIcESaIcEEEEEC1ILb1ELb1EEES7_, symObjAddr: 0x4BD8, symBinAddr: 0x100007300, symSize: 0x28 }
  - { offsetInCU: 0x40754, offset: 0x40754, size: 0x8, addend: 0x0, symName: __ZNSt23_Rb_tree_const_iteratorISt4pairIKNSt7__cxx1112basic_stringIcSt11char_traitsIcESaIcEEESt3mapIS6_iSt4lessIS6_ESaIS0_IS7_iEEEEEC1ERKSt17_Rb_tree_iteratorISE_E, symObjAddr: 0x4C00, symBinAddr: 0x100007328, symSize: 0x28 }
  - { offsetInCU: 0x40742, offset: 0x40742, size: 0x8, addend: 0x0, symName: __ZNKSt4lessINSt7__cxx1112basic_stringIcSt11char_traitsIcESaIcEEEEclERKS5_S8_, symObjAddr: 0x4BAC, symBinAddr: 0x1000072D4, symSize: 0x2C }
  - { offsetInCU: 0x4074A, offset: 0x4074A, size: 0x8, addend: 0x0, symName: __ZNSt5tupleIJRKNSt7__cxx1112basic_stringIcSt11char_traitsIcESaIcEEEEEC1ILb1ELb1EEES7_, symObjAddr: 0x4BD8, symBinAddr: 0x100007300, symSize: 0x28 }
  - { offsetInCU: 0x4079A, offset: 0x4079A, size: 0x8, addend: 0x0, symName: __ZNKSt3mapINSt7__cxx1112basic_stringIcSt11char_traitsIcESaIcEEES_IS5_iSt4lessIS5_ESaISt4pairIKS5_iEEES7_SaIS8_IS9_SC_EEE8key_compEv, symObjAddr: 0x4B80, symBinAddr: 0x1000072A8, symSize: 0x2C }
  - { offsetInCU: 0x407A2, offset: 0x407A2, size: 0x8, addend: 0x0, symName: __ZNKSt4lessINSt7__cxx1112basic_stringIcSt11char_traitsIcESaIcEEEEclERKS5_S8_, symObjAddr: 0x4BAC, symBinAddr: 0x1000072D4, symSize: 0x2C }
  - { offsetInCU: 0x407CA, offset: 0x407CA, size: 0x8, addend: 0x0, symName: __ZNSt3mapINSt7__cxx1112basic_stringIcSt11char_traitsIcESaIcEEES_IS5_iSt4lessIS5_ESaISt4pairIKS5_iEEES7_SaIS8_IS9_SC_EEE11lower_boundERS9_, symObjAddr: 0x4B5C, symBinAddr: 0x100007284, symSize: 0x24 }
  - { offsetInCU: 0x407D2, offset: 0x407D2, size: 0x8, addend: 0x0, symName: __ZNKSt3mapINSt7__cxx1112basic_stringIcSt11char_traitsIcESaIcEEES_IS5_iSt4lessIS5_ESaISt4pairIKS5_iEEES7_SaIS8_IS9_SC_EEE8key_compEv, symObjAddr: 0x4B80, symBinAddr: 0x1000072A8, symSize: 0x2C }
  - { offsetInCU: 0x4080E, offset: 0x4080E, size: 0x8, addend: 0x0, symName: __ZNSt6vectorI7ExpenseSaIS0_EE17_M_realloc_insertIJRKS0_EEEvN9__gnu_cxx17__normal_iteratorIPS0_S2_EEDpOT_, symObjAddr: 0x4870, symBinAddr: 0x100006F98, symSize: 0x2EC }
  - { offsetInCU: 0x40816, offset: 0x40816, size: 0x8, addend: 0x0, symName: __ZNSt3mapINSt7__cxx1112basic_stringIcSt11char_traitsIcESaIcEEES_IS5_iSt4lessIS5_ESaISt4pairIKS5_iEEES7_SaIS8_IS9_SC_EEE11lower_boundERS9_, symObjAddr: 0x4B5C, symBinAddr: 0x100007284, symSize: 0x24 }
  - { offsetInCU: 0x40A31, offset: 0x40A31, size: 0x8, addend: 0x0, symName: __ZNSt6vectorI7ExpenseSaIS0_EE3endEv, symObjAddr: 0x4848, symBinAddr: 0x100006F70, symSize: 0x28 }
  - { offsetInCU: 0x40A39, offset: 0x40A39, size: 0x8, addend: 0x0, symName: __ZNSt6vectorI7ExpenseSaIS0_EE17_M_realloc_insertIJRKS0_EEEvN9__gnu_cxx17__normal_iteratorIPS0_S2_EEDpOT_, symObjAddr: 0x4870, symBinAddr: 0x100006F98, symSize: 0x2EC }
  - { offsetInCU: 0x40B9A, offset: 0x40B9A, size: 0x8, addend: 0x0, symName: __ZSt22__uninitialized_copy_aIN9__gnu_cxx17__normal_iteratorIPK4UserSt6vectorIS2_SaIS2_EEEEPS2_S2_ET0_T_SB_SA_RSaIT1_E, symObjAddr: 0x4818, symBinAddr: 0x100006F40, symSize: 0x30 }
  - { offsetInCU: 0x40BA2, offset: 0x40BA2, size: 0x8, addend: 0x0, symName: __ZNSt6vectorI7ExpenseSaIS0_EE3endEv, symObjAddr: 0x4848, symBinAddr: 0x100006F70, symSize: 0x28 }
  - { offsetInCU: 0x40BC0, offset: 0x40BC0, size: 0x8, addend: 0x0, symName: __ZNSt12_Vector_baseI4UserSaIS0_EEC2EmRKS1_, symObjAddr: 0x47C4, symBinAddr: 0x100006EEC, symSize: 0x54 }
  - { offsetInCU: 0x40BC8, offset: 0x40BC8, size: 0x8, addend: 0x0, symName: __ZSt22__uninitialized_copy_aIN9__gnu_cxx17__normal_iteratorIPK4UserSt6vectorIS2_SaIS2_EEEEPS2_S2_ET0_T_SB_SA_RSaIT1_E, symObjAddr: 0x4818, symBinAddr: 0x100006F40, symSize: 0x30 }
  - { offsetInCU: 0x40C69, offset: 0x40C69, size: 0x8, addend: 0x0, symName: __ZSt22__uninitialized_copy_aIPdS0_dET0_T_S2_S1_RSaIT1_E, symObjAddr: 0x4794, symBinAddr: 0x100006EBC, symSize: 0x30 }
  - { offsetInCU: 0x40C71, offset: 0x40C71, size: 0x8, addend: 0x0, symName: __ZNSt12_Vector_baseI4UserSaIS0_EEC2EmRKS1_, symObjAddr: 0x47C4, symBinAddr: 0x100006EEC, symSize: 0x54 }
  - { offsetInCU: 0x40CCF, offset: 0x40CCF, size: 0x8, addend: 0x0, symName: __ZSt4copyIPdS0_ET0_T_S2_S1_, symObjAddr: 0x474C, symBinAddr: 0x100006E74, symSize: 0x48 }
  - { offsetInCU: 0x40CD7, offset: 0x40CD7, size: 0x8, addend: 0x0, symName: __ZSt22__uninitialized_copy_aIPdS0_dET0_T_S2_S1_RSaIT1_E, symObjAddr: 0x4794, symBinAddr: 0x100006EBC, symSize: 0x30 }
  - { offsetInCU: 0x40D71, offset: 0x40D71, size: 0x8, addend: 0x0, symName: __ZNSt6vectorIdSaIdEE3endEv, symObjAddr: 0x4724, symBinAddr: 0x100006E4C, symSize: 0x28 }
  - { offsetInCU: 0x40D79, offset: 0x40D79, size: 0x8, addend: 0x0, symName: __ZSt4copyIPdS0_ET0_T_S2_S1_, symObjAddr: 0x474C, symBinAddr: 0x100006E74, symSize: 0x48 }
  - { offsetInCU: 0x40E84, offset: 0x40E84, size: 0x8, addend: 0x0, symName: __ZSt4copyIN9__gnu_cxx17__normal_iteratorIPKdSt6vectorIdSaIdEEEENS1_IPdS6_EEET0_T_SB_SA_, symObjAddr: 0x46DC, symBinAddr: 0x100006E04, symSize: 0x48 }
  - { offsetInCU: 0x40E8C, offset: 0x40E8C, size: 0x8, addend: 0x0, symName: __ZNSt6vectorIdSaIdEE3endEv, symObjAddr: 0x4724, symBinAddr: 0x100006E4C, symSize: 0x28 }
  - { offsetInCU: 0x40E23, offset: 0x40E23, size: 0x8, addend: 0x0, symName: __ZNSt6vectorIdSaIdEE5beginEv, symObjAddr: 0x46B8, symBinAddr: 0x100006DE0, symSize: 0x24 }
  - { offsetInCU: 0x40E2B, offset: 0x40E2B, size: 0x8, addend: 0x0, symName: __ZSt4copyIN9__gnu_cxx17__normal_iteratorIPKdSt6vectorIdSaIdEEEENS1_IPdS6_EEET0_T_SB_SA_, symObjAddr: 0x46DC, symBinAddr: 0x100006E04, symSize: 0x48 }
  - { offsetInCU: 0x40E53, offset: 0x40E53, size: 0x8, addend: 0x0, symName: __ZNSt6vectorIdSaIdEE20_M_allocate_and_copyIN9__gnu_cxx17__normal_iteratorIPKdS1_EEEEPdmT_S9_, symObjAddr: 0x4634, symBinAddr: 0x100006D5C, symSize: 0x84 }
  - { offsetInCU: 0x40E5B, offset: 0x40E5B, size: 0x8, addend: 0x0, symName: __ZNSt6vectorIdSaIdEE5beginEv, symObjAddr: 0x46B8, symBinAddr: 0x100006DE0, symSize: 0x24 }
  - { offsetInCU: 0x40EE1, offset: 0x40EE1, size: 0x8, addend: 0x0, symName: __ZNKSt6vectorIdSaIdEE3endEv, symObjAddr: 0x460C, symBinAddr: 0x100006D34, symSize: 0x28 }
  - { offsetInCU: 0x40EE9, offset: 0x40EE9, size: 0x8, addend: 0x0, symName: __ZNSt6vectorIdSaIdEE20_M_allocate_and_copyIN9__gnu_cxx17__normal_iteratorIPKdS1_EEEEPdmT_S9_, symObjAddr: 0x4634, symBinAddr: 0x100006D5C, symSize: 0x84 }
  - { offsetInCU: 0x40F11, offset: 0x40F11, size: 0x8, addend: 0x0, symName: __ZNKSt6vectorIdSaIdEE5beginEv, symObjAddr: 0x45E8, symBinAddr: 0x100006D10, symSize: 0x24 }
  - { offsetInCU: 0x40F19, offset: 0x40F19, size: 0x8, addend: 0x0, symName: __ZNKSt6vectorIdSaIdEE3endEv, symObjAddr: 0x460C, symBinAddr: 0x100006D34, symSize: 0x28 }
  - { offsetInCU: 0x40F41, offset: 0x40F41, size: 0x8, addend: 0x0, symName: __ZNKSt6vectorIdSaIdEE8capacityEv, symObjAddr: 0x45C0, symBinAddr: 0x100006CE8, symSize: 0x28 }
  - { offsetInCU: 0x40F49, offset: 0x40F49, size: 0x8, addend: 0x0, symName: __ZNKSt6vectorIdSaIdEE5beginEv, symObjAddr: 0x45E8, symBinAddr: 0x100006D10, symSize: 0x24 }
  - { offsetInCU: 0x40F71, offset: 0x40F71, size: 0x8, addend: 0x0, symName: __ZNKSt6vectorIdSaIdEE4sizeEv, symObjAddr: 0x4598, symBinAddr: 0x100006CC0, symSize: 0x28 }
  - { offsetInCU: 0x40F79, offset: 0x40F79, size: 0x8, addend: 0x0, symName: __ZNKSt6vectorIdSaIdEE8capacityEv, symObjAddr: 0x45C0, symBinAddr: 0x100006CE8, symSize: 0x28 }
  - { offsetInCU: 0x4100D, offset: 0x4100D, size: 0x8, addend: 0x0, symName: __ZNKSt12_Vector_baseIdSaIdEE19_M_get_Tp_allocatorEv, symObjAddr: 0x4584, symBinAddr: 0x100006CAC, symSize: 0x14 }
  - { offsetInCU: 0x41015, offset: 0x41015, size: 0x8, addend: 0x0, symName: __ZNKSt6vectorIdSaIdEE4sizeEv, symObjAddr: 0x4598, symBinAddr: 0x100006CC0, symSize: 0x28 }
  - { offsetInCU: 0x41096, offset: 0x41096, size: 0x8, addend: 0x0, symName: __ZSt11__addressofIKSt6vectorIdSaIdEEEPT_RS4_, symObjAddr: 0x4570, symBinAddr: 0x100006C98, symSize: 0x14 }
  - { offsetInCU: 0x4109E, offset: 0x4109E, size: 0x8, addend: 0x0, symName: __ZNKSt12_Vector_baseIdSaIdEE19_M_get_Tp_allocatorEv, symObjAddr: 0x4584, symBinAddr: 0x100006CAC, symSize: 0x14 }
  - { offsetInCU: 0x41088, offset: 0x41088, size: 0x8, addend: 0x0, symName: __ZNSt6vectorIdSaIdEE15_M_erase_at_endEPd, symObjAddr: 0x44E8, symBinAddr: 0x100006C10, symSize: 0x88 }
  - { offsetInCU: 0x41090, offset: 0x41090, size: 0x8, addend: 0x0, symName: __ZSt11__addressofIKSt6vectorIdSaIdEEEPT_RS4_, symObjAddr: 0x4570, symBinAddr: 0x100006C98, symSize: 0x14 }
  - { offsetInCU: 0x411A4, offset: 0x411A4, size: 0x8, addend: 0x0, symName: __ZSt22__uninitialized_copy_aIP4UserS1_S0_ET0_T_S3_S2_RSaIT1_E, symObjAddr: 0x44B8, symBinAddr: 0x100006BE0, symSize: 0x30 }
  - { offsetInCU: 0x411AC, offset: 0x411AC, size: 0x8, addend: 0x0, symName: __ZNSt6vectorIdSaIdEE15_M_erase_at_endEPd, symObjAddr: 0x44E8, symBinAddr: 0x100006C10, symSize: 0x88 }
  - { offsetInCU: 0x4120A, offset: 0x4120A, size: 0x8, addend: 0x0, symName: __ZSt4copyIP4UserS1_ET0_T_S3_S2_, symObjAddr: 0x4470, symBinAddr: 0x100006B98, symSize: 0x48 }
  - { offsetInCU: 0x41212, offset: 0x41212, size: 0x8, addend: 0x0, symName: __ZSt22__uninitialized_copy_aIP4UserS1_S0_ET0_T_S3_S2_RSaIT1_E, symObjAddr: 0x44B8, symBinAddr: 0x100006BE0, symSize: 0x30 }
  - { offsetInCU: 0x412AC, offset: 0x412AC, size: 0x8, addend: 0x0, symName: __ZNSt6vectorI4UserSaIS0_EE3endEv, symObjAddr: 0x4448, symBinAddr: 0x100006B70, symSize: 0x28 }
  - { offsetInCU: 0x412B4, offset: 0x412B4, size: 0x8, addend: 0x0, symName: __ZSt4copyIP4UserS1_ET0_T_S3_S2_, symObjAddr: 0x4470, symBinAddr: 0x100006B98, symSize: 0x48 }
  - { offsetInCU: 0x413C1, offset: 0x413C1, size: 0x8, addend: 0x0, symName: __ZSt4copyIN9__gnu_cxx17__normal_iteratorIPK4UserSt6vectorIS2_SaIS2_EEEENS1_IPS2_S7_EEET0_T_SC_SB_, symObjAddr: 0x4400, symBinAddr: 0x100006B28, symSize: 0x48 }
  - { offsetInCU: 0x413C9, offset: 0x413C9, size: 0x8, addend: 0x0, symName: __ZNSt6vectorI4UserSaIS0_EE3endEv, symObjAddr: 0x4448, symBinAddr: 0x100006B70, symSize: 0x28 }
  - { offsetInCU: 0x4135E, offset: 0x4135E, size: 0x8, addend: 0x0, symName: __ZNSt6vectorI4UserSaIS0_EE5beginEv, symObjAddr: 0x43DC, symBinAddr: 0x100006B04, symSize: 0x24 }
  - { offsetInCU: 0x41366, offset: 0x41366, size: 0x8, addend: 0x0, symName: __ZSt4copyIN9__gnu_cxx17__normal_iteratorIPK4UserSt6vectorIS2_SaIS2_EEEENS1_IPS2_S7_EEET0_T_SC_SB_, symObjAddr: 0x4400, symBinAddr: 0x100006B28, symSize: 0x48 }
  - { offsetInCU: 0x4138E, offset: 0x4138E, size: 0x8, addend: 0x0, symName: __ZNSt6vectorI4UserSaIS0_EE20_M_allocate_and_copyIN9__gnu_cxx17__normal_iteratorIPKS0_S2_EEEEPS0_mT_SA_, symObjAddr: 0x4358, symBinAddr: 0x100006A80, symSize: 0x84 }
  - { offsetInCU: 0x41396, offset: 0x41396, size: 0x8, addend: 0x0, symName: __ZNSt6vectorI4UserSaIS0_EE5beginEv, symObjAddr: 0x43DC, symBinAddr: 0x100006B04, symSize: 0x24 }
  - { offsetInCU: 0x4141C, offset: 0x4141C, size: 0x8, addend: 0x0, symName: __ZNKSt6vectorI4UserSaIS0_EE3endEv, symObjAddr: 0x4330, symBinAddr: 0x100006A58, symSize: 0x28 }
  - { offsetInCU: 0x41424, offset: 0x41424, size: 0x8, addend: 0x0, symName: __ZNSt6vectorI4UserSaIS0_EE20_M_allocate_and_copyIN9__gnu_cxx17__normal_iteratorIPKS0_S2_EEEEPS0_mT_SA_, symObjAddr: 0x4358, symBinAddr: 0x100006A80, symSize: 0x84 }
  - { offsetInCU: 0x4144C, offset: 0x4144C, size: 0x8, addend: 0x0, symName: __ZNKSt6vectorI4UserSaIS0_EE5beginEv, symObjAddr: 0x430C, symBinAddr: 0x100006A34, symSize: 0x24 }
  - { offsetInCU: 0x41454, offset: 0x41454, size: 0x8, addend: 0x0, symName: __ZNKSt6vectorI4UserSaIS0_EE3endEv, symObjAddr: 0x4330, symBinAddr: 0x100006A58, symSize: 0x28 }
  - { offsetInCU: 0x4147C, offset: 0x4147C, size: 0x8, addend: 0x0, symName: __ZNKSt6vectorI4UserSaIS0_EE8capacityEv, symObjAddr: 0x42D0, symBinAddr: 0x1000069F8, symSize: 0x3C }
  - { offsetInCU: 0x41484, offset: 0x41484, size: 0x8, addend: 0x0, symName: __ZNKSt6vectorI4UserSaIS0_EE5beginEv, symObjAddr: 0x430C, symBinAddr: 0x100006A34, symSize: 0x24 }
  - { offsetInCU: 0x414EE, offset: 0x414EE, size: 0x8, addend: 0x0, symName: __ZNSt6vectorI4UserSaIS0_EE5clearEv, symObjAddr: 0x42A4, symBinAddr: 0x1000069CC, symSize: 0x2C }
  - { offsetInCU: 0x414F6, offset: 0x414F6, size: 0x8, addend: 0x0, symName: __ZNKSt6vectorI4UserSaIS0_EE8capacityEv, symObjAddr: 0x42D0, symBinAddr: 0x1000069F8, symSize: 0x3C }
  - { offsetInCU: 0x41548, offset: 0x41548, size: 0x8, addend: 0x0, symName: __ZNKSt12_Vector_baseI4UserSaIS0_EE19_M_get_Tp_allocatorEv, symObjAddr: 0x4290, symBinAddr: 0x1000069B8, symSize: 0x14 }
  - { offsetInCU: 0x41550, offset: 0x41550, size: 0x8, addend: 0x0, symName: __ZNSt6vectorI4UserSaIS0_EE5clearEv, symObjAddr: 0x42A4, symBinAddr: 0x1000069CC, symSize: 0x2C }
  - { offsetInCU: 0x415D5, offset: 0x415D5, size: 0x8, addend: 0x0, symName: __ZSt11__addressofIKSt6vectorI4UserSaIS1_EEEPT_RS5_, symObjAddr: 0x427C, symBinAddr: 0x1000069A4, symSize: 0x14 }
  - { offsetInCU: 0x415DD, offset: 0x415DD, size: 0x8, addend: 0x0, symName: __ZNKSt12_Vector_baseI4UserSaIS0_EE19_M_get_Tp_allocatorEv, symObjAddr: 0x4290, symBinAddr: 0x1000069B8, symSize: 0x14 }
  - { offsetInCU: 0x4161B, offset: 0x4161B, size: 0x8, addend: 0x0, symName: __ZNSt12_Vector_baseIdSaIdEE19_M_get_Tp_allocatorEv, symObjAddr: 0x4268, symBinAddr: 0x100006990, symSize: 0x14 }
  - { offsetInCU: 0x41623, offset: 0x41623, size: 0x8, addend: 0x0, symName: __ZSt11__addressofIKSt6vectorI4UserSaIS1_EEEPT_RS5_, symObjAddr: 0x427C, symBinAddr: 0x1000069A4, symSize: 0x14 }
  - { offsetInCU: 0x4164B, offset: 0x4164B, size: 0x8, addend: 0x0, symName: __ZNSt12_Vector_baseIdSaIdEE13_M_deallocateEPdm, symObjAddr: 0x4210, symBinAddr: 0x100006938, symSize: 0x58 }
  - { offsetInCU: 0x41653, offset: 0x41653, size: 0x8, addend: 0x0, symName: __ZNSt12_Vector_baseIdSaIdEE19_M_get_Tp_allocatorEv, symObjAddr: 0x4268, symBinAddr: 0x100006990, symSize: 0x14 }
  - { offsetInCU: 0x4172A, offset: 0x4172A, size: 0x8, addend: 0x0, symName: __ZNSt15__new_allocatorIdED2Ev, symObjAddr: 0x41FC, symBinAddr: 0x100006924, symSize: 0x14 }
  - { offsetInCU: 0x41732, offset: 0x41732, size: 0x8, addend: 0x0, symName: __ZNSt12_Vector_baseIdSaIdEE13_M_deallocateEPdm, symObjAddr: 0x4210, symBinAddr: 0x100006938, symSize: 0x58 }
  - { offsetInCU: 0x41788, offset: 0x41788, size: 0x8, addend: 0x0, symName: __ZNSt12_Vector_baseIdSaIdEE17_Vector_impl_dataC2Ev, symObjAddr: 0x41D0, symBinAddr: 0x1000068F8, symSize: 0x2C }
  - { offsetInCU: 0x41790, offset: 0x41790, size: 0x8, addend: 0x0, symName: __ZNSt15__new_allocatorIdED2Ev, symObjAddr: 0x41FC, symBinAddr: 0x100006924, symSize: 0x14 }
  - { offsetInCU: 0x417F6, offset: 0x417F6, size: 0x8, addend: 0x0, symName: __ZNSt12_Vector_baseI4UserSaIS0_EE19_M_get_Tp_allocatorEv, symObjAddr: 0x41BC, symBinAddr: 0x1000068E4, symSize: 0x14 }
  - { offsetInCU: 0x417FE, offset: 0x417FE, size: 0x8, addend: 0x0, symName: __ZNSt12_Vector_baseIdSaIdEE17_Vector_impl_dataC2Ev, symObjAddr: 0x41D0, symBinAddr: 0x1000068F8, symSize: 0x2C }
  - { offsetInCU: 0x41826, offset: 0x41826, size: 0x8, addend: 0x0, symName: __ZNSt12_Vector_baseI4UserSaIS0_EE13_M_deallocateEPS0_m, symObjAddr: 0x4164, symBinAddr: 0x10000688C, symSize: 0x58 }
  - { offsetInCU: 0x4182E, offset: 0x4182E, size: 0x8, addend: 0x0, symName: __ZNSt12_Vector_baseI4UserSaIS0_EE19_M_get_Tp_allocatorEv, symObjAddr: 0x41BC, symBinAddr: 0x1000068E4, symSize: 0x14 }
  - { offsetInCU: 0x41909, offset: 0x41909, size: 0x8, addend: 0x0, symName: __ZNSt15__new_allocatorI4UserED2Ev, symObjAddr: 0x4150, symBinAddr: 0x100006878, symSize: 0x14 }
  - { offsetInCU: 0x41911, offset: 0x41911, size: 0x8, addend: 0x0, symName: __ZNSt12_Vector_baseI4UserSaIS0_EE13_M_deallocateEPS0_m, symObjAddr: 0x4164, symBinAddr: 0x10000688C, symSize: 0x58 }
  - { offsetInCU: 0x41969, offset: 0x41969, size: 0x8, addend: 0x0, symName: __ZNSt12_Vector_baseI4UserSaIS0_EE17_Vector_impl_dataC2Ev, symObjAddr: 0x4124, symBinAddr: 0x10000684C, symSize: 0x2C }
  - { offsetInCU: 0x41971, offset: 0x41971, size: 0x8, addend: 0x0, symName: __ZNSt15__new_allocatorI4UserED2Ev, symObjAddr: 0x4150, symBinAddr: 0x100006878, symSize: 0x14 }
  - { offsetInCU: 0x41979, offset: 0x41979, size: 0x8, addend: 0x0, symName: __ZNSt6vectorINSt7__cxx1112basic_stringIcSt11char_traitsIcESaIcEEESaIS5_EE17_M_realloc_insertIJRKS5_EEEvN9__gnu_cxx17__normal_iteratorIPS5_S7_EEDpOT_, symObjAddr: 0x3E94, symBinAddr: 0x1000065BC, symSize: 0x290 }
  - { offsetInCU: 0x41981, offset: 0x41981, size: 0x8, addend: 0x0, symName: __ZNSt12_Vector_baseI4UserSaIS0_EE17_Vector_impl_dataC2Ev, symObjAddr: 0x4124, symBinAddr: 0x10000684C, symSize: 0x2C }
  - { offsetInCU: 0x41B9C, offset: 0x41B9C, size: 0x8, addend: 0x0, symName: __ZNSt6vectorINSt7__cxx1112basic_stringIcSt11char_traitsIcESaIcEEESaIS5_EE3endEv, symObjAddr: 0x3E6C, symBinAddr: 0x100006594, symSize: 0x28 }
  - { offsetInCU: 0x41BA4, offset: 0x41BA4, size: 0x8, addend: 0x0, symName: __ZNSt6vectorINSt7__cxx1112basic_stringIcSt11char_traitsIcESaIcEEESaIS5_EE17_M_realloc_insertIJRKS5_EEEvN9__gnu_cxx17__normal_iteratorIPS5_S7_EEDpOT_, symObjAddr: 0x3E94, symBinAddr: 0x1000065BC, symSize: 0x290 }
  - { offsetInCU: 0x41C7F, offset: 0x41C7F, size: 0x8, addend: 0x0, symName: __ZNSt12_Vector_baseINSt7__cxx1112basic_stringIcSt11char_traitsIcESaIcEEESaIS5_EE19_M_get_Tp_allocatorEv, symObjAddr: 0x3E58, symBinAddr: 0x100006580, symSize: 0x14 }
  - { offsetInCU: 0x41C87, offset: 0x41C87, size: 0x8, addend: 0x0, symName: __ZNSt6vectorINSt7__cxx1112basic_stringIcSt11char_traitsIcESaIcEEESaIS5_EE3endEv, symObjAddr: 0x3E6C, symBinAddr: 0x100006594, symSize: 0x28 }
  - { offsetInCU: 0x41CAF, offset: 0x41CAF, size: 0x8, addend: 0x0, symName: __ZNSt12_Vector_baseINSt7__cxx1112basic_stringIcSt11char_traitsIcESaIcEEESaIS5_EE13_M_deallocateEPS5_m, symObjAddr: 0x3E00, symBinAddr: 0x100006528, symSize: 0x58 }
  - { offsetInCU: 0x41CB7, offset: 0x41CB7, size: 0x8, addend: 0x0, symName: __ZNSt12_Vector_baseINSt7__cxx1112basic_stringIcSt11char_traitsIcESaIcEEESaIS5_EE19_M_get_Tp_allocatorEv, symObjAddr: 0x3E58, symBinAddr: 0x100006580, symSize: 0x14 }
  - { offsetInCU: 0x41DC1, offset: 0x41DC1, size: 0x8, addend: 0x0, symName: __ZNSt15__new_allocatorINSt7__cxx1112basic_stringIcSt11char_traitsIcESaIcEEEED2Ev, symObjAddr: 0x3DEC, symBinAddr: 0x100006514, symSize: 0x14 }
  - { offsetInCU: 0x41DC9, offset: 0x41DC9, size: 0x8, addend: 0x0, symName: __ZNSt12_Vector_baseINSt7__cxx1112basic_stringIcSt11char_traitsIcESaIcEEESaIS5_EE13_M_deallocateEPS5_m, symObjAddr: 0x3E00, symBinAddr: 0x100006528, symSize: 0x58 }
  - { offsetInCU: 0x41E21, offset: 0x41E21, size: 0x8, addend: 0x0, symName: __ZNSt12_Vector_baseINSt7__cxx1112basic_stringIcSt11char_traitsIcESaIcEEESaIS5_EE17_Vector_impl_dataC2Ev, symObjAddr: 0x3DC0, symBinAddr: 0x1000064E8, symSize: 0x2C }
  - { offsetInCU: 0x41E29, offset: 0x41E29, size: 0x8, addend: 0x0, symName: __ZNSt15__new_allocatorINSt7__cxx1112basic_stringIcSt11char_traitsIcESaIcEEEED2Ev, symObjAddr: 0x3DEC, symBinAddr: 0x100006514, symSize: 0x14 }
  - { offsetInCU: 0x41E84, offset: 0x41E84, size: 0x8, addend: 0x0, symName: __ZSt11__addressofINSt7__cxx1112basic_stringIcSt11char_traitsIcESaIcEEEEPT_RS6_, symObjAddr: 0x3DAC, symBinAddr: 0x1000064D4, symSize: 0x14 }
  - { offsetInCU: 0x41E8C, offset: 0x41E8C, size: 0x8, addend: 0x0, symName: __ZNSt12_Vector_baseINSt7__cxx1112basic_stringIcSt11char_traitsIcESaIcEEESaIS5_EE17_Vector_impl_dataC2Ev, symObjAddr: 0x3DC0, symBinAddr: 0x1000064E8, symSize: 0x2C }
  - { offsetInCU: 0x41E66, offset: 0x41E66, size: 0x8, addend: 0x0, symName: __ZNSt7__cxx1112basic_stringIcSt11char_traitsIcESaIcEE12_M_constructIPKcEEvT_S8_St20forward_iterator_tag, symObjAddr: 0x3CC4, symBinAddr: 0x1000063EC, symSize: 0xE8 }
  - { offsetInCU: 0x41E6E, offset: 0x41E6E, size: 0x8, addend: 0x0, symName: __ZSt11__addressofINSt7__cxx1112basic_stringIcSt11char_traitsIcESaIcEEEEPT_RS6_, symObjAddr: 0x3DAC, symBinAddr: 0x1000064D4, symSize: 0x14 }
  - { offsetInCU: 0x42022, offset: 0x42022, size: 0x8, addend: 0x0, symName: __ZZNSt7__cxx1112basic_stringIcSt11char_traitsIcESaIcEE12_M_constructIPKcEEvT_S8_St20forward_iterator_tagEN6_GuardC1EPS4_, symObjAddr: 0x3C6C, symBinAddr: 0x100006394, symSize: 0x24 }
  - { offsetInCU: 0x4202A, offset: 0x4202A, size: 0x8, addend: 0x0, symName: __ZZNSt7__cxx1112basic_stringIcSt11char_traitsIcESaIcEE12_M_constructIPKcEEvT_S8_St20forward_iterator_tagEN6_GuardD1Ev, symObjAddr: 0x3C90, symBinAddr: 0x1000063B8, symSize: 0x34 }
  - { offsetInCU: 0x4205D, offset: 0x4205D, size: 0x8, addend: 0x0, symName: __ZZNSt7__cxx1112basic_stringIcSt11char_traitsIcESaIcEE12_M_constructIPKcEEvT_S8_St20forward_iterator_tagEN6_GuardD1Ev, symObjAddr: 0x3C90, symBinAddr: 0x1000063B8, symSize: 0x34 }
  - { offsetInCU: 0x42065, offset: 0x42065, size: 0x8, addend: 0x0, symName: __ZNSt7__cxx1112basic_stringIcSt11char_traitsIcESaIcEE12_M_constructIPKcEEvT_S8_St20forward_iterator_tag, symObjAddr: 0x3CC4, symBinAddr: 0x1000063EC, symSize: 0xE8 }
  - { offsetInCU: 0x42134, offset: 0x42134, size: 0x8, addend: 0x0, symName: __ZNSt15__new_allocatorIcED2Ev, symObjAddr: 0x3C58, symBinAddr: 0x100006380, symSize: 0x14 }
  - { offsetInCU: 0x4213C, offset: 0x4213C, size: 0x8, addend: 0x0, symName: __ZZNSt7__cxx1112basic_stringIcSt11char_traitsIcESaIcEE12_M_constructIPKcEEvT_S8_St20forward_iterator_tagEN6_GuardC1EPS4_, symObjAddr: 0x3C6C, symBinAddr: 0x100006394, symSize: 0x24 }
  - { offsetInCU: 0x4215F, offset: 0x4215F, size: 0x8, addend: 0x0, symName: __ZN9__gnu_cxx11char_traitsIcE2eqERKcS3_, symObjAddr: 0x3C28, symBinAddr: 0x100006350, symSize: 0x30 }
  - { offsetInCU: 0x42167, offset: 0x42167, size: 0x8, addend: 0x0, symName: __ZNSt15__new_allocatorIcED2Ev, symObjAddr: 0x3C58, symBinAddr: 0x100006380, symSize: 0x14 }
  - { offsetInCU: 0x421EB, offset: 0x421EB, size: 0x8, addend: 0x0, symName: __ZNSt6vectorIdSaIdEEC1ERKS1_, symObjAddr: 0x3B14, symBinAddr: 0x10000623C, symSize: 0x114 }
  - { offsetInCU: 0x421F3, offset: 0x421F3, size: 0x8, addend: 0x0, symName: __ZN9__gnu_cxx11char_traitsIcE2eqERKcS3_, symObjAddr: 0x3C28, symBinAddr: 0x100006350, symSize: 0x30 }
  - { offsetInCU: 0x42311, offset: 0x42311, size: 0x8, addend: 0x0, symName: __ZNSt6vectorIdSaIdEE9push_backERKd, symObjAddr: 0x3A40, symBinAddr: 0x100006168, symSize: 0xD4 }
  - { offsetInCU: 0x42319, offset: 0x42319, size: 0x8, addend: 0x0, symName: __ZNSt6vectorIdSaIdEEC1ERKS1_, symObjAddr: 0x3B14, symBinAddr: 0x10000623C, symSize: 0x114 }
  - { offsetInCU: 0x4242F, offset: 0x4242F, size: 0x8, addend: 0x0, symName: __ZStneIcSt11char_traitsIcESaIcEEbRKNSt7__cxx1112basic_stringIT_T0_T1_EEPKS5_, symObjAddr: 0x3A10, symBinAddr: 0x100006138, symSize: 0x30 }
  - { offsetInCU: 0x42437, offset: 0x42437, size: 0x8, addend: 0x0, symName: __ZNSt6vectorIdSaIdEE9push_backERKd, symObjAddr: 0x3A40, symBinAddr: 0x100006168, symSize: 0xD4 }
  - { offsetInCU: 0x42454, offset: 0x42454, size: 0x8, addend: 0x0, symName: __ZNSt6vectorI4UserSaIS0_EE9push_backERKS0_, symObjAddr: 0x3908, symBinAddr: 0x100006030, symSize: 0x108 }
  - { offsetInCU: 0x4245C, offset: 0x4245C, size: 0x8, addend: 0x0, symName: __ZStneIcSt11char_traitsIcESaIcEEbRKNSt7__cxx1112basic_stringIT_T0_T1_EEPKS5_, symObjAddr: 0x3A10, symBinAddr: 0x100006138, symSize: 0x30 }
  - { offsetInCU: 0x4251C, offset: 0x4251C, size: 0x8, addend: 0x0, symName: __ZNSt13unordered_mapINSt7__cxx1112basic_stringIcSt11char_traitsIcESaIcEEE4UserSt4hashIS5_ESt8equal_toIS5_ESaISt4pairIKS5_S6_EEEixERSC_, symObjAddr: 0x38E4, symBinAddr: 0x10000600C, symSize: 0x24 }
  - { offsetInCU: 0x42524, offset: 0x42524, size: 0x8, addend: 0x0, symName: __ZNSt6vectorI4UserSaIS0_EE9push_backERKS0_, symObjAddr: 0x3908, symBinAddr: 0x100006030, symSize: 0x108 }
  - { offsetInCU: 0x425E2, offset: 0x425E2, size: 0x8, addend: 0x0, symName: __ZNSt8__detaileqERKNS_19_Node_iterator_baseISt4pairIKNSt7__cxx1112basic_stringIcSt11char_traitsIcESaIcEEE4UserELb1EEESD_, symObjAddr: 0x38B4, symBinAddr: 0x100005FDC, symSize: 0x30 }
  - { offsetInCU: 0x425EA, offset: 0x425EA, size: 0x8, addend: 0x0, symName: __ZNSt13unordered_mapINSt7__cxx1112basic_stringIcSt11char_traitsIcESaIcEEE4UserSt4hashIS5_ESt8equal_toIS5_ESaISt4pairIKS5_S6_EEEixERSC_, symObjAddr: 0x38E4, symBinAddr: 0x10000600C, symSize: 0x24 }
  - { offsetInCU: 0x425B4, offset: 0x425B4, size: 0x8, addend: 0x0, symName: __ZNSt13unordered_mapINSt7__cxx1112basic_stringIcSt11char_traitsIcESaIcEEE4UserSt4hashIS5_ESt8equal_toIS5_ESaISt4pairIKS5_S6_EEE3endEv, symObjAddr: 0x3898, symBinAddr: 0x100005FC0, symSize: 0x1C }
  - { offsetInCU: 0x425BC, offset: 0x425BC, size: 0x8, addend: 0x0, symName: __ZNSt8__detaileqERKNS_19_Node_iterator_baseISt4pairIKNSt7__cxx1112basic_stringIcSt11char_traitsIcESaIcEEE4UserELb1EEESD_, symObjAddr: 0x38B4, symBinAddr: 0x100005FDC, symSize: 0x30 }
  - { offsetInCU: 0x425E4, offset: 0x425E4, size: 0x8, addend: 0x0, symName: __ZNSt13unordered_mapINSt7__cxx1112basic_stringIcSt11char_traitsIcESaIcEEE4UserSt4hashIS5_ESt8equal_toIS5_ESaISt4pairIKS5_S6_EEE4findERSC_, symObjAddr: 0x3874, symBinAddr: 0x100005F9C, symSize: 0x24 }
  - { offsetInCU: 0x425EC, offset: 0x425EC, size: 0x8, addend: 0x0, symName: __ZNSt13unordered_mapINSt7__cxx1112basic_stringIcSt11char_traitsIcESaIcEEE4UserSt4hashIS5_ESt8equal_toIS5_ESaISt4pairIKS5_S6_EEE3endEv, symObjAddr: 0x3898, symBinAddr: 0x100005FC0, symSize: 0x1C }
  - { offsetInCU: 0x42628, offset: 0x42628, size: 0x8, addend: 0x0, symName: __ZNSt6vectorINSt7__cxx1112basic_stringIcSt11char_traitsIcESaIcEEESaIS5_EEixEm, symObjAddr: 0x384C, symBinAddr: 0x100005F74, symSize: 0x28 }
  - { offsetInCU: 0x42630, offset: 0x42630, size: 0x8, addend: 0x0, symName: __ZNSt13unordered_mapINSt7__cxx1112basic_stringIcSt11char_traitsIcESaIcEEE4UserSt4hashIS5_ESt8equal_toIS5_ESaISt4pairIKS5_S6_EEE4findERSC_, symObjAddr: 0x3874, symBinAddr: 0x100005F9C, symSize: 0x24 }
  - { offsetInCU: 0x4272B, offset: 0x4272B, size: 0x8, addend: 0x0, symName: __ZNSt8_Rb_treeINSt7__cxx1112basic_stringIcSt11char_traitsIcESaIcEEESt4pairIKS5_St3mapIS5_iSt4lessIS5_ESaIS6_IS7_iEEEESt10_Select1stISE_ESA_SaISE_EED1Ev, symObjAddr: 0x3818, symBinAddr: 0x100005F40, symSize: 0x34 }
  - { offsetInCU: 0x42733, offset: 0x42733, size: 0x8, addend: 0x0, symName: __ZNSt6vectorINSt7__cxx1112basic_stringIcSt11char_traitsIcESaIcEEESaIS5_EEixEm, symObjAddr: 0x384C, symBinAddr: 0x100005F74, symSize: 0x28 }
  - { offsetInCU: 0x427B3, offset: 0x427B3, size: 0x8, addend: 0x0, symName: __ZNSt8_Rb_treeINSt7__cxx1112basic_stringIcSt11char_traitsIcESaIcEEESt4pairIKS5_St3mapIS5_iSt4lessIS5_ESaIS6_IS7_iEEEESt10_Select1stISE_ESA_SaISE_EE13_Rb_tree_implISA_Lb1EEC1Ev, symObjAddr: 0x37D4, symBinAddr: 0x100005EFC, symSize: 0x44 }
  - { offsetInCU: 0x427BB, offset: 0x427BB, size: 0x8, addend: 0x0, symName: __ZNSt8_Rb_treeINSt7__cxx1112basic_stringIcSt11char_traitsIcESaIcEEESt4pairIKS5_St3mapIS5_iSt4lessIS5_ESaIS6_IS7_iEEEESt10_Select1stISE_ESA_SaISE_EED1Ev, symObjAddr: 0x3818, symBinAddr: 0x100005F40, symSize: 0x34 }
  - { offsetInCU: 0x427CC, offset: 0x427CC, size: 0x8, addend: 0x0, symName: __ZNSt6vectorI7ExpenseSaIS0_EED1Ev, symObjAddr: 0x3778, symBinAddr: 0x100005EA0, symSize: 0x5C }
  - { offsetInCU: 0x427D4, offset: 0x427D4, size: 0x8, addend: 0x0, symName: __ZNSt8_Rb_treeINSt7__cxx1112basic_stringIcSt11char_traitsIcESaIcEEESt4pairIKS5_St3mapIS5_iSt4lessIS5_ESaIS6_IS7_iEEEESt10_Select1stISE_ESA_SaISE_EE13_Rb_tree_implISA_Lb1EEC1Ev, symObjAddr: 0x37D4, symBinAddr: 0x100005EFC, symSize: 0x44 }
  - { offsetInCU: 0x4286C, offset: 0x4286C, size: 0x8, addend: 0x0, symName: __ZNSt12_Vector_baseI7ExpenseSaIS0_EED2Ev, symObjAddr: 0x3714, symBinAddr: 0x100005E3C, symSize: 0x64 }
  - { offsetInCU: 0x42874, offset: 0x42874, size: 0x8, addend: 0x0, symName: __ZNSt6vectorI7ExpenseSaIS0_EED1Ev, symObjAddr: 0x3778, symBinAddr: 0x100005EA0, symSize: 0x5C }
  - { offsetInCU: 0x428EA, offset: 0x428EA, size: 0x8, addend: 0x0, symName: __ZNSt12_Vector_baseI7ExpenseSaIS0_EE12_Vector_implC1Ev, symObjAddr: 0x36DC, symBinAddr: 0x100005E04, symSize: 0x38 }
  - { offsetInCU: 0x428F2, offset: 0x428F2, size: 0x8, addend: 0x0, symName: __ZNSt12_Vector_baseI7ExpenseSaIS0_EED2Ev, symObjAddr: 0x3714, symBinAddr: 0x100005E3C, symSize: 0x64 }
  - { offsetInCU: 0x42A69, offset: 0x42A69, size: 0x8, addend: 0x0, symName: __ZNSt10_HashtableINSt7__cxx1112basic_stringIcSt11char_traitsIcESaIcEEESt4pairIKS5_4UserESaIS9_ENSt8__detail10_Select1stESt8equal_toIS5_ESt4hashIS5_ENSB_18_Mod_range_hashingENSB_20_Default_ranged_hashENSB_20_Prime_rehash_policyENSB_17_Hashtable_traitsILb1ELb0ELb1EEEED1Ev, symObjAddr: 0x36AC, symBinAddr: 0x100005DD4, symSize: 0x30 }
  - { offsetInCU: 0x42A71, offset: 0x42A71, size: 0x8, addend: 0x0, symName: __ZNSt12_Vector_baseI7ExpenseSaIS0_EE12_Vector_implC1Ev, symObjAddr: 0x36DC, symBinAddr: 0x100005E04, symSize: 0x38 }
  - { offsetInCU: 0x42A5B, offset: 0x42A5B, size: 0x8, addend: 0x0, symName: __ZNSt8__detail21_Hashtable_ebo_helperILi0ESaINS_10_Hash_nodeISt4pairIKNSt7__cxx1112basic_stringIcSt11char_traitsIcESaIcEEE4UserELb1EEEELb1EEC2Ev, symObjAddr: 0x3680, symBinAddr: 0x100005DA8, symSize: 0x2C }
  - { offsetInCU: 0x42A63, offset: 0x42A63, size: 0x8, addend: 0x0, symName: __ZNSt10_HashtableINSt7__cxx1112basic_stringIcSt11char_traitsIcESaIcEEESt4pairIKS5_4UserESaIS9_ENSt8__detail10_Select1stESt8equal_toIS5_ESt4hashIS5_ENSB_18_Mod_range_hashingENSB_20_Default_ranged_hashENSB_20_Prime_rehash_policyENSB_17_Hashtable_traitsILb1ELb0ELb1EEEED1Ev, symObjAddr: 0x36AC, symBinAddr: 0x100005DD4, symSize: 0x30 }
  - { offsetInCU: 0x42AD8, offset: 0x42AD8, size: 0x8, addend: 0x0, symName: __ZNSt8__detail21_Hashtable_ebo_helperILi0ESt8equal_toINSt7__cxx1112basic_stringIcSt11char_traitsIcESaIcEEEELb1EEC2Ev, symObjAddr: 0x366C, symBinAddr: 0x100005D94, symSize: 0x14 }
  - { offsetInCU: 0x42AE0, offset: 0x42AE0, size: 0x8, addend: 0x0, symName: __ZNSt8__detail21_Hashtable_ebo_helperILi0ESaINS_10_Hash_nodeISt4pairIKNSt7__cxx1112basic_stringIcSt11char_traitsIcESaIcEEE4UserELb1EEEELb1EEC2Ev, symObjAddr: 0x3680, symBinAddr: 0x100005DA8, symSize: 0x2C }
  - { offsetInCU: 0x42B1D, offset: 0x42B1D, size: 0x8, addend: 0x0, symName: __ZNSt8__detail21_Hashtable_ebo_helperILi1ESt4hashINSt7__cxx1112basic_stringIcSt11char_traitsIcESaIcEEEELb1EEC2Ev, symObjAddr: 0x3658, symBinAddr: 0x100005D80, symSize: 0x14 }
  - { offsetInCU: 0x42B25, offset: 0x42B25, size: 0x8, addend: 0x0, symName: __ZNSt8__detail21_Hashtable_ebo_helperILi0ESt8equal_toINSt7__cxx1112basic_stringIcSt11char_traitsIcESaIcEEEELb1EEC2Ev, symObjAddr: 0x366C, symBinAddr: 0x100005D94, symSize: 0x14 }
  - { offsetInCU: 0x42B30, offset: 0x42B30, size: 0x8, addend: 0x0, symName: __ZSteqIcSt11char_traitsIcESaIcEEbRKNSt7__cxx1112basic_stringIT_T0_T1_EESA_, symObjAddr: 0x35D8, symBinAddr: 0x100005D00, symSize: 0x80 }
  - { offsetInCU: 0x42B38, offset: 0x42B38, size: 0x8, addend: 0x0, symName: __ZNSt8__detail21_Hashtable_ebo_helperILi1ESt4hashINSt7__cxx1112basic_stringIcSt11char_traitsIcESaIcEEEELb1EEC2Ev, symObjAddr: 0x3658, symBinAddr: 0x100005D80, symSize: 0x14 }
  - { offsetInCU: 0x42BE6, offset: 0x42BE6, size: 0x8, addend: 0x0, symName: __ZSteqRKSt17_Rb_tree_iteratorISt4pairIKNSt7__cxx1112basic_stringIcSt11char_traitsIcESaIcEEESt3mapIS6_iSt4lessIS6_ESaIS0_IS7_iEEEEESH_, symObjAddr: 0x35A8, symBinAddr: 0x100005CD0, symSize: 0x30 }
  - { offsetInCU: 0x42BEE, offset: 0x42BEE, size: 0x8, addend: 0x0, symName: __ZSteqIcSt11char_traitsIcESaIcEEbRKNSt7__cxx1112basic_stringIT_T0_T1_EESA_, symObjAddr: 0x35D8, symBinAddr: 0x100005D00, symSize: 0x80 }
  - { offsetInCU: 0x42BB5, offset: 0x42BB5, size: 0x8, addend: 0x0, symName: __ZNSt3mapINSt7__cxx1112basic_stringIcSt11char_traitsIcESaIcEEES_IS5_iSt4lessIS5_ESaISt4pairIKS5_iEEES7_SaIS8_IS9_SC_EEE4findERS9_, symObjAddr: 0x3584, symBinAddr: 0x100005CAC, symSize: 0x24 }
  - { offsetInCU: 0x42BBD, offset: 0x42BBD, size: 0x8, addend: 0x0, symName: __ZSteqRKSt17_Rb_tree_iteratorISt4pairIKNSt7__cxx1112basic_stringIcSt11char_traitsIcESaIcEEESt3mapIS6_iSt4lessIS6_ESaIS0_IS7_iEEEEESH_, symObjAddr: 0x35A8, symBinAddr: 0x100005CD0, symSize: 0x30 }
  - { offsetInCU: 0x42BF9, offset: 0x42BF9, size: 0x8, addend: 0x0, symName: __ZNKSt17_Rb_tree_iteratorISt4pairIKNSt7__cxx1112basic_stringIcSt11char_traitsIcESaIcEEEiEEdeEv, symObjAddr: 0x3564, symBinAddr: 0x100005C8C, symSize: 0x20 }
  - { offsetInCU: 0x42C01, offset: 0x42C01, size: 0x8, addend: 0x0, symName: __ZNSt3mapINSt7__cxx1112basic_stringIcSt11char_traitsIcESaIcEEES_IS5_iSt4lessIS5_ESaISt4pairIKS5_iEEES7_SaIS8_IS9_SC_EEE4findERS9_, symObjAddr: 0x3584, symBinAddr: 0x100005CAC, symSize: 0x24 }
  - { offsetInCU: 0x42C29, offset: 0x42C29, size: 0x8, addend: 0x0, symName: __ZNSt17_Rb_tree_iteratorISt4pairIKNSt7__cxx1112basic_stringIcSt11char_traitsIcESaIcEEEiEEppEv, symObjAddr: 0x3534, symBinAddr: 0x100005C5C, symSize: 0x30 }
  - { offsetInCU: 0x42C31, offset: 0x42C31, size: 0x8, addend: 0x0, symName: __ZNKSt17_Rb_tree_iteratorISt4pairIKNSt7__cxx1112basic_stringIcSt11char_traitsIcESaIcEEEiEEdeEv, symObjAddr: 0x3564, symBinAddr: 0x100005C8C, symSize: 0x20 }
  - { offsetInCU: 0x42CC4, offset: 0x42CC4, size: 0x8, addend: 0x0, symName: __ZStneRKSt17_Rb_tree_iteratorISt4pairIKNSt7__cxx1112basic_stringIcSt11char_traitsIcESaIcEEEiEESB_, symObjAddr: 0x3504, symBinAddr: 0x100005C2C, symSize: 0x30 }
  - { offsetInCU: 0x42CCC, offset: 0x42CCC, size: 0x8, addend: 0x0, symName: __ZNSt17_Rb_tree_iteratorISt4pairIKNSt7__cxx1112basic_stringIcSt11char_traitsIcESaIcEEEiEEppEv, symObjAddr: 0x3534, symBinAddr: 0x100005C5C, symSize: 0x30 }
  - { offsetInCU: 0x42CAD, offset: 0x42CAD, size: 0x8, addend: 0x0, symName: __ZNSt3mapINSt7__cxx1112basic_stringIcSt11char_traitsIcESaIcEEEiSt4lessIS5_ESaISt4pairIKS5_iEEE3endEv, symObjAddr: 0x34E8, symBinAddr: 0x100005C10, symSize: 0x1C }
  - { offsetInCU: 0x42CB5, offset: 0x42CB5, size: 0x8, addend: 0x0, symName: __ZStneRKSt17_Rb_tree_iteratorISt4pairIKNSt7__cxx1112basic_stringIcSt11char_traitsIcESaIcEEEiEESB_, symObjAddr: 0x3504, symBinAddr: 0x100005C2C, symSize: 0x30 }
  - { offsetInCU: 0x42CDD, offset: 0x42CDD, size: 0x8, addend: 0x0, symName: __ZNSt3mapINSt7__cxx1112basic_stringIcSt11char_traitsIcESaIcEEEiSt4lessIS5_ESaISt4pairIKS5_iEEE5beginEv, symObjAddr: 0x34CC, symBinAddr: 0x100005BF4, symSize: 0x1C }
  - { offsetInCU: 0x42CE5, offset: 0x42CE5, size: 0x8, addend: 0x0, symName: __ZNSt3mapINSt7__cxx1112basic_stringIcSt11char_traitsIcESaIcEEEiSt4lessIS5_ESaISt4pairIKS5_iEEE3endEv, symObjAddr: 0x34E8, symBinAddr: 0x100005C10, symSize: 0x1C }
  - { offsetInCU: 0x42DB1, offset: 0x42DB1, size: 0x8, addend: 0x0, symName: __ZNSt8_Rb_treeINSt7__cxx1112basic_stringIcSt11char_traitsIcESaIcEEESt4pairIKS5_iESt10_Select1stIS8_ESt4lessIS5_ESaIS8_EED1Ev, symObjAddr: 0x3498, symBinAddr: 0x100005BC0, symSize: 0x34 }
  - { offsetInCU: 0x42DB9, offset: 0x42DB9, size: 0x8, addend: 0x0, symName: __ZNSt3mapINSt7__cxx1112basic_stringIcSt11char_traitsIcESaIcEEEiSt4lessIS5_ESaISt4pairIKS5_iEEE5beginEv, symObjAddr: 0x34CC, symBinAddr: 0x100005BF4, symSize: 0x1C }
  - { offsetInCU: 0x42E10, offset: 0x42E10, size: 0x8, addend: 0x0, symName: __ZNSt8_Rb_treeINSt7__cxx1112basic_stringIcSt11char_traitsIcESaIcEEESt4pairIKS5_iESt10_Select1stIS8_ESt4lessIS5_ESaIS8_EEC1ERKSE_, symObjAddr: 0x3414, symBinAddr: 0x100005B3C, symSize: 0x84 }
  - { offsetInCU: 0x42E18, offset: 0x42E18, size: 0x8, addend: 0x0, symName: __ZNSt8_Rb_treeINSt7__cxx1112basic_stringIcSt11char_traitsIcESaIcEEESt4pairIKS5_iESt10_Select1stIS8_ESt4lessIS5_ESaIS8_EED1Ev, symObjAddr: 0x3498, symBinAddr: 0x100005BC0, symSize: 0x34 }
  - { offsetInCU: 0x42E8D, offset: 0x42E8D, size: 0x8, addend: 0x0, symName: __ZNSt8_Rb_treeINSt7__cxx1112basic_stringIcSt11char_traitsIcESaIcEEESt4pairIKS5_iESt10_Select1stIS8_ESt4lessIS5_ESaIS8_EE13_Rb_tree_implISC_Lb1EED1Ev, symObjAddr: 0x33E8, symBinAddr: 0x100005B10, symSize: 0x2C }
  - { offsetInCU: 0x42E95, offset: 0x42E95, size: 0x8, addend: 0x0, symName: __ZNSt8_Rb_treeINSt7__cxx1112basic_stringIcSt11char_traitsIcESaIcEEESt4pairIKS5_iESt10_Select1stIS8_ESt4lessIS5_ESaIS8_EEC1ERKSE_, symObjAddr: 0x3414, symBinAddr: 0x100005B3C, symSize: 0x84 }
  - { offsetInCU: 0x42E50, offset: 0x42E50, size: 0x8, addend: 0x0, symName: __ZNKSt17_Rb_tree_iteratorISt4pairIKNSt7__cxx1112basic_stringIcSt11char_traitsIcESaIcEEESt3mapIS6_iSt4lessIS6_ESaIS0_IS7_iEEEEEdeEv, symObjAddr: 0x33C8, symBinAddr: 0x100005AF0, symSize: 0x20 }
  - { offsetInCU: 0x42E58, offset: 0x42E58, size: 0x8, addend: 0x0, symName: __ZNSt8_Rb_treeINSt7__cxx1112basic_stringIcSt11char_traitsIcESaIcEEESt4pairIKS5_iESt10_Select1stIS8_ESt4lessIS5_ESaIS8_EE13_Rb_tree_implISC_Lb1EED1Ev, symObjAddr: 0x33E8, symBinAddr: 0x100005B10, symSize: 0x2C }
  - { offsetInCU: 0x42E80, offset: 0x42E80, size: 0x8, addend: 0x0, symName: __ZNSt17_Rb_tree_iteratorISt4pairIKNSt7__cxx1112basic_stringIcSt11char_traitsIcESaIcEEESt3mapIS6_iSt4lessIS6_ESaIS0_IS7_iEEEEEppEv, symObjAddr: 0x3398, symBinAddr: 0x100005AC0, symSize: 0x30 }
  - { offsetInCU: 0x42E88, offset: 0x42E88, size: 0x8, addend: 0x0, symName: __ZNKSt17_Rb_tree_iteratorISt4pairIKNSt7__cxx1112basic_stringIcSt11char_traitsIcESaIcEEESt3mapIS6_iSt4lessIS6_ESaIS0_IS7_iEEEEEdeEv, symObjAddr: 0x33C8, symBinAddr: 0x100005AF0, symSize: 0x20 }
  - { offsetInCU: 0x42F3F, offset: 0x42F3F, size: 0x8, addend: 0x0, symName: __ZStneRKSt17_Rb_tree_iteratorISt4pairIKNSt7__cxx1112basic_stringIcSt11char_traitsIcESaIcEEESt3mapIS6_iSt4lessIS6_ESaIS0_IS7_iEEEEESH_, symObjAddr: 0x3368, symBinAddr: 0x100005A90, symSize: 0x30 }
  - { offsetInCU: 0x42F47, offset: 0x42F47, size: 0x8, addend: 0x0, symName: __ZNSt17_Rb_tree_iteratorISt4pairIKNSt7__cxx1112basic_stringIcSt11char_traitsIcESaIcEEESt3mapIS6_iSt4lessIS6_ESaIS0_IS7_iEEEEEppEv, symObjAddr: 0x3398, symBinAddr: 0x100005AC0, symSize: 0x30 }
  - { offsetInCU: 0x42F04, offset: 0x42F04, size: 0x8, addend: 0x0, symName: __ZNSt3mapINSt7__cxx1112basic_stringIcSt11char_traitsIcESaIcEEES_IS5_iSt4lessIS5_ESaISt4pairIKS5_iEEES7_SaIS8_IS9_SC_EEE3endEv, symObjAddr: 0x334C, symBinAddr: 0x100005A74, symSize: 0x1C }
  - { offsetInCU: 0x42F0C, offset: 0x42F0C, size: 0x8, addend: 0x0, symName: __ZStneRKSt17_Rb_tree_iteratorISt4pairIKNSt7__cxx1112basic_stringIcSt11char_traitsIcESaIcEEESt3mapIS6_iSt4lessIS6_ESaIS0_IS7_iEEEEESH_, symObjAddr: 0x3368, symBinAddr: 0x100005A90, symSize: 0x30 }
  - { offsetInCU: 0x42F34, offset: 0x42F34, size: 0x8, addend: 0x0, symName: __ZNSt3mapINSt7__cxx1112basic_stringIcSt11char_traitsIcESaIcEEES_IS5_iSt4lessIS5_ESaISt4pairIKS5_iEEES7_SaIS8_IS9_SC_EEE5beginEv, symObjAddr: 0x3330, symBinAddr: 0x100005A58, symSize: 0x1C }
  - { offsetInCU: 0x42F3C, offset: 0x42F3C, size: 0x8, addend: 0x0, symName: __ZNSt3mapINSt7__cxx1112basic_stringIcSt11char_traitsIcESaIcEEES_IS5_iSt4lessIS5_ESaISt4pairIKS5_iEEES7_SaIS8_IS9_SC_EEE3endEv, symObjAddr: 0x334C, symBinAddr: 0x100005A74, symSize: 0x1C }
  - { offsetInCU: 0x42F64, offset: 0x42F64, size: 0x8, addend: 0x0, symName: __ZNKSt3mapINSt7__cxx1112basic_stringIcSt11char_traitsIcESaIcEEES_IS5_iSt4lessIS5_ESaISt4pairIKS5_iEEES7_SaIS8_IS9_SC_EEE4sizeEv, symObjAddr: 0x3314, symBinAddr: 0x100005A3C, symSize: 0x1C }
  - { offsetInCU: 0x42F6C, offset: 0x42F6C, size: 0x8, addend: 0x0, symName: __ZNSt3mapINSt7__cxx1112basic_stringIcSt11char_traitsIcESaIcEEES_IS5_iSt4lessIS5_ESaISt4pairIKS5_iEEES7_SaIS8_IS9_SC_EEE5beginEv, symObjAddr: 0x3330, symBinAddr: 0x100005A58, symSize: 0x1C }
  - { offsetInCU: 0x42F94, offset: 0x42F94, size: 0x8, addend: 0x0, symName: __ZNSt6vectorIdSaIdEEixEm, symObjAddr: 0x32EC, symBinAddr: 0x100005A14, symSize: 0x28 }
  - { offsetInCU: 0x42F9C, offset: 0x42F9C, size: 0x8, addend: 0x0, symName: __ZNKSt3mapINSt7__cxx1112basic_stringIcSt11char_traitsIcESaIcEEES_IS5_iSt4lessIS5_ESaISt4pairIKS5_iEEES7_SaIS8_IS9_SC_EEE4sizeEv, symObjAddr: 0x3314, symBinAddr: 0x100005A3C, symSize: 0x1C }
  - { offsetInCU: 0x42FD8, offset: 0x42FD8, size: 0x8, addend: 0x0, symName: __ZNSt3mapINSt7__cxx1112basic_stringIcSt11char_traitsIcESaIcEEEiSt4lessIS5_ESaISt4pairIKS5_iEEEixERS9_, symObjAddr: 0x31F8, symBinAddr: 0x100005920, symSize: 0xF4 }
  - { offsetInCU: 0x42FE0, offset: 0x42FE0, size: 0x8, addend: 0x0, symName: __ZNSt6vectorIdSaIdEEixEm, symObjAddr: 0x32EC, symBinAddr: 0x100005A14, symSize: 0x28 }
  - { offsetInCU: 0x43031, offset: 0x43031, size: 0x8, addend: 0x0, symName: __ZNSt3mapINSt7__cxx1112basic_stringIcSt11char_traitsIcESaIcEEES_IS5_iSt4lessIS5_ESaISt4pairIKS5_iEEES7_SaIS8_IS9_SC_EEEixERS9_, symObjAddr: 0x3104, symBinAddr: 0x10000582C, symSize: 0xF4 }
  - { offsetInCU: 0x43039, offset: 0x43039, size: 0x8, addend: 0x0, symName: __ZNSt3mapINSt7__cxx1112basic_stringIcSt11char_traitsIcESaIcEEEiSt4lessIS5_ESaISt4pairIKS5_iEEEixERS9_, symObjAddr: 0x31F8, symBinAddr: 0x100005920, symSize: 0xF4 }
  - { offsetInCU: 0x430DE, offset: 0x430DE, size: 0x8, addend: 0x0, symName: __ZStneIcSt11char_traitsIcESaIcEEbRKNSt7__cxx1112basic_stringIT_T0_T1_EESA_, symObjAddr: 0x30D4, symBinAddr: 0x1000057FC, symSize: 0x30 }
  - { offsetInCU: 0x430E6, offset: 0x430E6, size: 0x8, addend: 0x0, symName: __ZNSt3mapINSt7__cxx1112basic_stringIcSt11char_traitsIcESaIcEEES_IS5_iSt4lessIS5_ESaISt4pairIKS5_iEEES7_SaIS8_IS9_SC_EEEixERS9_, symObjAddr: 0x3104, symBinAddr: 0x10000582C, symSize: 0xF4 }
  - { offsetInCU: 0x43105, offset: 0x43105, size: 0x8, addend: 0x0, symName: __ZNSt6vectorI4UserSaIS0_EEixEm, symObjAddr: 0x3098, symBinAddr: 0x1000057C0, symSize: 0x3C }
  - { offsetInCU: 0x4310D, offset: 0x4310D, size: 0x8, addend: 0x0, symName: __ZStneIcSt11char_traitsIcESaIcEEbRKNSt7__cxx1112basic_stringIT_T0_T1_EESA_, symObjAddr: 0x30D4, symBinAddr: 0x1000057FC, symSize: 0x30 }
  - { offsetInCU: 0x43149, offset: 0x43149, size: 0x8, addend: 0x0, symName: __ZNKSt6vectorI4UserSaIS0_EE4sizeEv, symObjAddr: 0x305C, symBinAddr: 0x100005784, symSize: 0x3C }
  - { offsetInCU: 0x43151, offset: 0x43151, size: 0x8, addend: 0x0, symName: __ZNSt6vectorI4UserSaIS0_EEixEm, symObjAddr: 0x3098, symBinAddr: 0x1000057C0, symSize: 0x3C }
  - { offsetInCU: 0x43179, offset: 0x43179, size: 0x8, addend: 0x0, symName: __ZNSt6vectorI7ExpenseSaIS0_EE9push_backERKS0_, symObjAddr: 0x2F54, symBinAddr: 0x10000567C, symSize: 0x108 }
  - { offsetInCU: 0x43181, offset: 0x43181, size: 0x8, addend: 0x0, symName: __ZNKSt6vectorI4UserSaIS0_EE4sizeEv, symObjAddr: 0x305C, symBinAddr: 0x100005784, symSize: 0x3C }
  - { offsetInCU: 0x4328F, offset: 0x4328F, size: 0x8, addend: 0x0, symName: __ZNSt6vectorI4UserSaIS0_EEC1ERKS2_, symObjAddr: 0x2E40, symBinAddr: 0x100005568, symSize: 0x114 }
  - { offsetInCU: 0x43297, offset: 0x43297, size: 0x8, addend: 0x0, symName: __ZNSt6vectorI7ExpenseSaIS0_EE9push_backERKS0_, symObjAddr: 0x2F54, symBinAddr: 0x10000567C, symSize: 0x108 }
  - { offsetInCU: 0x433AF, offset: 0x433AF, size: 0x8, addend: 0x0, symName: __ZNSt6vectorIdSaIdEEaSERKS1_, symObjAddr: 0x2AF8, symBinAddr: 0x100005220, symSize: 0x348 }
  - { offsetInCU: 0x433B7, offset: 0x433B7, size: 0x8, addend: 0x0, symName: __ZNSt6vectorI4UserSaIS0_EEC1ERKS2_, symObjAddr: 0x2E40, symBinAddr: 0x100005568, symSize: 0x114 }
  - { offsetInCU: 0x4357C, offset: 0x4357C, size: 0x8, addend: 0x0, symName: __ZNSt6vectorIdSaIdEE5clearEv, symObjAddr: 0x2ACC, symBinAddr: 0x1000051F4, symSize: 0x2C }
  - { offsetInCU: 0x43584, offset: 0x43584, size: 0x8, addend: 0x0, symName: __ZNSt6vectorIdSaIdEEaSERKS1_, symObjAddr: 0x2AF8, symBinAddr: 0x100005220, symSize: 0x348 }
  - { offsetInCU: 0x435AC, offset: 0x435AC, size: 0x8, addend: 0x0, symName: __ZNSt6vectorI4UserSaIS0_EEaSERKS2_, symObjAddr: 0x2704, symBinAddr: 0x100004E2C, symSize: 0x3C8 }
  - { offsetInCU: 0x435B4, offset: 0x435B4, size: 0x8, addend: 0x0, symName: __ZNSt6vectorIdSaIdEE5clearEv, symObjAddr: 0x2ACC, symBinAddr: 0x1000051F4, symSize: 0x2C }
  - { offsetInCU: 0x437B9, offset: 0x437B9, size: 0x8, addend: 0x0, symName: __ZNSt6vectorIdSaIdEED1Ev, symObjAddr: 0x26A8, symBinAddr: 0x100004DD0, symSize: 0x5C }
  - { offsetInCU: 0x437C1, offset: 0x437C1, size: 0x8, addend: 0x0, symName: __ZNSt6vectorI4UserSaIS0_EEaSERKS2_, symObjAddr: 0x2704, symBinAddr: 0x100004E2C, symSize: 0x3C8 }
  - { offsetInCU: 0x43859, offset: 0x43859, size: 0x8, addend: 0x0, symName: __ZNSt12_Vector_baseIdSaIdEED2Ev, symObjAddr: 0x2658, symBinAddr: 0x100004D80, symSize: 0x50 }
  - { offsetInCU: 0x43861, offset: 0x43861, size: 0x8, addend: 0x0, symName: __ZNSt6vectorIdSaIdEED1Ev, symObjAddr: 0x26A8, symBinAddr: 0x100004DD0, symSize: 0x5C }
  - { offsetInCU: 0x438D7, offset: 0x438D7, size: 0x8, addend: 0x0, symName: __ZNSt12_Vector_baseIdSaIdEE12_Vector_implC1Ev, symObjAddr: 0x2620, symBinAddr: 0x100004D48, symSize: 0x38 }
  - { offsetInCU: 0x438DF, offset: 0x438DF, size: 0x8, addend: 0x0, symName: __ZNSt12_Vector_baseIdSaIdEED2Ev, symObjAddr: 0x2658, symBinAddr: 0x100004D80, symSize: 0x50 }
  - { offsetInCU: 0x4396F, offset: 0x4396F, size: 0x8, addend: 0x0, symName: __ZNSt6vectorI4UserSaIS0_EED1Ev, symObjAddr: 0x25C4, symBinAddr: 0x100004CEC, symSize: 0x5C }
  - { offsetInCU: 0x43977, offset: 0x43977, size: 0x8, addend: 0x0, symName: __ZNSt12_Vector_baseIdSaIdEE12_Vector_implC1Ev, symObjAddr: 0x2620, symBinAddr: 0x100004D48, symSize: 0x38 }
  - { offsetInCU: 0x43A0F, offset: 0x43A0F, size: 0x8, addend: 0x0, symName: __ZNSt12_Vector_baseI4UserSaIS0_EED2Ev, symObjAddr: 0x2560, symBinAddr: 0x100004C88, symSize: 0x64 }
  - { offsetInCU: 0x43A17, offset: 0x43A17, size: 0x8, addend: 0x0, symName: __ZNSt6vectorI4UserSaIS0_EED1Ev, symObjAddr: 0x25C4, symBinAddr: 0x100004CEC, symSize: 0x5C }
  - { offsetInCU: 0x43A8D, offset: 0x43A8D, size: 0x8, addend: 0x0, symName: __ZNSt12_Vector_baseI4UserSaIS0_EE12_Vector_implC1Ev, symObjAddr: 0x2528, symBinAddr: 0x100004C50, symSize: 0x38 }
  - { offsetInCU: 0x43A95, offset: 0x43A95, size: 0x8, addend: 0x0, symName: __ZNSt12_Vector_baseI4UserSaIS0_EED2Ev, symObjAddr: 0x2560, symBinAddr: 0x100004C88, symSize: 0x64 }
  - { offsetInCU: 0x43AD9, offset: 0x43AD9, size: 0x8, addend: 0x0, symName: __ZNSt6vectorINSt7__cxx1112basic_stringIcSt11char_traitsIcESaIcEEESaIS5_EE9push_backERKS5_, symObjAddr: 0x2420, symBinAddr: 0x100004B48, symSize: 0x108 }
  - { offsetInCU: 0x43AE1, offset: 0x43AE1, size: 0x8, addend: 0x0, symName: __ZNSt12_Vector_baseI4UserSaIS0_EE12_Vector_implC1Ev, symObjAddr: 0x2528, symBinAddr: 0x100004C50, symSize: 0x38 }
  - { offsetInCU: 0x43C16, offset: 0x43C16, size: 0x8, addend: 0x0, symName: __ZNSt6vectorINSt7__cxx1112basic_stringIcSt11char_traitsIcESaIcEEESaIS5_EED1Ev, symObjAddr: 0x23C4, symBinAddr: 0x100004AEC, symSize: 0x5C }
  - { offsetInCU: 0x43C1E, offset: 0x43C1E, size: 0x8, addend: 0x0, symName: __ZNSt6vectorINSt7__cxx1112basic_stringIcSt11char_traitsIcESaIcEEESaIS5_EE9push_backERKS5_, symObjAddr: 0x2420, symBinAddr: 0x100004B48, symSize: 0x108 }
  - { offsetInCU: 0x43CB6, offset: 0x43CB6, size: 0x8, addend: 0x0, symName: __ZNSt12_Vector_baseINSt7__cxx1112basic_stringIcSt11char_traitsIcESaIcEEESaIS5_EED2Ev, symObjAddr: 0x2374, symBinAddr: 0x100004A9C, symSize: 0x50 }
  - { offsetInCU: 0x43CBE, offset: 0x43CBE, size: 0x8, addend: 0x0, symName: __ZNSt6vectorINSt7__cxx1112basic_stringIcSt11char_traitsIcESaIcEEESaIS5_EED1Ev, symObjAddr: 0x23C4, symBinAddr: 0x100004AEC, symSize: 0x5C }
  - { offsetInCU: 0x43D34, offset: 0x43D34, size: 0x8, addend: 0x0, symName: __ZNSt12_Vector_baseINSt7__cxx1112basic_stringIcSt11char_traitsIcESaIcEEESaIS5_EE12_Vector_implC1Ev, symObjAddr: 0x233C, symBinAddr: 0x100004A64, symSize: 0x38 }
  - { offsetInCU: 0x43D3C, offset: 0x43D3C, size: 0x8, addend: 0x0, symName: __ZNSt12_Vector_baseINSt7__cxx1112basic_stringIcSt11char_traitsIcESaIcEEESaIS5_EED2Ev, symObjAddr: 0x2374, symBinAddr: 0x100004A9C, symSize: 0x50 }
  - { offsetInCU: 0x43DBB, offset: 0x43DBB, size: 0x8, addend: 0x0, symName: __ZSteqIcSt11char_traitsIcESaIcEEbRKNSt7__cxx1112basic_stringIT_T0_T1_EEPKS5_, symObjAddr: 0x22C8, symBinAddr: 0x1000049F0, symSize: 0x74 }
  - { offsetInCU: 0x43DC3, offset: 0x43DC3, size: 0x8, addend: 0x0, symName: __ZNSt12_Vector_baseINSt7__cxx1112basic_stringIcSt11char_traitsIcESaIcEEESaIS5_EE12_Vector_implC1Ev, symObjAddr: 0x233C, symBinAddr: 0x100004A64, symSize: 0x38 }
  - { offsetInCU: 0x43E71, offset: 0x43E71, size: 0x8, addend: 0x0, symName: __ZSt4moveIRNSt7__cxx1112basic_stringIcSt11char_traitsIcESaIcEEEEONSt16remove_referenceIT_E4typeEOS8_, symObjAddr: 0x22B4, symBinAddr: 0x1000049DC, symSize: 0x14 }
  - { offsetInCU: 0x43E79, offset: 0x43E79, size: 0x8, addend: 0x0, symName: __ZSteqIcSt11char_traitsIcESaIcEEbRKNSt7__cxx1112basic_stringIT_T0_T1_EEPKS5_, symObjAddr: 0x22C8, symBinAddr: 0x1000049F0, symSize: 0x74 }
  - { offsetInCU: 0x43ECD, offset: 0x43ECD, size: 0x8, addend: 0x0, symName: __ZNSt7__cxx1112basic_stringIcSt11char_traitsIcESaIcEEC1IS3_EEPKcRKS3_, symObjAddr: 0x2218, symBinAddr: 0x100004940, symSize: 0x9C }
  - { offsetInCU: 0x43ED5, offset: 0x43ED5, size: 0x8, addend: 0x0, symName: __ZSt4moveIRNSt7__cxx1112basic_stringIcSt11char_traitsIcESaIcEEEEONSt16remove_referenceIT_E4typeEOS8_, symObjAddr: 0x22B4, symBinAddr: 0x1000049DC, symSize: 0x14 }
  - { offsetInCU: 0x43F40, offset: 0x43F40, size: 0x8, addend: 0x0, symName: __ZSt3maxImERKT_S2_S2_, symObjAddr: 0x21E0, symBinAddr: 0x100004908, symSize: 0x38 }
  - { offsetInCU: 0x43F48, offset: 0x43F48, size: 0x8, addend: 0x0, symName: __ZNSt7__cxx1112basic_stringIcSt11char_traitsIcESaIcEEC1IS3_EEPKcRKS3_, symObjAddr: 0x2218, symBinAddr: 0x100004940, symSize: 0x9C }
  - { offsetInCU: 0x43FE2, offset: 0x43FE2, size: 0x8, addend: 0x0, symName: __ZNSt7__cxx1112basic_stringIcSt11char_traitsIcESaIcEE12_Alloc_hiderD1Ev, symObjAddr: 0x21B4, symBinAddr: 0x1000048DC, symSize: 0x2C }
  - { offsetInCU: 0x43FEA, offset: 0x43FEA, size: 0x8, addend: 0x0, symName: __ZSt3maxImERKT_S2_S2_, symObjAddr: 0x21E0, symBinAddr: 0x100004908, symSize: 0x38 }
  - { offsetInCU: 0x44097, offset: 0x44097, size: 0x8, addend: 0x0, symName: __ZN9__gnu_cxx6__stoaIlicJiEEET0_PFT_PKT1_PPS3_DpT2_EPKcS5_PmS9_, symObjAddr: 0x20AC, symBinAddr: 0x1000047D4, symSize: 0x108 }
  - { offsetInCU: 0x4409F, offset: 0x4409F, size: 0x8, addend: 0x0, symName: __ZNSt7__cxx1112basic_stringIcSt11char_traitsIcESaIcEE12_Alloc_hiderD1Ev, symObjAddr: 0x21B4, symBinAddr: 0x1000048DC, symSize: 0x2C }
  - { offsetInCU: 0x44218, offset: 0x44218, size: 0x8, addend: 0x0, symName: __ZZN9__gnu_cxx6__stoaIlicJiEEET0_PFT_PKT1_PPS3_DpT2_EPKcS5_PmS9_EN11_Save_errnoC1Ev, symObjAddr: 0x1FEC, symBinAddr: 0x100004714, symSize: 0x30 }
  - { offsetInCU: 0x44220, offset: 0x44220, size: 0x8, addend: 0x0, symName: __ZZN9__gnu_cxx6__stoaIlicJiEEET0_PFT_PKT1_PPS3_DpT2_EPKcS5_PmS9_EN11_Save_errnoD1Ev, symObjAddr: 0x201C, symBinAddr: 0x100004744, symSize: 0x50 }
  - { offsetInCU: 0x44249, offset: 0x44249, size: 0x8, addend: 0x0, symName: __ZZN9__gnu_cxx6__stoaIlicJiEEET0_PFT_PKT1_PPS3_DpT2_EPKcS5_PmS9_EN11_Save_errnoD1Ev, symObjAddr: 0x201C, symBinAddr: 0x100004744, symSize: 0x50 }
  - { offsetInCU: 0x44251, offset: 0x44251, size: 0x8, addend: 0x0, symName: __ZZN9__gnu_cxx6__stoaIlicJiEEET0_PFT_PKT1_PPS3_DpT2_EPKcS5_PmS9_EN10_Range_chk6_S_chkElSt17integral_constantIbLb1EE, symObjAddr: 0x206C, symBinAddr: 0x100004794, symSize: 0x40 }
  - { offsetInCU: 0x442EA, offset: 0x442EA, size: 0x8, addend: 0x0, symName: __ZZN9__gnu_cxx6__stoaIlicJiEEET0_PFT_PKT1_PPS3_DpT2_EPKcS5_PmS9_EN10_Range_chk6_S_chkElSt17integral_constantIbLb1EE, symObjAddr: 0x206C, symBinAddr: 0x100004794, symSize: 0x40 }
  - { offsetInCU: 0x442F2, offset: 0x442F2, size: 0x8, addend: 0x0, symName: __ZN9__gnu_cxx6__stoaIlicJiEEET0_PFT_PKT1_PPS3_DpT2_EPKcS5_PmS9_, symObjAddr: 0x20AC, symBinAddr: 0x1000047D4, symSize: 0x108 }
  - { offsetInCU: 0x44303, offset: 0x44303, size: 0x8, addend: 0x0, symName: __ZN9__gnu_cxx11char_traitsIcE6lengthEPKc, symObjAddr: 0x1F90, symBinAddr: 0x1000046B8, symSize: 0x5C }
  - { offsetInCU: 0x4430B, offset: 0x4430B, size: 0x8, addend: 0x0, symName: __ZZN9__gnu_cxx6__stoaIlicJiEEET0_PFT_PKT1_PPS3_DpT2_EPKcS5_PmS9_EN11_Save_errnoC1Ev, symObjAddr: 0x1FEC, symBinAddr: 0x100004714, symSize: 0x30 }
  - { offsetInCU: 0x44351, offset: 0x44351, size: 0x8, addend: 0x0, symName: _main, symObjAddr: 0x19D0, symBinAddr: 0x1000040F8, symSize: 0x5C0 }
  - { offsetInCU: 0x44359, offset: 0x44359, size: 0x8, addend: 0x0, symName: __ZN9__gnu_cxx11char_traitsIcE6lengthEPKc, symObjAddr: 0x1F90, symBinAddr: 0x1000046B8, symSize: 0x5C }
  - { offsetInCU: 0x44576, offset: 0x44576, size: 0x8, addend: 0x0, symName: __ZN5SplitD1Ev, symObjAddr: 0x19A4, symBinAddr: 0x1000040CC, symSize: 0x2C }
  - { offsetInCU: 0x4457E, offset: 0x4457E, size: 0x8, addend: 0x0, symName: _main, symObjAddr: 0x19D0, symBinAddr: 0x1000040F8, symSize: 0x5C0 }
  - { offsetInCU: 0x445C3, offset: 0x445C3, size: 0x8, addend: 0x0, symName: __ZN5SplitC1Ev, symObjAddr: 0x1978, symBinAddr: 0x1000040A0, symSize: 0x2C }
  - { offsetInCU: 0x445CB, offset: 0x445CB, size: 0x8, addend: 0x0, symName: __ZN5SplitD1Ev, symObjAddr: 0x19A4, symBinAddr: 0x1000040CC, symSize: 0x2C }
  - { offsetInCU: 0x44688, offset: 0x44688, size: 0x8, addend: 0x0, symName: __ZNSt3mapINSt7__cxx1112basic_stringIcSt11char_traitsIcESaIcEEES_IS5_iSt4lessIS5_ESaISt4pairIKS5_iEEES7_SaIS8_IS9_SC_EEED1Ev, symObjAddr: 0x1958, symBinAddr: 0x100004080, symSize: 0x20 }
  - { offsetInCU: 0x44690, offset: 0x44690, size: 0x8, addend: 0x0, symName: __ZN5SplitC1Ev, symObjAddr: 0x1978, symBinAddr: 0x1000040A0, symSize: 0x2C }
  - { offsetInCU: 0x446D1, offset: 0x446D1, size: 0x8, addend: 0x0, symName: __ZNSt3mapINSt7__cxx1112basic_stringIcSt11char_traitsIcESaIcEEES_IS5_iSt4lessIS5_ESaISt4pairIKS5_iEEES7_SaIS8_IS9_SC_EEEC1Ev, symObjAddr: 0x1938, symBinAddr: 0x100004060, symSize: 0x20 }
  - { offsetInCU: 0x446D9, offset: 0x446D9, size: 0x8, addend: 0x0, symName: __ZNSt3mapINSt7__cxx1112basic_stringIcSt11char_traitsIcESaIcEEES_IS5_iSt4lessIS5_ESaISt4pairIKS5_iEEES7_SaIS8_IS9_SC_EEED1Ev, symObjAddr: 0x1958, symBinAddr: 0x100004080, symSize: 0x20 }
  - { offsetInCU: 0x44736, offset: 0x44736, size: 0x8, addend: 0x0, symName: __ZNSt8_Rb_treeINSt7__cxx1112basic_stringIcSt11char_traitsIcESaIcEEESt4pairIKS5_St3mapIS5_iSt4lessIS5_ESaIS6_IS7_iEEEESt10_Select1stISE_ESA_SaISE_EEC1Ev, symObjAddr: 0x1918, symBinAddr: 0x100004040, symSize: 0x20 }
  - { offsetInCU: 0x4473E, offset: 0x4473E, size: 0x8, addend: 0x0, symName: __ZNSt3mapINSt7__cxx1112basic_stringIcSt11char_traitsIcESaIcEEES_IS5_iSt4lessIS5_ESaISt4pairIKS5_iEEES7_SaIS8_IS9_SC_EEEC1Ev, symObjAddr: 0x1938, symBinAddr: 0x100004060, symSize: 0x20 }
  - { offsetInCU: 0x447AA, offset: 0x447AA, size: 0x8, addend: 0x0, symName: __ZNSt8_Rb_treeINSt7__cxx1112basic_stringIcSt11char_traitsIcESaIcEEESt4pairIKS5_St3mapIS5_iSt4lessIS5_ESaIS6_IS7_iEEEESt10_Select1stISE_ESA_SaISE_EE13_Rb_tree_implISA_Lb1EED1Ev, symObjAddr: 0x18EC, symBinAddr: 0x100004014, symSize: 0x2C }
  - { offsetInCU: 0x447B2, offset: 0x447B2, size: 0x8, addend: 0x0, symName: __ZNSt8_Rb_treeINSt7__cxx1112basic_stringIcSt11char_traitsIcESaIcEEESt4pairIKS5_St3mapIS5_iSt4lessIS5_ESaIS6_IS7_iEEEESt10_Select1stISE_ESA_SaISE_EEC1Ev, symObjAddr: 0x1918, symBinAddr: 0x100004040, symSize: 0x20 }
  - { offsetInCU: 0x4478D, offset: 0x4478D, size: 0x8, addend: 0x0, symName: __ZNSt6vectorI7ExpenseSaIS0_EEC1Ev, symObjAddr: 0x18CC, symBinAddr: 0x100003FF4, symSize: 0x20 }
  - { offsetInCU: 0x44795, offset: 0x44795, size: 0x8, addend: 0x0, symName: __ZNSt8_Rb_treeINSt7__cxx1112basic_stringIcSt11char_traitsIcESaIcEEESt4pairIKS5_St3mapIS5_iSt4lessIS5_ESaIS6_IS7_iEEEESt10_Select1stISE_ESA_SaISE_EE13_Rb_tree_implISA_Lb1EED1Ev, symObjAddr: 0x18EC, symBinAddr: 0x100004014, symSize: 0x2C }
  - { offsetInCU: 0x447DD, offset: 0x447DD, size: 0x8, addend: 0x0, symName: __ZNSt12_Vector_baseI7ExpenseSaIS0_EEC2Ev, symObjAddr: 0x18AC, symBinAddr: 0x100003FD4, symSize: 0x20 }
  - { offsetInCU: 0x447E5, offset: 0x447E5, size: 0x8, addend: 0x0, symName: __ZNSt6vectorI7ExpenseSaIS0_EEC1Ev, symObjAddr: 0x18CC, symBinAddr: 0x100003FF4, symSize: 0x20 }
  - { offsetInCU: 0x44846, offset: 0x44846, size: 0x8, addend: 0x0, symName: __ZNSt12_Vector_baseI7ExpenseSaIS0_EE12_Vector_implD1Ev, symObjAddr: 0x1880, symBinAddr: 0x100003FA8, symSize: 0x2C }
  - { offsetInCU: 0x4484E, offset: 0x4484E, size: 0x8, addend: 0x0, symName: __ZNSt12_Vector_baseI7ExpenseSaIS0_EEC2Ev, symObjAddr: 0x18AC, symBinAddr: 0x100003FD4, symSize: 0x20 }
  - { offsetInCU: 0x44916, offset: 0x44916, size: 0x8, addend: 0x0, symName: __ZNSt13unordered_mapINSt7__cxx1112basic_stringIcSt11char_traitsIcESaIcEEE4UserSt4hashIS5_ESt8equal_toIS5_ESaISt4pairIKS5_S6_EEED1Ev, symObjAddr: 0x1860, symBinAddr: 0x100003F88, symSize: 0x20 }
  - { offsetInCU: 0x4491E, offset: 0x4491E, size: 0x8, addend: 0x0, symName: __ZNSt12_Vector_baseI7ExpenseSaIS0_EE12_Vector_implD1Ev, symObjAddr: 0x1880, symBinAddr: 0x100003FA8, symSize: 0x2C }
  - { offsetInCU: 0x4495F, offset: 0x4495F, size: 0x8, addend: 0x0, symName: __ZNSt13unordered_mapINSt7__cxx1112basic_stringIcSt11char_traitsIcESaIcEEE4UserSt4hashIS5_ESt8equal_toIS5_ESaISt4pairIKS5_S6_EEEC1Ev, symObjAddr: 0x1840, symBinAddr: 0x100003F68, symSize: 0x20 }
  - { offsetInCU: 0x44967, offset: 0x44967, size: 0x8, addend: 0x0, symName: __ZNSt13unordered_mapINSt7__cxx1112basic_stringIcSt11char_traitsIcESaIcEEE4UserSt4hashIS5_ESt8equal_toIS5_ESaISt4pairIKS5_S6_EEED1Ev, symObjAddr: 0x1860, symBinAddr: 0x100003F88, symSize: 0x20 }
  - { offsetInCU: 0x44A33, offset: 0x44A33, size: 0x8, addend: 0x0, symName: __ZNSt10_HashtableINSt7__cxx1112basic_stringIcSt11char_traitsIcESaIcEEESt4pairIKS5_4UserESaIS9_ENSt8__detail10_Select1stESt8equal_toIS5_ESt4hashIS5_ENSB_18_Mod_range_hashingENSB_20_Default_ranged_hashENSB_20_Prime_rehash_policyENSB_17_Hashtable_traitsILb1ELb0ELb1EEEEC1Ev, symObjAddr: 0x17D0, symBinAddr: 0x100003EF8, symSize: 0x70 }
  - { offsetInCU: 0x44A3B, offset: 0x44A3B, size: 0x8, addend: 0x0, symName: __ZNSt13unordered_mapINSt7__cxx1112basic_stringIcSt11char_traitsIcESaIcEEE4UserSt4hashIS5_ESt8equal_toIS5_ESaISt4pairIKS5_S6_EEEC1Ev, symObjAddr: 0x1840, symBinAddr: 0x100003F68, symSize: 0x20 }
  - { offsetInCU: 0x44A04, offset: 0x44A04, size: 0x8, addend: 0x0, symName: __ZNSt8__detail16_Hashtable_allocISaINS_10_Hash_nodeISt4pairIKNSt7__cxx1112basic_stringIcSt11char_traitsIcESaIcEEE4UserELb1EEEEED2Ev, symObjAddr: 0x17B0, symBinAddr: 0x100003ED8, symSize: 0x20 }
  - { offsetInCU: 0x44A0C, offset: 0x44A0C, size: 0x8, addend: 0x0, symName: __ZNSt10_HashtableINSt7__cxx1112basic_stringIcSt11char_traitsIcESaIcEEESt4pairIKS5_4UserESaIS9_ENSt8__detail10_Select1stESt8equal_toIS5_ESt4hashIS5_ENSB_18_Mod_range_hashingENSB_20_Default_ranged_hashENSB_20_Prime_rehash_policyENSB_17_Hashtable_traitsILb1ELb0ELb1EEEEC1Ev, symObjAddr: 0x17D0, symBinAddr: 0x100003EF8, symSize: 0x70 }
  - { offsetInCU: 0x44A4D, offset: 0x44A4D, size: 0x8, addend: 0x0, symName: __ZNSt8__detail16_Hashtable_allocISaINS_10_Hash_nodeISt4pairIKNSt7__cxx1112basic_stringIcSt11char_traitsIcESaIcEEE4UserELb1EEEEEC2Ev, symObjAddr: 0x1790, symBinAddr: 0x100003EB8, symSize: 0x20 }
  - { offsetInCU: 0x44A55, offset: 0x44A55, size: 0x8, addend: 0x0, symName: __ZNSt8__detail16_Hashtable_allocISaINS_10_Hash_nodeISt4pairIKNSt7__cxx1112basic_stringIcSt11char_traitsIcESaIcEEE4UserELb1EEEEED2Ev, symObjAddr: 0x17B0, symBinAddr: 0x100003ED8, symSize: 0x20 }
  - { offsetInCU: 0x44AB6, offset: 0x44AB6, size: 0x8, addend: 0x0, symName: __ZNSt8__detail21_Hashtable_ebo_helperILi0ESaINS_10_Hash_nodeISt4pairIKNSt7__cxx1112basic_stringIcSt11char_traitsIcESaIcEEE4UserELb1EEEELb1EED2Ev, symObjAddr: 0x1764, symBinAddr: 0x100003E8C, symSize: 0x2C }
  - { offsetInCU: 0x44ABE, offset: 0x44ABE, size: 0x8, addend: 0x0, symName: __ZNSt8__detail16_Hashtable_allocISaINS_10_Hash_nodeISt4pairIKNSt7__cxx1112basic_stringIcSt11char_traitsIcESaIcEEE4UserELb1EEEEEC2Ev, symObjAddr: 0x1790, symBinAddr: 0x100003EB8, symSize: 0x20 }
  - { offsetInCU: 0x44B85, offset: 0x44B85, size: 0x8, addend: 0x0, symName: __ZNSt8__detail15_Hashtable_baseINSt7__cxx1112basic_stringIcSt11char_traitsIcESaIcEEESt4pairIKS6_4UserENS_10_Select1stESt8equal_toIS6_ESt4hashIS6_ENS_18_Mod_range_hashingENS_20_Default_ranged_hashENS_17_Hashtable_traitsILb1ELb0ELb1EEEEC2Ev, symObjAddr: 0x173C, symBinAddr: 0x100003E64, symSize: 0x28 }
  - { offsetInCU: 0x44B8D, offset: 0x44B8D, size: 0x8, addend: 0x0, symName: __ZNSt8__detail21_Hashtable_ebo_helperILi0ESaINS_10_Hash_nodeISt4pairIKNSt7__cxx1112basic_stringIcSt11char_traitsIcESaIcEEE4UserELb1EEEELb1EED2Ev, symObjAddr: 0x1764, symBinAddr: 0x100003E8C, symSize: 0x2C }
  - { offsetInCU: 0x44B9D, offset: 0x44B9D, size: 0x8, addend: 0x0, symName: __ZNSt8__detail15_Hash_code_baseINSt7__cxx1112basic_stringIcSt11char_traitsIcESaIcEEESt4pairIKS6_4UserENS_10_Select1stESt4hashIS6_ENS_18_Mod_range_hashingENS_20_Default_ranged_hashELb1EEC2Ev, symObjAddr: 0x171C, symBinAddr: 0x100003E44, symSize: 0x20 }
  - { offsetInCU: 0x44BA5, offset: 0x44BA5, size: 0x8, addend: 0x0, symName: __ZNSt8__detail15_Hashtable_baseINSt7__cxx1112basic_stringIcSt11char_traitsIcESaIcEEESt4pairIKS6_4UserENS_10_Select1stESt8equal_toIS6_ESt4hashIS6_ENS_18_Mod_range_hashingENS_20_Default_ranged_hashENS_17_Hashtable_traitsILb1ELb0ELb1EEEEC2Ev, symObjAddr: 0x173C, symBinAddr: 0x100003E64, symSize: 0x28 }
  - { offsetInCU: 0x44B0F, offset: 0x44B0F, size: 0x8, addend: 0x0, symName: __ZN5Split12showByUserIdENSt7__cxx1112basic_stringIcSt11char_traitsIcESaIcEEE, symObjAddr: 0x147C, symBinAddr: 0x100003BA4, symSize: 0x2A0 }
  - { offsetInCU: 0x44B17, offset: 0x44B17, size: 0x8, addend: 0x0, symName: __ZNSt8__detail15_Hash_code_baseINSt7__cxx1112basic_stringIcSt11char_traitsIcESaIcEEESt4pairIKS6_4UserENS_10_Select1stESt4hashIS6_ENS_18_Mod_range_hashingENS_20_Default_ranged_hashELb1EEC2Ev, symObjAddr: 0x171C, symBinAddr: 0x100003E44, symSize: 0x20 }
  - { offsetInCU: 0x44C0F, offset: 0x44C0F, size: 0x8, addend: 0x0, symName: __ZN5Split4showEv, symObjAddr: 0x12A0, symBinAddr: 0x1000039C8, symSize: 0x1DC }
  - { offsetInCU: 0x44C17, offset: 0x44C17, size: 0x8, addend: 0x0, symName: __ZN5Split12showByUserIdENSt7__cxx1112basic_stringIcSt11char_traitsIcESaIcEEE, symObjAddr: 0x147C, symBinAddr: 0x100003BA4, symSize: 0x2A0 }
  - { offsetInCU: 0x44D6C, offset: 0x44D6C, size: 0x8, addend: 0x0, symName: __ZNSt4pairIKNSt7__cxx1112basic_stringIcSt11char_traitsIcESaIcEEEiED1Ev, symObjAddr: 0x1280, symBinAddr: 0x1000039A8, symSize: 0x20 }
  - { offsetInCU: 0x44D74, offset: 0x44D74, size: 0x8, addend: 0x0, symName: __ZN5Split4showEv, symObjAddr: 0x12A0, symBinAddr: 0x1000039C8, symSize: 0x1DC }
  - { offsetInCU: 0x44DC2, offset: 0x44DC2, size: 0x8, addend: 0x0, symName: __ZNSt4pairIKNSt7__cxx1112basic_stringIcSt11char_traitsIcESaIcEEEiEC1ERKS7_, symObjAddr: 0x1248, symBinAddr: 0x100003970, symSize: 0x38 }
  - { offsetInCU: 0x44DCA, offset: 0x44DCA, size: 0x8, addend: 0x0, symName: __ZNSt4pairIKNSt7__cxx1112basic_stringIcSt11char_traitsIcESaIcEEEiED1Ev, symObjAddr: 0x1280, symBinAddr: 0x1000039A8, symSize: 0x20 }
  - { offsetInCU: 0x44E49, offset: 0x44E49, size: 0x8, addend: 0x0, symName: __ZNSt4pairIKNSt7__cxx1112basic_stringIcSt11char_traitsIcESaIcEEESt3mapIS5_iSt4lessIS5_ESaIS_IS6_iEEEED1Ev, symObjAddr: 0x121C, symBinAddr: 0x100003944, symSize: 0x2C }
  - { offsetInCU: 0x44E51, offset: 0x44E51, size: 0x8, addend: 0x0, symName: __ZNSt4pairIKNSt7__cxx1112basic_stringIcSt11char_traitsIcESaIcEEEiEC1ERKS7_, symObjAddr: 0x1248, symBinAddr: 0x100003970, symSize: 0x38 }
  - { offsetInCU: 0x44E9F, offset: 0x44E9F, size: 0x8, addend: 0x0, symName: __ZNSt4pairIKNSt7__cxx1112basic_stringIcSt11char_traitsIcESaIcEEESt3mapIS5_iSt4lessIS5_ESaIS_IS6_iEEEEC1ERKSD_, symObjAddr: 0x11BC, symBinAddr: 0x1000038E4, symSize: 0x60 }
  - { offsetInCU: 0x44EA7, offset: 0x44EA7, size: 0x8, addend: 0x0, symName: __ZNSt4pairIKNSt7__cxx1112basic_stringIcSt11char_traitsIcESaIcEEESt3mapIS5_iSt4lessIS5_ESaIS_IS6_iEEEED1Ev, symObjAddr: 0x121C, symBinAddr: 0x100003944, symSize: 0x2C }
  - { offsetInCU: 0x44EF8, offset: 0x44EF8, size: 0x8, addend: 0x0, symName: __ZNSt3mapINSt7__cxx1112basic_stringIcSt11char_traitsIcESaIcEEEiSt4lessIS5_ESaISt4pairIKS5_iEEED1Ev, symObjAddr: 0x119C, symBinAddr: 0x1000038C4, symSize: 0x20 }
  - { offsetInCU: 0x44F00, offset: 0x44F00, size: 0x8, addend: 0x0, symName: __ZNSt4pairIKNSt7__cxx1112basic_stringIcSt11char_traitsIcESaIcEEESt3mapIS5_iSt4lessIS5_ESaIS_IS6_iEEEEC1ERKSD_, symObjAddr: 0x11BC, symBinAddr: 0x1000038E4, symSize: 0x60 }
  - { offsetInCU: 0x44F4E, offset: 0x44F4E, size: 0x8, addend: 0x0, symName: __ZNSt3mapINSt7__cxx1112basic_stringIcSt11char_traitsIcESaIcEEEiSt4lessIS5_ESaISt4pairIKS5_iEEEC1ERKSC_, symObjAddr: 0x1174, symBinAddr: 0x10000389C, symSize: 0x28 }
  - { offsetInCU: 0x44F56, offset: 0x44F56, size: 0x8, addend: 0x0, symName: __ZNSt3mapINSt7__cxx1112basic_stringIcSt11char_traitsIcESaIcEEEiSt4lessIS5_ESaISt4pairIKS5_iEEED1Ev, symObjAddr: 0x119C, symBinAddr: 0x1000038C4, symSize: 0x20 }
  - { offsetInCU: 0x44F24, offset: 0x44F24, size: 0x8, addend: 0x0, symName: __ZN5Split14splitByPercentER4UserRSt6vectorIS0_SaIS0_EES2_IdSaIdEEd, symObjAddr: 0xF28, symBinAddr: 0x100003650, symSize: 0x24C }
  - { offsetInCU: 0x44F2C, offset: 0x44F2C, size: 0x8, addend: 0x0, symName: __ZNSt3mapINSt7__cxx1112basic_stringIcSt11char_traitsIcESaIcEEEiSt4lessIS5_ESaISt4pairIKS5_iEEEC1ERKSC_, symObjAddr: 0x1174, symBinAddr: 0x10000389C, symSize: 0x28 }
  - { offsetInCU: 0x450D8, offset: 0x450D8, size: 0x8, addend: 0x0, symName: __ZN5Split12splitExactlyER4UserRSt6vectorIS0_SaIS0_EES2_IdSaIdEEd, symObjAddr: 0xCFC, symBinAddr: 0x100003424, symSize: 0x22C }
  - { offsetInCU: 0x450E0, offset: 0x450E0, size: 0x8, addend: 0x0, symName: __ZN5Split14splitByPercentER4UserRSt6vectorIS0_SaIS0_EES2_IdSaIdEEd, symObjAddr: 0xF28, symBinAddr: 0x100003650, symSize: 0x24C }
  - { offsetInCU: 0x45279, offset: 0x45279, size: 0x8, addend: 0x0, symName: __ZN5Split12splitEquallyER4UserRSt6vectorIS0_SaIS0_EEd, symObjAddr: 0xA98, symBinAddr: 0x1000031C0, symSize: 0x264 }
  - { offsetInCU: 0x45281, offset: 0x45281, size: 0x8, addend: 0x0, symName: __ZN5Split12splitExactlyER4UserRSt6vectorIS0_SaIS0_EES2_IdSaIdEEd, symObjAddr: 0xCFC, symBinAddr: 0x100003424, symSize: 0x22C }
  - { offsetInCU: 0x45453, offset: 0x45453, size: 0x8, addend: 0x0, symName: __ZN7ExpenseD1Ev, symObjAddr: 0xA60, symBinAddr: 0x100003188, symSize: 0x38 }
  - { offsetInCU: 0x4545B, offset: 0x4545B, size: 0x8, addend: 0x0, symName: __ZN5Split12splitEquallyER4UserRSt6vectorIS0_SaIS0_EEd, symObjAddr: 0xA98, symBinAddr: 0x1000031C0, symSize: 0x264 }
  - { offsetInCU: 0x454A9, offset: 0x454A9, size: 0x8, addend: 0x0, symName: __ZN4UserC1ERKS_, symObjAddr: 0x9C0, symBinAddr: 0x1000030E8, symSize: 0xA0 }
  - { offsetInCU: 0x454B1, offset: 0x454B1, size: 0x8, addend: 0x0, symName: __ZN7ExpenseD1Ev, symObjAddr: 0xA60, symBinAddr: 0x100003188, symSize: 0x38 }
  - { offsetInCU: 0x455B1, offset: 0x455B1, size: 0x8, addend: 0x0, symName: __ZN7ExpenseC1ER4UserRdNSt7__cxx1112basic_stringIcSt11char_traitsIcESaIcEEERSt6vectorIS0_SaIS0_EERS9_IdSaIdEE, symObjAddr: 0x8F0, symBinAddr: 0x100003018, symSize: 0xD0 }
  - { offsetInCU: 0x455B9, offset: 0x455B9, size: 0x8, addend: 0x0, symName: __ZN4UserC1ERKS_, symObjAddr: 0x9C0, symBinAddr: 0x1000030E8, symSize: 0xA0 }
  - { offsetInCU: 0x45672, offset: 0x45672, size: 0x8, addend: 0x0, symName: __ZN7ExpenseC1E4UserRdNSt7__cxx1112basic_stringIcSt11char_traitsIcESaIcEEESt6vectorIS0_SaIS0_EE, symObjAddr: 0x828, symBinAddr: 0x100002F50, symSize: 0xC8 }
  - { offsetInCU: 0x4567A, offset: 0x4567A, size: 0x8, addend: 0x0, symName: __ZN7ExpenseC1ER4UserRdNSt7__cxx1112basic_stringIcSt11char_traitsIcESaIcEEERSt6vectorIS0_SaIS0_EERS9_IdSaIdEE, symObjAddr: 0x8F0, symBinAddr: 0x100003018, symSize: 0xD0 }
  - { offsetInCU: 0x4567E, offset: 0x4567E, size: 0x8, addend: 0x0, symName: __ZN4UseraSERKS_, symObjAddr: 0x7C8, symBinAddr: 0x100002EF0, symSize: 0x60 }
  - { offsetInCU: 0x45686, offset: 0x45686, size: 0x8, addend: 0x0, symName: __ZN7ExpenseC1E4UserRdNSt7__cxx1112basic_stringIcSt11char_traitsIcESaIcEEESt6vectorIS0_SaIS0_EE, symObjAddr: 0x828, symBinAddr: 0x100002F50, symSize: 0xC8 }
  - { offsetInCU: 0x456ED, offset: 0x456ED, size: 0x8, addend: 0x0, symName: __ZNSt6vectorIdSaIdEEC1Ev, symObjAddr: 0x7A8, symBinAddr: 0x100002ED0, symSize: 0x20 }
  - { offsetInCU: 0x456F5, offset: 0x456F5, size: 0x8, addend: 0x0, symName: __ZN4UseraSERKS_, symObjAddr: 0x7C8, symBinAddr: 0x100002EF0, symSize: 0x60 }
  - { offsetInCU: 0x4573D, offset: 0x4573D, size: 0x8, addend: 0x0, symName: __ZNSt12_Vector_baseIdSaIdEEC2Ev, symObjAddr: 0x788, symBinAddr: 0x100002EB0, symSize: 0x20 }
  - { offsetInCU: 0x45745, offset: 0x45745, size: 0x8, addend: 0x0, symName: __ZNSt6vectorIdSaIdEEC1Ev, symObjAddr: 0x7A8, symBinAddr: 0x100002ED0, symSize: 0x20 }
  - { offsetInCU: 0x457A6, offset: 0x457A6, size: 0x8, addend: 0x0, symName: __ZNSt12_Vector_baseIdSaIdEE12_Vector_implD1Ev, symObjAddr: 0x75C, symBinAddr: 0x100002E84, symSize: 0x2C }
  - { offsetInCU: 0x457AE, offset: 0x457AE, size: 0x8, addend: 0x0, symName: __ZNSt12_Vector_baseIdSaIdEEC2Ev, symObjAddr: 0x788, symBinAddr: 0x100002EB0, symSize: 0x20 }
  - { offsetInCU: 0x45808, offset: 0x45808, size: 0x8, addend: 0x0, symName: __ZNSt6vectorI4UserSaIS0_EEC1Ev, symObjAddr: 0x73C, symBinAddr: 0x100002E64, symSize: 0x20 }
  - { offsetInCU: 0x45810, offset: 0x45810, size: 0x8, addend: 0x0, symName: __ZNSt12_Vector_baseIdSaIdEE12_Vector_implD1Ev, symObjAddr: 0x75C, symBinAddr: 0x100002E84, symSize: 0x2C }
  - { offsetInCU: 0x45858, offset: 0x45858, size: 0x8, addend: 0x0, symName: __ZNSt12_Vector_baseI4UserSaIS0_EEC2Ev, symObjAddr: 0x71C, symBinAddr: 0x100002E44, symSize: 0x20 }
  - { offsetInCU: 0x45860, offset: 0x45860, size: 0x8, addend: 0x0, symName: __ZNSt6vectorI4UserSaIS0_EEC1Ev, symObjAddr: 0x73C, symBinAddr: 0x100002E64, symSize: 0x20 }
  - { offsetInCU: 0x458C1, offset: 0x458C1, size: 0x8, addend: 0x0, symName: __ZNSt12_Vector_baseI4UserSaIS0_EE12_Vector_implD1Ev, symObjAddr: 0x6F0, symBinAddr: 0x100002E18, symSize: 0x2C }
  - { offsetInCU: 0x458C9, offset: 0x458C9, size: 0x8, addend: 0x0, symName: __ZNSt12_Vector_baseI4UserSaIS0_EEC2Ev, symObjAddr: 0x71C, symBinAddr: 0x100002E44, symSize: 0x20 }
  - { offsetInCU: 0x4591D, offset: 0x4591D, size: 0x8, addend: 0x0, symName: __ZN4UserD1Ev, symObjAddr: 0x6B8, symBinAddr: 0x100002DE0, symSize: 0x38 }
  - { offsetInCU: 0x45925, offset: 0x45925, size: 0x8, addend: 0x0, symName: __ZNSt12_Vector_baseI4UserSaIS0_EE12_Vector_implD1Ev, symObjAddr: 0x6F0, symBinAddr: 0x100002E18, symSize: 0x2C }
  - { offsetInCU: 0x45940, offset: 0x45940, size: 0x8, addend: 0x0, symName: __ZN4User9getUserIdB5cxx11Ev, symObjAddr: 0x684, symBinAddr: 0x100002DAC, symSize: 0x34 }
  - { offsetInCU: 0x45948, offset: 0x45948, size: 0x8, addend: 0x0, symName: __ZN4UserD1Ev, symObjAddr: 0x6B8, symBinAddr: 0x100002DE0, symSize: 0x38 }
  - { offsetInCU: 0x459DA, offset: 0x459DA, size: 0x8, addend: 0x0, symName: __ZN4UserC1ENSt7__cxx1112basic_stringIcSt11char_traitsIcESaIcEEE, symObjAddr: 0x608, symBinAddr: 0x100002D30, symSize: 0x7C }
  - { offsetInCU: 0x459E2, offset: 0x459E2, size: 0x8, addend: 0x0, symName: __ZN4User9getUserIdB5cxx11Ev, symObjAddr: 0x684, symBinAddr: 0x100002DAC, symSize: 0x34 }
  - { offsetInCU: 0x459FE, offset: 0x459FE, size: 0x8, addend: 0x0, symName: __ZN4UserC1Ev, symObjAddr: 0x5D0, symBinAddr: 0x100002CF8, symSize: 0x38 }
  - { offsetInCU: 0x45A06, offset: 0x45A06, size: 0x8, addend: 0x0, symName: __ZN4UserC1ENSt7__cxx1112basic_stringIcSt11char_traitsIcESaIcEEE, symObjAddr: 0x608, symBinAddr: 0x100002D30, symSize: 0x7C }
  - { offsetInCU: 0x45A76, offset: 0x45A76, size: 0x8, addend: 0x0, symName: __Z11listOfInputRNSt7__cxx1112basic_stringIcSt11char_traitsIcESaIcEEE, symObjAddr: 0x4F0, symBinAddr: 0x100002C18, symSize: 0xE0 }
  - { offsetInCU: 0x45A7E, offset: 0x45A7E, size: 0x8, addend: 0x0, symName: __ZN4UserC1Ev, symObjAddr: 0x5D0, symBinAddr: 0x100002CF8, symSize: 0x38 }
  - { offsetInCU: 0x45B1B, offset: 0x45B1B, size: 0x8, addend: 0x0, symName: __ZNSt6vectorINSt7__cxx1112basic_stringIcSt11char_traitsIcESaIcEEESaIS5_EEC1Ev, symObjAddr: 0x4D0, symBinAddr: 0x100002BF8, symSize: 0x20 }
  - { offsetInCU: 0x45B23, offset: 0x45B23, size: 0x8, addend: 0x0, symName: __Z11listOfInputRNSt7__cxx1112basic_stringIcSt11char_traitsIcESaIcEEE, symObjAddr: 0x4F0, symBinAddr: 0x100002C18, symSize: 0xE0 }
  - { offsetInCU: 0x45B6B, offset: 0x45B6B, size: 0x8, addend: 0x0, symName: __ZNSt12_Vector_baseINSt7__cxx1112basic_stringIcSt11char_traitsIcESaIcEEESaIS5_EEC2Ev, symObjAddr: 0x4B0, symBinAddr: 0x100002BD8, symSize: 0x20 }
  - { offsetInCU: 0x45B73, offset: 0x45B73, size: 0x8, addend: 0x0, symName: __ZNSt6vectorINSt7__cxx1112basic_stringIcSt11char_traitsIcESaIcEEESaIS5_EEC1Ev, symObjAddr: 0x4D0, symBinAddr: 0x100002BF8, symSize: 0x20 }
  - { offsetInCU: 0x45BD4, offset: 0x45BD4, size: 0x8, addend: 0x0, symName: __ZNSt12_Vector_baseINSt7__cxx1112basic_stringIcSt11char_traitsIcESaIcEEESaIS5_EE12_Vector_implD1Ev, symObjAddr: 0x484, symBinAddr: 0x100002BAC, symSize: 0x2C }
  - { offsetInCU: 0x45BDC, offset: 0x45BDC, size: 0x8, addend: 0x0, symName: __ZNSt12_Vector_baseINSt7__cxx1112basic_stringIcSt11char_traitsIcESaIcEEESaIS5_EEC2Ev, symObjAddr: 0x4B0, symBinAddr: 0x100002BD8, symSize: 0x20 }
  - { offsetInCU: 0x45C15, offset: 0x45C15, size: 0x8, addend: 0x0, symName: __Z7getTypeRNSt7__cxx1112basic_stringIcSt11char_traitsIcESaIcEEE, symObjAddr: 0x410, symBinAddr: 0x100002B38, symSize: 0x74 }
  - { offsetInCU: 0x45C1D, offset: 0x45C1D, size: 0x8, addend: 0x0, symName: __ZNSt12_Vector_baseINSt7__cxx1112basic_stringIcSt11char_traitsIcESaIcEEESaIS5_EE12_Vector_implD1Ev, symObjAddr: 0x484, symBinAddr: 0x100002BAC, symSize: 0x2C }
  - { offsetInCU: 0x45C1A, offset: 0x45C1A, size: 0x8, addend: 0x0, symName: __ZNSt15_Rb_tree_header8_M_resetEv, symObjAddr: 0x3D4, symBinAddr: 0x100002AFC, symSize: 0x3C }
  - { offsetInCU: 0x45C22, offset: 0x45C22, size: 0x8, addend: 0x0, symName: __Z7getTypeRNSt7__cxx1112basic_stringIcSt11char_traitsIcESaIcEEE, symObjAddr: 0x410, symBinAddr: 0x100002B38, symSize: 0x74 }
  - { offsetInCU: 0x45C7E, offset: 0x45C7E, size: 0x8, addend: 0x0, symName: __ZNSt15_Rb_tree_headerC2Ev, symObjAddr: 0x3AC, symBinAddr: 0x100002AD4, symSize: 0x28 }
  - { offsetInCU: 0x45C86, offset: 0x45C86, size: 0x8, addend: 0x0, symName: __ZNSt15_Rb_tree_header8_M_resetEv, symObjAddr: 0x3D4, symBinAddr: 0x100002AFC, symSize: 0x3C }
  - { offsetInCU: 0x45C93, offset: 0x45C93, size: 0x8, addend: 0x0, symName: __ZNSt18_Rb_tree_node_base10_S_maximumEPS_, symObjAddr: 0x378, symBinAddr: 0x100002AA0, symSize: 0x34 }
  - { offsetInCU: 0x45C9B, offset: 0x45C9B, size: 0x8, addend: 0x0, symName: __ZNSt15_Rb_tree_headerC2Ev, symObjAddr: 0x3AC, symBinAddr: 0x100002AD4, symSize: 0x28 }
  - { offsetInCU: 0x45CC4, offset: 0x45CC4, size: 0x8, addend: 0x0, symName: __ZNSt18_Rb_tree_node_base10_S_minimumEPS_, symObjAddr: 0x344, symBinAddr: 0x100002A6C, symSize: 0x34 }
  - { offsetInCU: 0x45CCC, offset: 0x45CCC, size: 0x8, addend: 0x0, symName: __ZNSt18_Rb_tree_node_base10_S_maximumEPS_, symObjAddr: 0x378, symBinAddr: 0x100002AA0, symSize: 0x34 }
  - { offsetInCU: 0x45D1D, offset: 0x45D1D, size: 0x8, addend: 0x0, symName: __ZStorSt13_Ios_OpenmodeS_, symObjAddr: 0x324, symBinAddr: 0x100002A4C, symSize: 0x20 }
  - { offsetInCU: 0x45D25, offset: 0x45D25, size: 0x8, addend: 0x0, symName: __ZNSt18_Rb_tree_node_base10_S_minimumEPS_, symObjAddr: 0x344, symBinAddr: 0x100002A6C, symSize: 0x34 }
  - { offsetInCU: 0x45D77, offset: 0x45D77, size: 0x8, addend: 0x0, symName: __ZSt3minImERKT_S2_S2_, symObjAddr: 0x2EC, symBinAddr: 0x100002A14, symSize: 0x38 }
  - { offsetInCU: 0x45D7F, offset: 0x45D7F, size: 0x8, addend: 0x0, symName: __ZStorSt13_Ios_OpenmodeS_, symObjAddr: 0x324, symBinAddr: 0x100002A4C, symSize: 0x20 }
  - { offsetInCU: 0x45DA4, offset: 0x45DA4, size: 0x8, addend: 0x0, symName: __ZNSt8__detail20_Prime_rehash_policy8_M_resetEm, symObjAddr: 0x2C8, symBinAddr: 0x1000029F0, symSize: 0x24 }
  - { offsetInCU: 0x45DAC, offset: 0x45DAC, size: 0x8, addend: 0x0, symName: __ZSt3minImERKT_S2_S2_, symObjAddr: 0x2EC, symBinAddr: 0x100002A14, symSize: 0x38 }
  - { offsetInCU: 0x45DE8, offset: 0x45DE8, size: 0x8, addend: 0x0, symName: __ZNKSt8__detail20_Prime_rehash_policy8_M_stateEv, symObjAddr: 0x2B0, symBinAddr: 0x1000029D8, symSize: 0x18 }
  - { offsetInCU: 0x45DF0, offset: 0x45DF0, size: 0x8, addend: 0x0, symName: __ZNSt8__detail20_Prime_rehash_policy8_M_resetEm, symObjAddr: 0x2C8, symBinAddr: 0x1000029F0, symSize: 0x24 }
  - { offsetInCU: 0x45E6C, offset: 0x45E6C, size: 0x8, addend: 0x0, symName: __ZNSt8__detail20_Prime_rehash_policyC1Ef, symObjAddr: 0x284, symBinAddr: 0x1000029AC, symSize: 0x2C }
  - { offsetInCU: 0x45E74, offset: 0x45E74, size: 0x8, addend: 0x0, symName: __ZNKSt8__detail20_Prime_rehash_policy8_M_stateEv, symObjAddr: 0x2B0, symBinAddr: 0x1000029D8, symSize: 0x18 }
  - { offsetInCU: 0x45E80, offset: 0x45E80, size: 0x8, addend: 0x0, symName: __ZNKSt8__detail18_Mod_range_hashingclEmm, symObjAddr: 0x254, symBinAddr: 0x10000297C, symSize: 0x30 }
  - { offsetInCU: 0x45E88, offset: 0x45E88, size: 0x8, addend: 0x0, symName: __ZNSt8__detail20_Prime_rehash_policyC1Ef, symObjAddr: 0x284, symBinAddr: 0x1000029AC, symSize: 0x2C }
  - { offsetInCU: 0x45F15, offset: 0x45F15, size: 0x8, addend: 0x0, symName: __ZNSt8__detail15_Hash_node_baseC1Ev, symObjAddr: 0x238, symBinAddr: 0x100002960, symSize: 0x1C }
  - { offsetInCU: 0x45F1D, offset: 0x45F1D, size: 0x8, addend: 0x0, symName: __ZNKSt8__detail18_Mod_range_hashingclEmm, symObjAddr: 0x254, symBinAddr: 0x10000297C, symSize: 0x30 }
  - { offsetInCU: 0x45F45, offset: 0x45F45, size: 0x8, addend: 0x0, symName: __ZNSt8__detail15_Hash_node_baseC2Ev, symObjAddr: 0x21C, symBinAddr: 0x100002944, symSize: 0x1C }
  - { offsetInCU: 0x45F4D, offset: 0x45F4D, size: 0x8, addend: 0x0, symName: __ZNSt8__detail15_Hash_node_baseC1Ev, symObjAddr: 0x238, symBinAddr: 0x100002960, symSize: 0x1C }
  - { offsetInCU: 0x45FA0, offset: 0x45FA0, size: 0x8, addend: 0x0, symName: __ZNSt7__cxx114stoiERKNS_12basic_stringIcSt11char_traitsIcESaIcEEEPmi, symObjAddr: 0x1D8, symBinAddr: 0x100002900, symSize: 0x44 }
  - { offsetInCU: 0x45FA8, offset: 0x45FA8, size: 0x8, addend: 0x0, symName: __ZNSt8__detail15_Hash_node_baseC2Ev, symObjAddr: 0x21C, symBinAddr: 0x100002944, symSize: 0x1C }
  - { offsetInCU: 0x45FB9, offset: 0x45FB9, size: 0x8, addend: 0x0, symName: __ZNSt10_Hash_impl4hashEPKvmm, symObjAddr: 0x1AC, symBinAddr: 0x1000028D4, symSize: 0x2C }
  - { offsetInCU: 0x45FC1, offset: 0x45FC1, size: 0x8, addend: 0x0, symName: __ZNSt7__cxx114stoiERKNS_12basic_stringIcSt11char_traitsIcESaIcEEEPmi, symObjAddr: 0x1D8, symBinAddr: 0x100002900, symSize: 0x44 }
  - { offsetInCU: 0x46010, offset: 0x46010, size: 0x8, addend: 0x0, symName: __ZNSt11char_traitsIcE6lengthEPKc, symObjAddr: 0x16C, symBinAddr: 0x100002894, symSize: 0x40 }
  - { offsetInCU: 0x46018, offset: 0x46018, size: 0x8, addend: 0x0, symName: __ZNSt10_Hash_impl4hashEPKvmm, symObjAddr: 0x1AC, symBinAddr: 0x1000028D4, symSize: 0x2C }
  - { offsetInCU: 0x46042, offset: 0x46042, size: 0x8, addend: 0x0, symName: __ZNSt11char_traitsIcE7compareEPKcS2_m, symObjAddr: 0x70, symBinAddr: 0x100002798, symSize: 0xFC }
  - { offsetInCU: 0x4604A, offset: 0x4604A, size: 0x8, addend: 0x0, symName: __ZNSt11char_traitsIcE6lengthEPKc, symObjAddr: 0x16C, symBinAddr: 0x100002894, symSize: 0x40 }
  - { offsetInCU: 0x460C4, offset: 0x460C4, size: 0x8, addend: 0x0, symName: __ZNSt11char_traitsIcE2ltERKcS2_, symObjAddr: 0x38, symBinAddr: 0x100002760, symSize: 0x38 }
  - { offsetInCU: 0x460CC, offset: 0x460CC, size: 0x8, addend: 0x0, symName: __ZNSt11char_traitsIcE7compareEPKcS2_m, symObjAddr: 0x70, symBinAddr: 0x100002798, symSize: 0xFC }
  - { offsetInCU: 0x46118, offset: 0x46118, size: 0x8, addend: 0x0, symName: __ZdlPvS_, symObjAddr: 0x20, symBinAddr: 0x100002748, symSize: 0x18 }
  - { offsetInCU: 0x46120, offset: 0x46120, size: 0x8, addend: 0x0, symName: __ZNSt11char_traitsIcE2ltERKcS2_, symObjAddr: 0x38, symBinAddr: 0x100002760, symSize: 0x38 }
  - { offsetInCU: 0x46158, offset: 0x46158, size: 0x8, addend: 0x0, symName: __ZnwmPv, symObjAddr: 0x8, symBinAddr: 0x100002730, symSize: 0x18 }
  - { offsetInCU: 0x46160, offset: 0x46160, size: 0x8, addend: 0x0, symName: __ZdlPvS_, symObjAddr: 0x20, symBinAddr: 0x100002748, symSize: 0x18 }
  - { offsetInCU: 0x461CF, offset: 0x461CF, size: 0x8, addend: 0x0, symName: __ZSt23__is_constant_evaluatedv, symObjAddr: 0x0, symBinAddr: 0x100002728, symSize: 0x8 }
  - { offsetInCU: 0x461D7, offset: 0x461D7, size: 0x8, addend: 0x0, symName: __ZnwmPv, symObjAddr: 0x8, symBinAddr: 0x100002730, symSize: 0x18 }
...
