---
triple:          'arm64-apple-darwin'
binary-path:     '/Users/kritiverma/Documents/Low Level Design in C++/Library Management System/main'
relocations:
  - { offsetInCU: 0x105, offset: 0x105, size: 0x8, addend: 0x0, symName: __ZSt23__is_constant_evaluatedv, symObjAddr: 0x0, symBinAddr: 0x10000251C, symSize: 0x8 }
  - { offsetInCU: 0x10D, offset: 0x10D, size: 0x8, addend: 0x0, symName: __ZSt19piecewise_construct, symObjAddr: 0xE0BC, symBinAddr: 0x1000127D8, symSize: 0x0 }
  - { offsetInCU: 0x195F, offset: 0x195F, size: 0x8, addend: 0x0, symName: __ZSt19piecewise_construct, symObjAddr: 0xE0BC, symBinAddr: 0x1000127D8, symSize: 0x0 }
  - { offsetInCU: 0x20971, offset: 0x20971, size: 0x8, addend: 0x0, symName: __ZStL8__ioinit, symObjAddr: 0x119A68, symBinAddr: 0x1000205B4, symSize: 0x0 }
  - { offsetInCU: 0x391AE, offset: 0x391AE, size: 0x8, addend: 0x0, symName: __ZNSt8__detail30__integer_to_chars_is_unsignedIjEE, symObjAddr: 0xE0BD, symBinAddr: 0x1000127D9, symSize: 0x0 }
  - { offsetInCU: 0x391C8, offset: 0x391C8, size: 0x8, addend: 0x0, symName: __ZNSt8__detail30__integer_to_chars_is_unsignedImEE, symObjAddr: 0xE0BE, symBinAddr: 0x1000127DA, symSize: 0x0 }
  - { offsetInCU: 0x391E2, offset: 0x391E2, size: 0x8, addend: 0x0, symName: __ZNSt8__detail30__integer_to_chars_is_unsignedIyEE, symObjAddr: 0xE0BF, symBinAddr: 0x1000127DB, symSize: 0x0 }
  - { offsetInCU: 0x3930D, offset: 0x3930D, size: 0x8, addend: 0x0, symName: __ZNSt8__detail30__integer_to_chars_is_unsignedIoEE, symObjAddr: 0xE0C0, symBinAddr: 0x1000127DC, symSize: 0x0 }
  - { offsetInCU: 0x3937E, offset: 0x3937E, size: 0x8, addend: 0x0, symName: __GLOBAL__sub_I_main.cpp, symObjAddr: 0xE0A8, symBinAddr: 0x1000105C4, symSize: 0x14 }
  - { offsetInCU: 0x39386, offset: 0x39386, size: 0x8, addend: 0x0, symName: __ZSt19piecewise_construct, symObjAddr: 0xE0BC, symBinAddr: 0x1000127D8, symSize: 0x0 }
  - { offsetInCU: 0x393AA, offset: 0x393AA, size: 0x8, addend: 0x0, symName: __Z41__static_initialization_and_destruction_0v, symObjAddr: 0xE06C, symBinAddr: 0x100010588, symSize: 0x3C }
  - { offsetInCU: 0x393B2, offset: 0x393B2, size: 0x8, addend: 0x0, symName: __GLOBAL__sub_I_main.cpp, symObjAddr: 0xE0A8, symBinAddr: 0x1000105C4, symSize: 0x14 }
  - { offsetInCU: 0x39462, offset: 0x39462, size: 0x8, addend: 0x0, symName: __ZSt7forwardIRKSt4pairI8BookItemNSt7__cxx1112basic_stringIcSt11char_traitsIcESaIcEEEEEOT_RNSt16remove_referenceISB_E4typeE, symObjAddr: 0xE058, symBinAddr: 0x100010574, symSize: 0x14 }
  - { offsetInCU: 0x3946A, offset: 0x3946A, size: 0x8, addend: 0x0, symName: __Z41__static_initialization_and_destruction_0v, symObjAddr: 0xE06C, symBinAddr: 0x100010588, symSize: 0x3C }
  - { offsetInCU: 0x393F0, offset: 0x393F0, size: 0x8, addend: 0x0, symName: __ZNK9__gnu_cxx17__normal_iteratorIPKSt4pairI8BookItemNSt7__cxx1112basic_stringIcSt11char_traitsIcESaIcEEEESt6vectorIS9_SaIS9_EEE4baseEv, symObjAddr: 0xE044, symBinAddr: 0x100010560, symSize: 0x14 }
  - { offsetInCU: 0x393F8, offset: 0x393F8, size: 0x8, addend: 0x0, symName: __ZSt7forwardIRKSt4pairI8BookItemNSt7__cxx1112basic_stringIcSt11char_traitsIcESaIcEEEEEOT_RNSt16remove_referenceISB_E4typeE, symObjAddr: 0xE058, symBinAddr: 0x100010574, symSize: 0x14 }
  - { offsetInCU: 0x3941F, offset: 0x3941F, size: 0x8, addend: 0x0, symName: __ZNSt10_Head_baseILm0ERKiLb0EE7_M_headERS2_, symObjAddr: 0xE02C, symBinAddr: 0x100010548, symSize: 0x18 }
  - { offsetInCU: 0x39427, offset: 0x39427, size: 0x8, addend: 0x0, symName: __ZNK9__gnu_cxx17__normal_iteratorIPKSt4pairI8BookItemNSt7__cxx1112basic_stringIcSt11char_traitsIcESaIcEEEESt6vectorIS9_SaIS9_EEE4baseEv, symObjAddr: 0xE044, symBinAddr: 0x100010560, symSize: 0x14 }
  - { offsetInCU: 0x39450, offset: 0x39450, size: 0x8, addend: 0x0, symName: __ZNSt10_Head_baseILm0ERKNSt7__cxx1112basic_stringIcSt11char_traitsIcESaIcEEELb0EE7_M_headERS8_, symObjAddr: 0xE014, symBinAddr: 0x100010530, symSize: 0x18 }
  - { offsetInCU: 0x39458, offset: 0x39458, size: 0x8, addend: 0x0, symName: __ZNSt10_Head_baseILm0ERKiLb0EE7_M_headERS2_, symObjAddr: 0xE02C, symBinAddr: 0x100010548, symSize: 0x18 }
  - { offsetInCU: 0x3959C, offset: 0x3959C, size: 0x8, addend: 0x0, symName: __ZSt10_ConstructISt4pairI8BookItemNSt7__cxx1112basic_stringIcSt11char_traitsIcESaIcEEEEJRKS8_EEvPT_DpOT0_, symObjAddr: 0xDF98, symBinAddr: 0x1000104B4, symSize: 0x7C }
  - { offsetInCU: 0x395A4, offset: 0x395A4, size: 0x8, addend: 0x0, symName: __ZNSt10_Head_baseILm0ERKNSt7__cxx1112basic_stringIcSt11char_traitsIcESaIcEEELb0EE7_M_headERS8_, symObjAddr: 0xE014, symBinAddr: 0x100010530, symSize: 0x18 }
  - { offsetInCU: 0x39559, offset: 0x39559, size: 0x8, addend: 0x0, symName: __ZNSt4pairI8BookItemNSt7__cxx1112basic_stringIcSt11char_traitsIcESaIcEEEEC1ERKS7_, symObjAddr: 0xDF38, symBinAddr: 0x100010454, symSize: 0x60 }
  - { offsetInCU: 0x39561, offset: 0x39561, size: 0x8, addend: 0x0, symName: __ZSt10_ConstructISt4pairI8BookItemNSt7__cxx1112basic_stringIcSt11char_traitsIcESaIcEEEEJRKS8_EEvPT_DpOT0_, symObjAddr: 0xDF98, symBinAddr: 0x1000104B4, symSize: 0x7C }
  - { offsetInCU: 0x39544, offset: 0x39544, size: 0x8, addend: 0x0, symName: __ZNK9__gnu_cxx17__normal_iteratorIPKSt4pairI8BookItemNSt7__cxx1112basic_stringIcSt11char_traitsIcESaIcEEEESt6vectorIS9_SaIS9_EEEdeEv, symObjAddr: 0xDF20, symBinAddr: 0x10001043C, symSize: 0x18 }
  - { offsetInCU: 0x3954C, offset: 0x3954C, size: 0x8, addend: 0x0, symName: __ZNSt4pairI8BookItemNSt7__cxx1112basic_stringIcSt11char_traitsIcESaIcEEEEC1ERKS7_, symObjAddr: 0xDF38, symBinAddr: 0x100010454, symSize: 0x60 }
  - { offsetInCU: 0x39573, offset: 0x39573, size: 0x8, addend: 0x0, symName: __ZN9__gnu_cxx17__normal_iteratorIPKSt4pairI8BookItemNSt7__cxx1112basic_stringIcSt11char_traitsIcESaIcEEEESt6vectorIS9_SaIS9_EEEppEv, symObjAddr: 0xDEF8, symBinAddr: 0x100010414, symSize: 0x28 }
  - { offsetInCU: 0x3957B, offset: 0x3957B, size: 0x8, addend: 0x0, symName: __ZNK9__gnu_cxx17__normal_iteratorIPKSt4pairI8BookItemNSt7__cxx1112basic_stringIcSt11char_traitsIcESaIcEEEESt6vectorIS9_SaIS9_EEEdeEv, symObjAddr: 0xDF20, symBinAddr: 0x10001043C, symSize: 0x18 }
  - { offsetInCU: 0x396CC, offset: 0x396CC, size: 0x8, addend: 0x0, symName: __ZN9__gnu_cxxneIPKSt4pairI8BookItemNSt7__cxx1112basic_stringIcSt11char_traitsIcESaIcEEEESt6vectorIS9_SaIS9_EEEEbRKNS_17__normal_iteratorIT_T0_EESK_, symObjAddr: 0xDEB4, symBinAddr: 0x1000103D0, symSize: 0x44 }
  - { offsetInCU: 0x396D4, offset: 0x396D4, size: 0x8, addend: 0x0, symName: __ZN9__gnu_cxx17__normal_iteratorIPKSt4pairI8BookItemNSt7__cxx1112basic_stringIcSt11char_traitsIcESaIcEEEESt6vectorIS9_SaIS9_EEEppEv, symObjAddr: 0xDEF8, symBinAddr: 0x100010414, symSize: 0x28 }
  - { offsetInCU: 0x3961C, offset: 0x3961C, size: 0x8, addend: 0x0, symName: __ZNSt11_Tuple_implILm0EJRKiEE7_M_headERS2_, symObjAddr: 0xDE98, symBinAddr: 0x1000103B4, symSize: 0x1C }
  - { offsetInCU: 0x39624, offset: 0x39624, size: 0x8, addend: 0x0, symName: __ZN9__gnu_cxxneIPKSt4pairI8BookItemNSt7__cxx1112basic_stringIcSt11char_traitsIcESaIcEEEESt6vectorIS9_SaIS9_EEEEbRKNS_17__normal_iteratorIT_T0_EESK_, symObjAddr: 0xDEB4, symBinAddr: 0x1000103D0, symSize: 0x44 }
  - { offsetInCU: 0x3964F, offset: 0x3964F, size: 0x8, addend: 0x0, symName: __ZNSt11_Tuple_implILm0EJRKNSt7__cxx1112basic_stringIcSt11char_traitsIcESaIcEEEEE7_M_headERS8_, symObjAddr: 0xDE7C, symBinAddr: 0x100010398, symSize: 0x1C }
  - { offsetInCU: 0x39657, offset: 0x39657, size: 0x8, addend: 0x0, symName: __ZNSt11_Tuple_implILm0EJRKiEE7_M_headERS2_, symObjAddr: 0xDE98, symBinAddr: 0x1000103B4, symSize: 0x1C }
  - { offsetInCU: 0x3983E, offset: 0x3983E, size: 0x8, addend: 0x0, symName: __ZSt16__do_uninit_copyIN9__gnu_cxx17__normal_iteratorIPKSt4pairI8BookItemNSt7__cxx1112basic_stringIcSt11char_traitsIcESaIcEEEESt6vectorISA_SaISA_EEEEPSA_ET0_T_SJ_SI_, symObjAddr: 0xDDD0, symBinAddr: 0x1000102EC, symSize: 0xAC }
  - { offsetInCU: 0x39846, offset: 0x39846, size: 0x8, addend: 0x0, symName: __ZNSt11_Tuple_implILm0EJRKNSt7__cxx1112basic_stringIcSt11char_traitsIcESaIcEEEEE7_M_headERS8_, symObjAddr: 0xDE7C, symBinAddr: 0x100010398, symSize: 0x1C }
  - { offsetInCU: 0x397BD, offset: 0x397BD, size: 0x8, addend: 0x0, symName: __ZSt12__get_helperILm0ERKiJEERT0_RSt11_Tuple_implIXT_EJS2_DpT1_EE, symObjAddr: 0xDDB4, symBinAddr: 0x1000102D0, symSize: 0x1C }
  - { offsetInCU: 0x397C5, offset: 0x397C5, size: 0x8, addend: 0x0, symName: __ZSt16__do_uninit_copyIN9__gnu_cxx17__normal_iteratorIPKSt4pairI8BookItemNSt7__cxx1112basic_stringIcSt11char_traitsIcESaIcEEEESt6vectorISA_SaISA_EEEEPSA_ET0_T_SJ_SI_, symObjAddr: 0xDDD0, symBinAddr: 0x1000102EC, symSize: 0xAC }
  - { offsetInCU: 0x39889, offset: 0x39889, size: 0x8, addend: 0x0, symName: __ZSt12__get_helperILm0ERKNSt7__cxx1112basic_stringIcSt11char_traitsIcESaIcEEEJEERT0_RSt11_Tuple_implIXT_EJS8_DpT1_EE, symObjAddr: 0xDD98, symBinAddr: 0x1000102B4, symSize: 0x1C }
  - { offsetInCU: 0x39891, offset: 0x39891, size: 0x8, addend: 0x0, symName: __ZSt12__get_helperILm0ERKiJEERT0_RSt11_Tuple_implIXT_EJS2_DpT1_EE, symObjAddr: 0xDDB4, symBinAddr: 0x1000102D0, symSize: 0x1C }
  - { offsetInCU: 0x398A3, offset: 0x398A3, size: 0x8, addend: 0x0, symName: __ZNSt12_Vector_baseI8BookItemSaIS0_EE17_Vector_impl_dataC2EOS3_, symObjAddr: 0xDD28, symBinAddr: 0x100010244, symSize: 0x70 }
  - { offsetInCU: 0x398AB, offset: 0x398AB, size: 0x8, addend: 0x0, symName: __ZSt12__get_helperILm0ERKNSt7__cxx1112basic_stringIcSt11char_traitsIcESaIcEEEJEERT0_RSt11_Tuple_implIXT_EJS8_DpT1_EE, symObjAddr: 0xDD98, symBinAddr: 0x1000102B4, symSize: 0x1C }
  - { offsetInCU: 0x3997F, offset: 0x3997F, size: 0x8, addend: 0x0, symName: __ZSt4moveIRNSt12_Vector_baseI8BookItemSaIS1_EE12_Vector_implEEONSt16remove_referenceIT_E4typeEOS7_, symObjAddr: 0xDD14, symBinAddr: 0x100010230, symSize: 0x14 }
  - { offsetInCU: 0x39987, offset: 0x39987, size: 0x8, addend: 0x0, symName: __ZNSt12_Vector_baseI8BookItemSaIS0_EE17_Vector_impl_dataC2EOS3_, symObjAddr: 0xDD28, symBinAddr: 0x100010244, symSize: 0x70 }
  - { offsetInCU: 0x3992A, offset: 0x3992A, size: 0x8, addend: 0x0, symName: __ZNSt20__uninitialized_copyILb0EE13__uninit_copyIN9__gnu_cxx17__normal_iteratorIPKSt4pairI8BookItemNSt7__cxx1112basic_stringIcSt11char_traitsIcESaIcEEEESt6vectorISC_SaISC_EEEEPSC_EET0_T_SL_SK_, symObjAddr: 0xDCE8, symBinAddr: 0x100010204, symSize: 0x2C }
  - { offsetInCU: 0x39932, offset: 0x39932, size: 0x8, addend: 0x0, symName: __ZSt4moveIRNSt12_Vector_baseI8BookItemSaIS1_EE12_Vector_implEEONSt16remove_referenceIT_E4typeEOS7_, symObjAddr: 0xDD14, symBinAddr: 0x100010230, symSize: 0x14 }
  - { offsetInCU: 0x39A15, offset: 0x39A15, size: 0x8, addend: 0x0, symName: __ZSt7forwardIRKiEOT_RNSt16remove_referenceIS2_E4typeE, symObjAddr: 0xDCD4, symBinAddr: 0x1000101F0, symSize: 0x14 }
  - { offsetInCU: 0x39A1D, offset: 0x39A1D, size: 0x8, addend: 0x0, symName: __ZNSt20__uninitialized_copyILb0EE13__uninit_copyIN9__gnu_cxx17__normal_iteratorIPKSt4pairI8BookItemNSt7__cxx1112basic_stringIcSt11char_traitsIcESaIcEEEESt6vectorISC_SaISC_EEEEPSC_EET0_T_SL_SK_, symObjAddr: 0xDCE8, symBinAddr: 0x100010204, symSize: 0x2C }
  - { offsetInCU: 0x39A7B, offset: 0x39A7B, size: 0x8, addend: 0x0, symName: __ZSt3getILm0EJRKiEERNSt13tuple_elementIXT_ESt5tupleIJDpT0_EEE4typeERS6_, symObjAddr: 0xDCB8, symBinAddr: 0x1000101D4, symSize: 0x1C }
  - { offsetInCU: 0x39A83, offset: 0x39A83, size: 0x8, addend: 0x0, symName: __ZSt7forwardIRKiEOT_RNSt16remove_referenceIS2_E4typeE, symObjAddr: 0xDCD4, symBinAddr: 0x1000101F0, symSize: 0x14 }
  - { offsetInCU: 0x39A79, offset: 0x39A79, size: 0x8, addend: 0x0, symName: __ZNSt15__new_allocatorIPNSt8__detail15_Hash_node_baseEE8allocateEmPKv, symObjAddr: 0xDC3C, symBinAddr: 0x100010158, symSize: 0x7C }
  - { offsetInCU: 0x39A81, offset: 0x39A81, size: 0x8, addend: 0x0, symName: __ZSt3getILm0EJRKiEERNSt13tuple_elementIXT_ESt5tupleIJDpT0_EEE4typeERS6_, symObjAddr: 0xDCB8, symBinAddr: 0x1000101D4, symSize: 0x1C }
  - { offsetInCU: 0x39BE2, offset: 0x39BE2, size: 0x8, addend: 0x0, symName: __ZSt3getILm0EJRKNSt7__cxx1112basic_stringIcSt11char_traitsIcESaIcEEEEERNSt13tuple_elementIXT_ESt5tupleIJDpT0_EEE4typeERSC_, symObjAddr: 0xDC20, symBinAddr: 0x10001013C, symSize: 0x1C }
  - { offsetInCU: 0x39BEA, offset: 0x39BEA, size: 0x8, addend: 0x0, symName: __ZNSt15__new_allocatorIPNSt8__detail15_Hash_node_baseEE8allocateEmPKv, symObjAddr: 0xDC3C, symBinAddr: 0x100010158, symSize: 0x7C }
  - { offsetInCU: 0x39BC8, offset: 0x39BC8, size: 0x8, addend: 0x0, symName: __ZNSt12_Vector_baseI8BookItemSaIS0_EE12_Vector_implC1EOS3_, symObjAddr: 0xDBB4, symBinAddr: 0x1000100D0, symSize: 0x6C }
  - { offsetInCU: 0x39BD0, offset: 0x39BD0, size: 0x8, addend: 0x0, symName: __ZSt3getILm0EJRKNSt7__cxx1112basic_stringIcSt11char_traitsIcESaIcEEEEERNSt13tuple_elementIXT_ESt5tupleIJDpT0_EEE4typeERSC_, symObjAddr: 0xDC20, symBinAddr: 0x10001013C, symSize: 0x1C }
  - { offsetInCU: 0x39DD0, offset: 0x39DD0, size: 0x8, addend: 0x0, symName: __ZSt18uninitialized_copyIN9__gnu_cxx17__normal_iteratorIPKSt4pairI8BookItemNSt7__cxx1112basic_stringIcSt11char_traitsIcESaIcEEEESt6vectorISA_SaISA_EEEEPSA_ET0_T_SJ_SI_, symObjAddr: 0xDB80, symBinAddr: 0x10001009C, symSize: 0x34 }
  - { offsetInCU: 0x39DD8, offset: 0x39DD8, size: 0x8, addend: 0x0, symName: __ZNSt12_Vector_baseI8BookItemSaIS0_EE12_Vector_implC1EOS3_, symObjAddr: 0xDBB4, symBinAddr: 0x1000100D0, symSize: 0x6C }
  - { offsetInCU: 0x39D8C, offset: 0x39D8C, size: 0x8, addend: 0x0, symName: __ZN9__gnu_cxx17__normal_iteratorIPKSt4pairI8BookItemNSt7__cxx1112basic_stringIcSt11char_traitsIcESaIcEEEESt6vectorIS9_SaIS9_EEEC1ERKSB_, symObjAddr: 0xDB58, symBinAddr: 0x100010074, symSize: 0x28 }
  - { offsetInCU: 0x39D94, offset: 0x39D94, size: 0x8, addend: 0x0, symName: __ZSt18uninitialized_copyIN9__gnu_cxx17__normal_iteratorIPKSt4pairI8BookItemNSt7__cxx1112basic_stringIcSt11char_traitsIcESaIcEEEESt6vectorISA_SaISA_EEEEPSA_ET0_T_SJ_SI_, symObjAddr: 0xDB80, symBinAddr: 0x10001009C, symSize: 0x34 }
  - { offsetInCU: 0x39D41, offset: 0x39D41, size: 0x8, addend: 0x0, symName: __ZNSt12_Vector_baseISt4pairI8BookItemNSt7__cxx1112basic_stringIcSt11char_traitsIcESaIcEEEESaIS8_EE17_M_create_storageEm, symObjAddr: 0xDAE4, symBinAddr: 0x100010000, symSize: 0x74 }
  - { offsetInCU: 0x39D49, offset: 0x39D49, size: 0x8, addend: 0x0, symName: __ZN9__gnu_cxx17__normal_iteratorIPKSt4pairI8BookItemNSt7__cxx1112basic_stringIcSt11char_traitsIcESaIcEEEESt6vectorIS9_SaIS9_EEEC1ERKSB_, symObjAddr: 0xDB58, symBinAddr: 0x100010074, symSize: 0x28 }
  - { offsetInCU: 0x39E2A, offset: 0x39E2A, size: 0x8, addend: 0x0, symName: __ZNSt12_Vector_baseISt4pairI8BookItemNSt7__cxx1112basic_stringIcSt11char_traitsIcESaIcEEEESaIS8_EE12_Vector_implC1ERKS9_, symObjAddr: 0xDA98, symBinAddr: 0x10000FFB4, symSize: 0x4C }
  - { offsetInCU: 0x39E32, offset: 0x39E32, size: 0x8, addend: 0x0, symName: __ZNSt12_Vector_baseISt4pairI8BookItemNSt7__cxx1112basic_stringIcSt11char_traitsIcESaIcEEEESaIS8_EE17_M_create_storageEm, symObjAddr: 0xDAE4, symBinAddr: 0x100010000, symSize: 0x74 }
  - { offsetInCU: 0x39F98, offset: 0x39F98, size: 0x8, addend: 0x0, symName: __ZNSt4pairIKiiEC1IJRS0_EJLm0EEJEJEEERSt5tupleIJDpT_EERS4_IJDpT1_EESt12_Index_tupleIJXspT0_EEESD_IJXspT2_EEE, symObjAddr: 0xDA50, symBinAddr: 0x10000FF6C, symSize: 0x48 }
  - { offsetInCU: 0x39FA0, offset: 0x39FA0, size: 0x8, addend: 0x0, symName: __ZNSt12_Vector_baseISt4pairI8BookItemNSt7__cxx1112basic_stringIcSt11char_traitsIcESaIcEEEESaIS8_EE12_Vector_implC1ERKS9_, symObjAddr: 0xDA98, symBinAddr: 0x10000FFB4, symSize: 0x4C }
  - { offsetInCU: 0x3A02B, offset: 0x3A02B, size: 0x8, addend: 0x0, symName: __ZSt12__to_addressIPNSt8__detail15_Hash_node_baseEEPT_S4_, symObjAddr: 0xDA3C, symBinAddr: 0x10000FF58, symSize: 0x14 }
  - { offsetInCU: 0x3A033, offset: 0x3A033, size: 0x8, addend: 0x0, symName: __ZNSt4pairIKiiEC1IJRS0_EJLm0EEJEJEEERSt5tupleIJDpT_EERS4_IJDpT1_EESt12_Index_tupleIJXspT0_EEESD_IJXspT2_EEE, symObjAddr: 0xDA50, symBinAddr: 0x10000FF6C, symSize: 0x48 }
  - { offsetInCU: 0x3A158, offset: 0x3A158, size: 0x8, addend: 0x0, symName: __ZNSt4pairIKNSt7__cxx1112basic_stringIcSt11char_traitsIcESaIcEEEiEC1IJRS6_EJLm0EEJEJEEERSt5tupleIJDpT_EERSA_IJDpT1_EESt12_Index_tupleIJXspT0_EEESJ_IJXspT2_EEE, symObjAddr: 0xD9E8, symBinAddr: 0x10000FF04, symSize: 0x54 }
  - { offsetInCU: 0x3A160, offset: 0x3A160, size: 0x8, addend: 0x0, symName: __ZSt12__to_addressIPNSt8__detail15_Hash_node_baseEEPT_S4_, symObjAddr: 0xDA3C, symBinAddr: 0x10000FF58, symSize: 0x14 }
  - { offsetInCU: 0x3A211, offset: 0x3A211, size: 0x8, addend: 0x0, symName: __ZN4RackC1EOS_, symObjAddr: 0xD9C0, symBinAddr: 0x10000FEDC, symSize: 0x28 }
  - { offsetInCU: 0x3A219, offset: 0x3A219, size: 0x8, addend: 0x0, symName: __ZNSt4pairIKNSt7__cxx1112basic_stringIcSt11char_traitsIcESaIcEEEiEC1IJRS6_EJLm0EEJEJEEERSt5tupleIJDpT_EERSA_IJDpT1_EESt12_Index_tupleIJXspT0_EEESJ_IJXspT2_EEE, symObjAddr: 0xD9E8, symBinAddr: 0x10000FF04, symSize: 0x54 }
  - { offsetInCU: 0x3A289, offset: 0x3A289, size: 0x8, addend: 0x0, symName: __ZNSt6vectorI8BookItemSaIS0_EEC1EOS2_, symObjAddr: 0xD998, symBinAddr: 0x10000FEB4, symSize: 0x28 }
  - { offsetInCU: 0x3A291, offset: 0x3A291, size: 0x8, addend: 0x0, symName: __ZN4RackC1EOS_, symObjAddr: 0xD9C0, symBinAddr: 0x10000FEDC, symSize: 0x28 }
  - { offsetInCU: 0x3A2F1, offset: 0x3A2F1, size: 0x8, addend: 0x0, symName: __ZNSt12_Vector_baseI8BookItemSaIS0_EEC2EOS2_, symObjAddr: 0xD970, symBinAddr: 0x10000FE8C, symSize: 0x28 }
  - { offsetInCU: 0x3A2F9, offset: 0x3A2F9, size: 0x8, addend: 0x0, symName: __ZNSt6vectorI8BookItemSaIS0_EEC1EOS2_, symObjAddr: 0xD998, symBinAddr: 0x10000FEB4, symSize: 0x28 }
  - { offsetInCU: 0x3A34B, offset: 0x3A34B, size: 0x8, addend: 0x0, symName: __ZSt7forwardI4RackEOT_RNSt16remove_referenceIS1_E4typeE, symObjAddr: 0xD95C, symBinAddr: 0x10000FE78, symSize: 0x14 }
  - { offsetInCU: 0x3A353, offset: 0x3A353, size: 0x8, addend: 0x0, symName: __ZNSt12_Vector_baseI8BookItemSaIS0_EEC2EOS2_, symObjAddr: 0xD970, symBinAddr: 0x10000FE8C, symSize: 0x28 }
  - { offsetInCU: 0x3A3E9, offset: 0x3A3E9, size: 0x8, addend: 0x0, symName: __ZSt11__addressofINSt8__detail10_Hash_nodeISt4pairIKiiELb0EEEEPT_RS6_, symObjAddr: 0xD948, symBinAddr: 0x10000FE64, symSize: 0x14 }
  - { offsetInCU: 0x3A3F1, offset: 0x3A3F1, size: 0x8, addend: 0x0, symName: __ZSt7forwardI4RackEOT_RNSt16remove_referenceIS1_E4typeE, symObjAddr: 0xD95C, symBinAddr: 0x10000FE78, symSize: 0x14 }
  - { offsetInCU: 0x3A482, offset: 0x3A482, size: 0x8, addend: 0x0, symName: __ZSt11__addressofINSt8__detail10_Hash_nodeISt4pairIKNSt7__cxx1112basic_stringIcSt11char_traitsIcESaIcEEEiELb1EEEEPT_RSC_, symObjAddr: 0xD934, symBinAddr: 0x10000FE50, symSize: 0x14 }
  - { offsetInCU: 0x3A48A, offset: 0x3A48A, size: 0x8, addend: 0x0, symName: __ZSt11__addressofINSt8__detail10_Hash_nodeISt4pairIKiiELb0EEEEPT_RS6_, symObjAddr: 0xD948, symBinAddr: 0x10000FE64, symSize: 0x14 }
  - { offsetInCU: 0x3A4AC, offset: 0x3A4AC, size: 0x8, addend: 0x0, symName: __ZSt7forwardI8BookItemEOT_RNSt16remove_referenceIS1_E4typeE, symObjAddr: 0xD920, symBinAddr: 0x10000FE3C, symSize: 0x14 }
  - { offsetInCU: 0x3A4B4, offset: 0x3A4B4, size: 0x8, addend: 0x0, symName: __ZSt11__addressofINSt8__detail10_Hash_nodeISt4pairIKNSt7__cxx1112basic_stringIcSt11char_traitsIcESaIcEEEiELb1EEEEPT_RSC_, symObjAddr: 0xD934, symBinAddr: 0x10000FE50, symSize: 0x14 }
  - { offsetInCU: 0x3A697, offset: 0x3A697, size: 0x8, addend: 0x0, symName: __ZSt22__uninitialized_copy_aIN9__gnu_cxx17__normal_iteratorIPKSt4pairI8BookItemNSt7__cxx1112basic_stringIcSt11char_traitsIcESaIcEEEESt6vectorISA_SaISA_EEEEPSA_SA_ET0_T_SJ_SI_RSaIT1_E, symObjAddr: 0xD8F0, symBinAddr: 0x10000FE0C, symSize: 0x30 }
  - { offsetInCU: 0x3A69F, offset: 0x3A69F, size: 0x8, addend: 0x0, symName: __ZSt7forwardI8BookItemEOT_RNSt16remove_referenceIS1_E4typeE, symObjAddr: 0xD920, symBinAddr: 0x10000FE3C, symSize: 0x14 }
  - { offsetInCU: 0x3A54C, offset: 0x3A54C, size: 0x8, addend: 0x0, symName: __ZNKSt6vectorISt4pairI8BookItemNSt7__cxx1112basic_stringIcSt11char_traitsIcESaIcEEEESaIS8_EE3endEv, symObjAddr: 0xD8C8, symBinAddr: 0x10000FDE4, symSize: 0x28 }
  - { offsetInCU: 0x3A554, offset: 0x3A554, size: 0x8, addend: 0x0, symName: __ZSt22__uninitialized_copy_aIN9__gnu_cxx17__normal_iteratorIPKSt4pairI8BookItemNSt7__cxx1112basic_stringIcSt11char_traitsIcESaIcEEEESt6vectorISA_SaISA_EEEEPSA_SA_ET0_T_SJ_SI_RSaIT1_E, symObjAddr: 0xD8F0, symBinAddr: 0x10000FE0C, symSize: 0x30 }
  - { offsetInCU: 0x3A57B, offset: 0x3A57B, size: 0x8, addend: 0x0, symName: __ZNKSt6vectorISt4pairI8BookItemNSt7__cxx1112basic_stringIcSt11char_traitsIcESaIcEEEESaIS8_EE5beginEv, symObjAddr: 0xD8A4, symBinAddr: 0x10000FDC0, symSize: 0x24 }
  - { offsetInCU: 0x3A583, offset: 0x3A583, size: 0x8, addend: 0x0, symName: __ZNKSt6vectorISt4pairI8BookItemNSt7__cxx1112basic_stringIcSt11char_traitsIcESaIcEEEESaIS8_EE3endEv, symObjAddr: 0xD8C8, symBinAddr: 0x10000FDE4, symSize: 0x28 }
  - { offsetInCU: 0x3A655, offset: 0x3A655, size: 0x8, addend: 0x0, symName: __ZNSt12_Vector_baseISt4pairI8BookItemNSt7__cxx1112basic_stringIcSt11char_traitsIcESaIcEEEESaIS8_EEC2EmRKS9_, symObjAddr: 0xD850, symBinAddr: 0x10000FD6C, symSize: 0x54 }
  - { offsetInCU: 0x3A65D, offset: 0x3A65D, size: 0x8, addend: 0x0, symName: __ZNKSt6vectorISt4pairI8BookItemNSt7__cxx1112basic_stringIcSt11char_traitsIcESaIcEEEESaIS8_EE5beginEv, symObjAddr: 0xD8A4, symBinAddr: 0x10000FDC0, symSize: 0x24 }
  - { offsetInCU: 0x3A79B, offset: 0x3A79B, size: 0x8, addend: 0x0, symName: __ZSt19__relocate_object_aISt6vectorINSt7__cxx1112basic_stringIcSt11char_traitsIcESaIcEEESaIS6_EES8_SaIS8_EEvPT_PT0_RT1_, symObjAddr: 0xD780, symBinAddr: 0x10000FC9C, symSize: 0xD0 }
  - { offsetInCU: 0x3A7A3, offset: 0x3A7A3, size: 0x8, addend: 0x0, symName: __ZNSt12_Vector_baseISt4pairI8BookItemNSt7__cxx1112basic_stringIcSt11char_traitsIcESaIcEEEESaIS8_EEC2EmRKS9_, symObjAddr: 0xD850, symBinAddr: 0x10000FD6C, symSize: 0x54 }
  - { offsetInCU: 0x3A85A, offset: 0x3A85A, size: 0x8, addend: 0x0, symName: __ZNSt8__detail16_Hashtable_allocISaINS_10_Hash_nodeISt4pairIKiiELb0EEEEE19_M_allocate_bucketsEm, symObjAddr: 0xD6C8, symBinAddr: 0x10000FBE4, symSize: 0xB8 }
  - { offsetInCU: 0x3A862, offset: 0x3A862, size: 0x8, addend: 0x0, symName: __ZSt19__relocate_object_aISt6vectorINSt7__cxx1112basic_stringIcSt11char_traitsIcESaIcEEESaIS6_EES8_SaIS8_EEvPT_PT0_RT1_, symObjAddr: 0xD780, symBinAddr: 0x10000FC9C, symSize: 0xD0 }
  - { offsetInCU: 0x3AA61, offset: 0x3AA61, size: 0x8, addend: 0x0, symName: __ZNSt4pairIKiiEC1IJRS0_EJEEESt21piecewise_construct_tSt5tupleIJDpT_EES5_IJDpT0_EE, symObjAddr: 0xD68C, symBinAddr: 0x10000FBA8, symSize: 0x3C }
  - { offsetInCU: 0x3AA69, offset: 0x3AA69, size: 0x8, addend: 0x0, symName: __ZNSt8__detail16_Hashtable_allocISaINS_10_Hash_nodeISt4pairIKiiELb0EEEEE19_M_allocate_bucketsEm, symObjAddr: 0xD6C8, symBinAddr: 0x10000FBE4, symSize: 0xB8 }
  - { offsetInCU: 0x3AACD, offset: 0x3AACD, size: 0x8, addend: 0x0, symName: __ZNSt11_Tuple_implILm0EJRKiEEC2EOS2_, symObjAddr: 0xD664, symBinAddr: 0x10000FB80, symSize: 0x28 }
  - { offsetInCU: 0x3AAD5, offset: 0x3AAD5, size: 0x8, addend: 0x0, symName: __ZNSt4pairIKiiEC1IJRS0_EJEEESt21piecewise_construct_tSt5tupleIJDpT_EES5_IJDpT0_EE, symObjAddr: 0xD68C, symBinAddr: 0x10000FBA8, symSize: 0x3C }
  - { offsetInCU: 0x3AB00, offset: 0x3AB00, size: 0x8, addend: 0x0, symName: __ZNSt8__detail16_Hashtable_allocISaINS_10_Hash_nodeISt4pairIKNSt7__cxx1112basic_stringIcSt11char_traitsIcESaIcEEEiELb1EEEEE19_M_allocate_bucketsEm, symObjAddr: 0xD5AC, symBinAddr: 0x10000FAC8, symSize: 0xB8 }
  - { offsetInCU: 0x3AB08, offset: 0x3AB08, size: 0x8, addend: 0x0, symName: __ZNSt11_Tuple_implILm0EJRKiEEC2EOS2_, symObjAddr: 0xD664, symBinAddr: 0x10000FB80, symSize: 0x28 }
  - { offsetInCU: 0x3AD3A, offset: 0x3AD3A, size: 0x8, addend: 0x0, symName: __ZNSt4pairIKNSt7__cxx1112basic_stringIcSt11char_traitsIcESaIcEEEiEC1IJRS6_EJEEESt21piecewise_construct_tSt5tupleIJDpT_EESB_IJDpT0_EE, symObjAddr: 0xD570, symBinAddr: 0x10000FA8C, symSize: 0x3C }
  - { offsetInCU: 0x3AD42, offset: 0x3AD42, size: 0x8, addend: 0x0, symName: __ZNSt8__detail16_Hashtable_allocISaINS_10_Hash_nodeISt4pairIKNSt7__cxx1112basic_stringIcSt11char_traitsIcESaIcEEEiELb1EEEEE19_M_allocate_bucketsEm, symObjAddr: 0xD5AC, symBinAddr: 0x10000FAC8, symSize: 0xB8 }
  - { offsetInCU: 0x3ADA6, offset: 0x3ADA6, size: 0x8, addend: 0x0, symName: __ZNSt11_Tuple_implILm0EJRKNSt7__cxx1112basic_stringIcSt11char_traitsIcESaIcEEEEEC2EOS8_, symObjAddr: 0xD548, symBinAddr: 0x10000FA64, symSize: 0x28 }
  - { offsetInCU: 0x3ADAE, offset: 0x3ADAE, size: 0x8, addend: 0x0, symName: __ZNSt4pairIKNSt7__cxx1112basic_stringIcSt11char_traitsIcESaIcEEEiEC1IJRS6_EJEEESt21piecewise_construct_tSt5tupleIJDpT_EESB_IJDpT0_EE, symObjAddr: 0xD570, symBinAddr: 0x10000FA8C, symSize: 0x3C }
  - { offsetInCU: 0x3ADAB, offset: 0x3ADAB, size: 0x8, addend: 0x0, symName: __ZNK9__gnu_cxx16__aligned_bufferISt4pairIKiiEE7_M_addrEv, symObjAddr: 0xD534, symBinAddr: 0x10000FA50, symSize: 0x14 }
  - { offsetInCU: 0x3ADB3, offset: 0x3ADB3, size: 0x8, addend: 0x0, symName: __ZNSt11_Tuple_implILm0EJRKNSt7__cxx1112basic_stringIcSt11char_traitsIcESaIcEEEEEC2EOS8_, symObjAddr: 0xD548, symBinAddr: 0x10000FA64, symSize: 0x28 }
  - { offsetInCU: 0x3ADE3, offset: 0x3ADE3, size: 0x8, addend: 0x0, symName: __ZNK9__gnu_cxx16__aligned_bufferISt4pairIKNSt7__cxx1112basic_stringIcSt11char_traitsIcESaIcEEEiEE7_M_addrEv, symObjAddr: 0xD520, symBinAddr: 0x10000FA3C, symSize: 0x14 }
  - { offsetInCU: 0x3ADEB, offset: 0x3ADEB, size: 0x8, addend: 0x0, symName: __ZNK9__gnu_cxx16__aligned_bufferISt4pairIKiiEE7_M_addrEv, symObjAddr: 0xD534, symBinAddr: 0x10000FA50, symSize: 0x14 }
  - { offsetInCU: 0x3AE69, offset: 0x3AE69, size: 0x8, addend: 0x0, symName: __ZSt10_ConstructI8BookItemJRKS0_EEvPT_DpOT0_, symObjAddr: 0xD4A4, symBinAddr: 0x10000F9C0, symSize: 0x7C }
  - { offsetInCU: 0x3AE71, offset: 0x3AE71, size: 0x8, addend: 0x0, symName: __ZNK9__gnu_cxx16__aligned_bufferISt4pairIKNSt7__cxx1112basic_stringIcSt11char_traitsIcESaIcEEEiEE7_M_addrEv, symObjAddr: 0xD520, symBinAddr: 0x10000FA3C, symSize: 0x14 }
  - { offsetInCU: 0x3AE78, offset: 0x3AE78, size: 0x8, addend: 0x0, symName: __ZNK9__gnu_cxx17__normal_iteratorIPK8BookItemSt6vectorIS1_SaIS1_EEEdeEv, symObjAddr: 0xD48C, symBinAddr: 0x10000F9A8, symSize: 0x18 }
  - { offsetInCU: 0x3AE80, offset: 0x3AE80, size: 0x8, addend: 0x0, symName: __ZSt10_ConstructI8BookItemJRKS0_EEvPT_DpOT0_, symObjAddr: 0xD4A4, symBinAddr: 0x10000F9C0, symSize: 0x7C }
  - { offsetInCU: 0x3AEA7, offset: 0x3AEA7, size: 0x8, addend: 0x0, symName: __ZN9__gnu_cxx17__normal_iteratorIPK8BookItemSt6vectorIS1_SaIS1_EEEppEv, symObjAddr: 0xD464, symBinAddr: 0x10000F980, symSize: 0x28 }
  - { offsetInCU: 0x3AEAF, offset: 0x3AEAF, size: 0x8, addend: 0x0, symName: __ZNK9__gnu_cxx17__normal_iteratorIPK8BookItemSt6vectorIS1_SaIS1_EEEdeEv, symObjAddr: 0xD48C, symBinAddr: 0x10000F9A8, symSize: 0x18 }
  - { offsetInCU: 0x3AF66, offset: 0x3AF66, size: 0x8, addend: 0x0, symName: __ZN9__gnu_cxxneIPK8BookItemSt6vectorIS1_SaIS1_EEEEbRKNS_17__normal_iteratorIT_T0_EESC_, symObjAddr: 0xD420, symBinAddr: 0x10000F93C, symSize: 0x44 }
  - { offsetInCU: 0x3AF6E, offset: 0x3AF6E, size: 0x8, addend: 0x0, symName: __ZN9__gnu_cxx17__normal_iteratorIPK8BookItemSt6vectorIS1_SaIS1_EEEppEv, symObjAddr: 0xD464, symBinAddr: 0x10000F980, symSize: 0x28 }
  - { offsetInCU: 0x3B02F, offset: 0x3B02F, size: 0x8, addend: 0x0, symName: __ZSt4moveIR4RackEONSt16remove_referenceIT_E4typeEOS3_, symObjAddr: 0xD40C, symBinAddr: 0x10000F928, symSize: 0x14 }
  - { offsetInCU: 0x3B037, offset: 0x3B037, size: 0x8, addend: 0x0, symName: __ZN9__gnu_cxxneIPK8BookItemSt6vectorIS1_SaIS1_EEEEbRKNS_17__normal_iteratorIT_T0_EESC_, symObjAddr: 0xD420, symBinAddr: 0x10000F93C, symSize: 0x44 }
  - { offsetInCU: 0x3B0CC, offset: 0x3B0CC, size: 0x8, addend: 0x0, symName: __ZSt9addressofINSt8__detail10_Hash_nodeISt4pairIKiiELb0EEEEPT_RS6_, symObjAddr: 0xD3F0, symBinAddr: 0x10000F90C, symSize: 0x1C }
  - { offsetInCU: 0x3B0D4, offset: 0x3B0D4, size: 0x8, addend: 0x0, symName: __ZSt4moveIR4RackEONSt16remove_referenceIT_E4typeEOS3_, symObjAddr: 0xD40C, symBinAddr: 0x10000F928, symSize: 0x14 }
  - { offsetInCU: 0x3B0F2, offset: 0x3B0F2, size: 0x8, addend: 0x0, symName: __ZSt11__addressofIPNSt8__detail15_Hash_node_baseEEPT_RS3_, symObjAddr: 0xD3DC, symBinAddr: 0x10000F8F8, symSize: 0x14 }
  - { offsetInCU: 0x3B0FA, offset: 0x3B0FA, size: 0x8, addend: 0x0, symName: __ZSt9addressofINSt8__detail10_Hash_nodeISt4pairIKiiELb0EEEEPT_RS6_, symObjAddr: 0xD3F0, symBinAddr: 0x10000F90C, symSize: 0x1C }
  - { offsetInCU: 0x3B1AF, offset: 0x3B1AF, size: 0x8, addend: 0x0, symName: __ZSt9addressofINSt8__detail10_Hash_nodeISt4pairIKNSt7__cxx1112basic_stringIcSt11char_traitsIcESaIcEEEiELb1EEEEPT_RSC_, symObjAddr: 0xD3C0, symBinAddr: 0x10000F8DC, symSize: 0x1C }
  - { offsetInCU: 0x3B1B7, offset: 0x3B1B7, size: 0x8, addend: 0x0, symName: __ZSt11__addressofIPNSt8__detail15_Hash_node_baseEEPT_RS3_, symObjAddr: 0xD3DC, symBinAddr: 0x10000F8F8, symSize: 0x14 }
  - { offsetInCU: 0x3B263, offset: 0x3B263, size: 0x8, addend: 0x0, symName: __ZSt19__relocate_object_aISt4pairI8BookItemNSt7__cxx1112basic_stringIcSt11char_traitsIcESaIcEEEES8_SaIS8_EEvPT_PT0_RT1_, symObjAddr: 0xD2F0, symBinAddr: 0x10000F80C, symSize: 0xD0 }
  - { offsetInCU: 0x3B26B, offset: 0x3B26B, size: 0x8, addend: 0x0, symName: __ZSt9addressofINSt8__detail10_Hash_nodeISt4pairIKNSt7__cxx1112basic_stringIcSt11char_traitsIcESaIcEEEiELb1EEEEPT_RSC_, symObjAddr: 0xD3C0, symBinAddr: 0x10000F8DC, symSize: 0x1C }
  - { offsetInCU: 0x3B37B, offset: 0x3B37B, size: 0x8, addend: 0x0, symName: __ZSt4moveIR8BookItemEONSt16remove_referenceIT_E4typeEOS3_, symObjAddr: 0xD2DC, symBinAddr: 0x10000F7F8, symSize: 0x14 }
  - { offsetInCU: 0x3B383, offset: 0x3B383, size: 0x8, addend: 0x0, symName: __ZSt19__relocate_object_aISt4pairI8BookItemNSt7__cxx1112basic_stringIcSt11char_traitsIcESaIcEEEES8_SaIS8_EEvPT_PT0_RT1_, symObjAddr: 0xD2F0, symBinAddr: 0x10000F80C, symSize: 0xD0 }
  - { offsetInCU: 0x3B448, offset: 0x3B448, size: 0x8, addend: 0x0, symName: __ZNSt6vectorISt4pairI8BookItemNSt7__cxx1112basic_stringIcSt11char_traitsIcESaIcEEEESaIS8_EEC1ERKSA_, symObjAddr: 0xD1C8, symBinAddr: 0x10000F6E4, symSize: 0x114 }
  - { offsetInCU: 0x3B450, offset: 0x3B450, size: 0x8, addend: 0x0, symName: __ZSt4moveIR8BookItemEONSt16remove_referenceIT_E4typeEOS3_, symObjAddr: 0xD2DC, symBinAddr: 0x10000F7F8, symSize: 0x14 }
  - { offsetInCU: 0x3B527, offset: 0x3B527, size: 0x8, addend: 0x0, symName: __ZNSt15__new_allocatorISt10_List_nodeI11BookLendingEE8allocateEmPKv, symObjAddr: 0xD138, symBinAddr: 0x10000F654, symSize: 0x90 }
  - { offsetInCU: 0x3B52F, offset: 0x3B52F, size: 0x8, addend: 0x0, symName: __ZNSt6vectorISt4pairI8BookItemNSt7__cxx1112basic_stringIcSt11char_traitsIcESaIcEEEESaIS8_EEC1ERKSA_, symObjAddr: 0xD1C8, symBinAddr: 0x10000F6E4, symSize: 0x114 }
  - { offsetInCU: 0x3B6E0, offset: 0x3B6E0, size: 0x8, addend: 0x0, symName: __ZSt14__relocate_a_1IPSt6vectorINSt7__cxx1112basic_stringIcSt11char_traitsIcESaIcEEESaIS6_EES9_SaIS8_EET0_T_SC_SB_RT1_, symObjAddr: 0xD0B4, symBinAddr: 0x10000F5D0, symSize: 0x84 }
  - { offsetInCU: 0x3B6E8, offset: 0x3B6E8, size: 0x8, addend: 0x0, symName: __ZNSt15__new_allocatorISt10_List_nodeI11BookLendingEE8allocateEmPKv, symObjAddr: 0xD138, symBinAddr: 0x10000F654, symSize: 0x90 }
  - { offsetInCU: 0x3B711, offset: 0x3B711, size: 0x8, addend: 0x0, symName: __ZSt12__niter_baseIPSt6vectorINSt7__cxx1112basic_stringIcSt11char_traitsIcESaIcEEESaIS6_EEET_SA_, symObjAddr: 0xD0A0, symBinAddr: 0x10000F5BC, symSize: 0x14 }
  - { offsetInCU: 0x3B719, offset: 0x3B719, size: 0x8, addend: 0x0, symName: __ZSt14__relocate_a_1IPSt6vectorINSt7__cxx1112basic_stringIcSt11char_traitsIcESaIcEEESaIS6_EES9_SaIS8_EET0_T_SC_SB_RT1_, symObjAddr: 0xD0B4, symBinAddr: 0x10000F5D0, symSize: 0x84 }
  - { offsetInCU: 0x3B6BB, offset: 0x3B6BB, size: 0x8, addend: 0x0, symName: __ZNSt15__new_allocatorISt6vectorINSt7__cxx1112basic_stringIcSt11char_traitsIcESaIcEEESaIS6_EEE8allocateEmPKv, symObjAddr: 0xD010, symBinAddr: 0x10000F52C, symSize: 0x90 }
  - { offsetInCU: 0x3B6C3, offset: 0x3B6C3, size: 0x8, addend: 0x0, symName: __ZSt12__niter_baseIPSt6vectorINSt7__cxx1112basic_stringIcSt11char_traitsIcESaIcEEESaIS6_EEET_SA_, symObjAddr: 0xD0A0, symBinAddr: 0x10000F5BC, symSize: 0x14 }
  - { offsetInCU: 0x3B745, offset: 0x3B745, size: 0x8, addend: 0x0, symName: __ZNKSt12_Vector_baseISt6vectorINSt7__cxx1112basic_stringIcSt11char_traitsIcESaIcEEESaIS6_EESaIS8_EE19_M_get_Tp_allocatorEv, symObjAddr: 0xCFFC, symBinAddr: 0x10000F518, symSize: 0x14 }
  - { offsetInCU: 0x3B74D, offset: 0x3B74D, size: 0x8, addend: 0x0, symName: __ZNSt15__new_allocatorISt6vectorINSt7__cxx1112basic_stringIcSt11char_traitsIcESaIcEEESaIS6_EEE8allocateEmPKv, symObjAddr: 0xD010, symBinAddr: 0x10000F52C, symSize: 0x90 }
  - { offsetInCU: 0x3B774, offset: 0x3B774, size: 0x8, addend: 0x0, symName: __ZNSt6vectorIS_INSt7__cxx1112basic_stringIcSt11char_traitsIcESaIcEEESaIS5_EESaIS7_EE11_S_max_sizeERKS8_, symObjAddr: 0xCFA0, symBinAddr: 0x10000F4BC, symSize: 0x5C }
  - { offsetInCU: 0x3B77C, offset: 0x3B77C, size: 0x8, addend: 0x0, symName: __ZNKSt12_Vector_baseISt6vectorINSt7__cxx1112basic_stringIcSt11char_traitsIcESaIcEEESaIS6_EESaIS8_EE19_M_get_Tp_allocatorEv, symObjAddr: 0xCFFC, symBinAddr: 0x10000F518, symSize: 0x14 }
  - { offsetInCU: 0x3B8E5, offset: 0x3B8E5, size: 0x8, addend: 0x0, symName: __ZSt14__relocate_a_1IiiENSt9enable_ifIXsrSt24__is_bitwise_relocatableIT_vE5valueEPS2_E4typeES4_S4_S4_RSaIT0_E, symObjAddr: 0xCF38, symBinAddr: 0x10000F454, symSize: 0x68 }
  - { offsetInCU: 0x3B8ED, offset: 0x3B8ED, size: 0x8, addend: 0x0, symName: __ZNSt6vectorIS_INSt7__cxx1112basic_stringIcSt11char_traitsIcESaIcEEESaIS5_EESaIS7_EE11_S_max_sizeERKS8_, symObjAddr: 0xCFA0, symBinAddr: 0x10000F4BC, symSize: 0x5C }
  - { offsetInCU: 0x3B93C, offset: 0x3B93C, size: 0x8, addend: 0x0, symName: __ZSt12__niter_baseIPiET_S1_, symObjAddr: 0xCF24, symBinAddr: 0x10000F440, symSize: 0x14 }
  - { offsetInCU: 0x3B944, offset: 0x3B944, size: 0x8, addend: 0x0, symName: __ZSt14__relocate_a_1IiiENSt9enable_ifIXsrSt24__is_bitwise_relocatableIT_vE5valueEPS2_E4typeES4_S4_S4_RSaIT0_E, symObjAddr: 0xCF38, symBinAddr: 0x10000F454, symSize: 0x68 }
  - { offsetInCU: 0x3B956, offset: 0x3B956, size: 0x8, addend: 0x0, symName: __ZNSt15__new_allocatorIiE8allocateEmPKv, symObjAddr: 0xCEA8, symBinAddr: 0x10000F3C4, symSize: 0x7C }
  - { offsetInCU: 0x3B95E, offset: 0x3B95E, size: 0x8, addend: 0x0, symName: __ZSt12__niter_baseIPiET_S1_, symObjAddr: 0xCF24, symBinAddr: 0x10000F440, symSize: 0x14 }
  - { offsetInCU: 0x3B9E0, offset: 0x3B9E0, size: 0x8, addend: 0x0, symName: __ZNSt6vectorIiSaIiEE11_S_max_sizeERKS0_, symObjAddr: 0xCE54, symBinAddr: 0x10000F370, symSize: 0x54 }
  - { offsetInCU: 0x3B9E8, offset: 0x3B9E8, size: 0x8, addend: 0x0, symName: __ZNSt15__new_allocatorIiE8allocateEmPKv, symObjAddr: 0xCEA8, symBinAddr: 0x10000F3C4, symSize: 0x7C }
  - { offsetInCU: 0x3BAB5, offset: 0x3BAB5, size: 0x8, addend: 0x0, symName: __ZNSt10_HashtableIiSt4pairIKiiESaIS2_ENSt8__detail10_Select1stESt8equal_toIiESt4hashIiENS4_18_Mod_range_hashingENS4_20_Default_ranged_hashENS4_20_Prime_rehash_policyENS4_17_Hashtable_traitsILb0ELb0ELb1EEEE19_M_allocate_bucketsEm, symObjAddr: 0xCDFC, symBinAddr: 0x10000F318, symSize: 0x58 }
  - { offsetInCU: 0x3BABD, offset: 0x3BABD, size: 0x8, addend: 0x0, symName: __ZNSt6vectorIiSaIiEE11_S_max_sizeERKS0_, symObjAddr: 0xCE54, symBinAddr: 0x10000F370, symSize: 0x54 }
  - { offsetInCU: 0x3BAF9, offset: 0x3BAF9, size: 0x8, addend: 0x0, symName: __ZNSt15__new_allocatorINSt8__detail10_Hash_nodeISt4pairIKiiELb0EEEE10deallocateEPS5_m, symObjAddr: 0xCDCC, symBinAddr: 0x10000F2E8, symSize: 0x30 }
  - { offsetInCU: 0x3BB01, offset: 0x3BB01, size: 0x8, addend: 0x0, symName: __ZNSt10_HashtableIiSt4pairIKiiESaIS2_ENSt8__detail10_Select1stESt8equal_toIiESt4hashIiENS4_18_Mod_range_hashingENS4_20_Default_ranged_hashENS4_20_Prime_rehash_policyENS4_17_Hashtable_traitsILb0ELb0ELb1EEEE19_M_allocate_bucketsEm, symObjAddr: 0xCDFC, symBinAddr: 0x10000F318, symSize: 0x58 }
  - { offsetInCU: 0x3BC1A, offset: 0x3BC1A, size: 0x8, addend: 0x0, symName: __ZNSt5tupleIJRKiEEC1EOS2_, symObjAddr: 0xCDA4, symBinAddr: 0x10000F2C0, symSize: 0x28 }
  - { offsetInCU: 0x3BC22, offset: 0x3BC22, size: 0x8, addend: 0x0, symName: __ZNSt15__new_allocatorINSt8__detail10_Hash_nodeISt4pairIKiiELb0EEEE10deallocateEPS5_m, symObjAddr: 0xCDCC, symBinAddr: 0x10000F2E8, symSize: 0x30 }
  - { offsetInCU: 0x3BC3D, offset: 0x3BC3D, size: 0x8, addend: 0x0, symName: __ZNSt15__new_allocatorINSt8__detail10_Hash_nodeISt4pairIKiiELb0EEEE8allocateEmPKv, symObjAddr: 0xCD28, symBinAddr: 0x10000F244, symSize: 0x7C }
  - { offsetInCU: 0x3BC45, offset: 0x3BC45, size: 0x8, addend: 0x0, symName: __ZNSt5tupleIJRKiEEC1EOS2_, symObjAddr: 0xCDA4, symBinAddr: 0x10000F2C0, symSize: 0x28 }
  - { offsetInCU: 0x3BCCC, offset: 0x3BCCC, size: 0x8, addend: 0x0, symName: __ZN9__gnu_cxx16__aligned_bufferISt4pairIKiiEE7_M_addrEv, symObjAddr: 0xCD14, symBinAddr: 0x10000F230, symSize: 0x14 }
  - { offsetInCU: 0x3BCD4, offset: 0x3BCD4, size: 0x8, addend: 0x0, symName: __ZNSt15__new_allocatorINSt8__detail10_Hash_nodeISt4pairIKiiELb0EEEE8allocateEmPKv, symObjAddr: 0xCD28, symBinAddr: 0x10000F244, symSize: 0x7C }
  - { offsetInCU: 0x3BCFF, offset: 0x3BCFF, size: 0x8, addend: 0x0, symName: __ZNSt10_HashtableINSt7__cxx1112basic_stringIcSt11char_traitsIcESaIcEEESt4pairIKS5_iESaIS8_ENSt8__detail10_Select1stESt8equal_toIS5_ESt4hashIS5_ENSA_18_Mod_range_hashingENSA_20_Default_ranged_hashENSA_20_Prime_rehash_policyENSA_17_Hashtable_traitsILb1ELb0ELb1EEEE19_M_allocate_bucketsEm, symObjAddr: 0xCCBC, symBinAddr: 0x10000F1D8, symSize: 0x58 }
  - { offsetInCU: 0x3BD07, offset: 0x3BD07, size: 0x8, addend: 0x0, symName: __ZN9__gnu_cxx16__aligned_bufferISt4pairIKiiEE7_M_addrEv, symObjAddr: 0xCD14, symBinAddr: 0x10000F230, symSize: 0x14 }
  - { offsetInCU: 0x3BD43, offset: 0x3BD43, size: 0x8, addend: 0x0, symName: __ZNSt15__new_allocatorINSt8__detail10_Hash_nodeISt4pairIKNSt7__cxx1112basic_stringIcSt11char_traitsIcESaIcEEEiELb1EEEE10deallocateEPSB_m, symObjAddr: 0xCC80, symBinAddr: 0x10000F19C, symSize: 0x3C }
  - { offsetInCU: 0x3BD4B, offset: 0x3BD4B, size: 0x8, addend: 0x0, symName: __ZNSt10_HashtableINSt7__cxx1112basic_stringIcSt11char_traitsIcESaIcEEESt4pairIKS5_iESaIS8_ENSt8__detail10_Select1stESt8equal_toIS5_ESt4hashIS5_ENSA_18_Mod_range_hashingENSA_20_Default_ranged_hashENSA_20_Prime_rehash_policyENSA_17_Hashtable_traitsILb1ELb0ELb1EEEE19_M_allocate_bucketsEm, symObjAddr: 0xCCBC, symBinAddr: 0x10000F1D8, symSize: 0x58 }
  - { offsetInCU: 0x3BE83, offset: 0x3BE83, size: 0x8, addend: 0x0, symName: __ZNSt5tupleIJRKNSt7__cxx1112basic_stringIcSt11char_traitsIcESaIcEEEEEC1EOS8_, symObjAddr: 0xCC58, symBinAddr: 0x10000F174, symSize: 0x28 }
  - { offsetInCU: 0x3BE8B, offset: 0x3BE8B, size: 0x8, addend: 0x0, symName: __ZNSt15__new_allocatorINSt8__detail10_Hash_nodeISt4pairIKNSt7__cxx1112basic_stringIcSt11char_traitsIcESaIcEEEiELb1EEEE10deallocateEPSB_m, symObjAddr: 0xCC80, symBinAddr: 0x10000F19C, symSize: 0x3C }
  - { offsetInCU: 0x3BE73, offset: 0x3BE73, size: 0x8, addend: 0x0, symName: __ZNSt15__new_allocatorINSt8__detail10_Hash_nodeISt4pairIKNSt7__cxx1112basic_stringIcSt11char_traitsIcESaIcEEEiELb1EEEE8allocateEmPKv, symObjAddr: 0xCBB8, symBinAddr: 0x10000F0D4, symSize: 0xA0 }
  - { offsetInCU: 0x3BE7B, offset: 0x3BE7B, size: 0x8, addend: 0x0, symName: __ZNSt5tupleIJRKNSt7__cxx1112basic_stringIcSt11char_traitsIcESaIcEEEEEC1EOS8_, symObjAddr: 0xCC58, symBinAddr: 0x10000F174, symSize: 0x28 }
  - { offsetInCU: 0x3BF02, offset: 0x3BF02, size: 0x8, addend: 0x0, symName: __ZN9__gnu_cxx16__aligned_bufferISt4pairIKNSt7__cxx1112basic_stringIcSt11char_traitsIcESaIcEEEiEE7_M_addrEv, symObjAddr: 0xCBA4, symBinAddr: 0x10000F0C0, symSize: 0x14 }
  - { offsetInCU: 0x3BF0A, offset: 0x3BF0A, size: 0x8, addend: 0x0, symName: __ZNSt15__new_allocatorINSt8__detail10_Hash_nodeISt4pairIKNSt7__cxx1112basic_stringIcSt11char_traitsIcESaIcEEEiELb1EEEE8allocateEmPKv, symObjAddr: 0xCBB8, symBinAddr: 0x10000F0D4, symSize: 0xA0 }
  - { offsetInCU: 0x3BF35, offset: 0x3BF35, size: 0x8, addend: 0x0, symName: __ZNKSt8__detail15_Hash_code_baseIiSt4pairIKiiENS_10_Select1stESt4hashIiENS_18_Mod_range_hashingENS_20_Default_ranged_hashELb0EE15_M_bucket_indexERKNS_16_Hash_node_valueIS3_Lb0EEEm, symObjAddr: 0xCB58, symBinAddr: 0x10000F074, symSize: 0x4C }
  - { offsetInCU: 0x3BF3D, offset: 0x3BF3D, size: 0x8, addend: 0x0, symName: __ZN9__gnu_cxx16__aligned_bufferISt4pairIKNSt7__cxx1112basic_stringIcSt11char_traitsIcESaIcEEEiEE7_M_addrEv, symObjAddr: 0xCBA4, symBinAddr: 0x10000F0C0, symSize: 0x14 }
  - { offsetInCU: 0x3BF8E, offset: 0x3BF8E, size: 0x8, addend: 0x0, symName: __ZNSt8__detail15_Hashtable_baseIiSt4pairIKiiENS_10_Select1stESt8equal_toIiESt4hashIiENS_18_Mod_range_hashingENS_20_Default_ranged_hashENS_17_Hashtable_traitsILb0ELb0ELb1EEEE9_S_equalsEmRKNS_21_Hash_node_code_cacheILb0EEE, symObjAddr: 0xCB40, symBinAddr: 0x10000F05C, symSize: 0x18 }
  - { offsetInCU: 0x3BF96, offset: 0x3BF96, size: 0x8, addend: 0x0, symName: __ZNKSt8__detail15_Hash_code_baseIiSt4pairIKiiENS_10_Select1stESt4hashIiENS_18_Mod_range_hashingENS_20_Default_ranged_hashELb0EE15_M_bucket_indexERKNS_16_Hash_node_valueIS3_Lb0EEEm, symObjAddr: 0xCB58, symBinAddr: 0x10000F074, symSize: 0x4C }
  - { offsetInCU: 0x3BFC4, offset: 0x3BFC4, size: 0x8, addend: 0x0, symName: __ZNK9__gnu_cxx16__aligned_bufferISt4pairIKiiEE6_M_ptrEv, symObjAddr: 0xCB24, symBinAddr: 0x10000F040, symSize: 0x1C }
  - { offsetInCU: 0x3BFCC, offset: 0x3BFCC, size: 0x8, addend: 0x0, symName: __ZNSt8__detail15_Hashtable_baseIiSt4pairIKiiENS_10_Select1stESt8equal_toIiESt4hashIiENS_18_Mod_range_hashingENS_20_Default_ranged_hashENS_17_Hashtable_traitsILb0ELb0ELb1EEEE9_S_equalsEmRKNS_21_Hash_node_code_cacheILb0EEE, symObjAddr: 0xCB40, symBinAddr: 0x10000F05C, symSize: 0x18 }
  - { offsetInCU: 0x3BFF3, offset: 0x3BFF3, size: 0x8, addend: 0x0, symName: __ZNKSt8__detail15_Hash_code_baseINSt7__cxx1112basic_stringIcSt11char_traitsIcESaIcEEESt4pairIKS6_iENS_10_Select1stESt4hashIS6_ENS_18_Mod_range_hashingENS_20_Default_ranged_hashELb1EE15_M_bucket_indexERKNS_16_Hash_node_valueIS9_Lb1EEEm, symObjAddr: 0xCAF4, symBinAddr: 0x10000F010, symSize: 0x30 }
  - { offsetInCU: 0x3BFFB, offset: 0x3BFFB, size: 0x8, addend: 0x0, symName: __ZNK9__gnu_cxx16__aligned_bufferISt4pairIKiiEE6_M_ptrEv, symObjAddr: 0xCB24, symBinAddr: 0x10000F040, symSize: 0x1C }
  - { offsetInCU: 0x3C04C, offset: 0x3C04C, size: 0x8, addend: 0x0, symName: __ZNSt8__detail15_Hashtable_baseINSt7__cxx1112basic_stringIcSt11char_traitsIcESaIcEEESt4pairIKS6_iENS_10_Select1stESt8equal_toIS6_ESt4hashIS6_ENS_18_Mod_range_hashingENS_20_Default_ranged_hashENS_17_Hashtable_traitsILb1ELb0ELb1EEEE9_S_equalsEmRKNS_21_Hash_node_code_cacheILb1EEE, symObjAddr: 0xCAC8, symBinAddr: 0x10000EFE4, symSize: 0x2C }
  - { offsetInCU: 0x3C054, offset: 0x3C054, size: 0x8, addend: 0x0, symName: __ZNKSt8__detail15_Hash_code_baseINSt7__cxx1112basic_stringIcSt11char_traitsIcESaIcEEESt4pairIKS6_iENS_10_Select1stESt4hashIS6_ENS_18_Mod_range_hashingENS_20_Default_ranged_hashELb1EE15_M_bucket_indexERKNS_16_Hash_node_valueIS9_Lb1EEEm, symObjAddr: 0xCAF4, symBinAddr: 0x10000F010, symSize: 0x30 }
  - { offsetInCU: 0x3C094, offset: 0x3C094, size: 0x8, addend: 0x0, symName: __ZNK9__gnu_cxx16__aligned_bufferISt4pairIKNSt7__cxx1112basic_stringIcSt11char_traitsIcESaIcEEEiEE6_M_ptrEv, symObjAddr: 0xCAAC, symBinAddr: 0x10000EFC8, symSize: 0x1C }
  - { offsetInCU: 0x3C09C, offset: 0x3C09C, size: 0x8, addend: 0x0, symName: __ZNSt8__detail15_Hashtable_baseINSt7__cxx1112basic_stringIcSt11char_traitsIcESaIcEEESt4pairIKS6_iENS_10_Select1stESt8equal_toIS6_ESt4hashIS6_ENS_18_Mod_range_hashingENS_20_Default_ranged_hashENS_17_Hashtable_traitsILb1ELb0ELb1EEEE9_S_equalsEmRKNS_21_Hash_node_code_cacheILb1EEE, symObjAddr: 0xCAC8, symBinAddr: 0x10000EFE4, symSize: 0x2C }
  - { offsetInCU: 0x3C10F, offset: 0x3C10F, size: 0x8, addend: 0x0, symName: __ZSt10_ConstructI8BookItemJRS0_EEvPT_DpOT0_, symObjAddr: 0xCA30, symBinAddr: 0x10000EF4C, symSize: 0x7C }
  - { offsetInCU: 0x3C117, offset: 0x3C117, size: 0x8, addend: 0x0, symName: __ZNK9__gnu_cxx16__aligned_bufferISt4pairIKNSt7__cxx1112basic_stringIcSt11char_traitsIcESaIcEEEiEE6_M_ptrEv, symObjAddr: 0xCAAC, symBinAddr: 0x10000EFC8, symSize: 0x1C }
  - { offsetInCU: 0x3C125, offset: 0x3C125, size: 0x8, addend: 0x0, symName: __ZNSt11__copy_moveILb0ELb0ESt26random_access_iterator_tagE8__copy_mIP8BookItemS4_EET0_T_S6_S5_, symObjAddr: 0xC9B0, symBinAddr: 0x10000EECC, symSize: 0x80 }
  - { offsetInCU: 0x3C12D, offset: 0x3C12D, size: 0x8, addend: 0x0, symName: __ZSt10_ConstructI8BookItemJRS0_EEvPT_DpOT0_, symObjAddr: 0xCA30, symBinAddr: 0x10000EF4C, symSize: 0x7C }
  - { offsetInCU: 0x3C1D5, offset: 0x3C1D5, size: 0x8, addend: 0x0, symName: __ZNSt11__copy_moveILb0ELb0ESt26random_access_iterator_tagE8__copy_mIPK8BookItemPS3_EET0_T_S8_S7_, symObjAddr: 0xC930, symBinAddr: 0x10000EE4C, symSize: 0x80 }
  - { offsetInCU: 0x3C1DD, offset: 0x3C1DD, size: 0x8, addend: 0x0, symName: __ZNSt11__copy_moveILb0ELb0ESt26random_access_iterator_tagE8__copy_mIP8BookItemS4_EET0_T_S6_S5_, symObjAddr: 0xC9B0, symBinAddr: 0x10000EECC, symSize: 0x80 }
  - { offsetInCU: 0x3C289, offset: 0x3C289, size: 0x8, addend: 0x0, symName: __ZN8BookItemaSERKS_, symObjAddr: 0xC8F4, symBinAddr: 0x10000EE10, symSize: 0x3C }
  - { offsetInCU: 0x3C291, offset: 0x3C291, size: 0x8, addend: 0x0, symName: __ZNSt11__copy_moveILb0ELb0ESt26random_access_iterator_tagE8__copy_mIPK8BookItemPS3_EET0_T_S8_S7_, symObjAddr: 0xC930, symBinAddr: 0x10000EE4C, symSize: 0x80 }
  - { offsetInCU: 0x3C2DC, offset: 0x3C2DC, size: 0x8, addend: 0x0, symName: __ZN10BookDetailaSERKS_, symObjAddr: 0xC88C, symBinAddr: 0x10000EDA8, symSize: 0x68 }
  - { offsetInCU: 0x3C2E4, offset: 0x3C2E4, size: 0x8, addend: 0x0, symName: __ZN8BookItemaSERKS_, symObjAddr: 0xC8F4, symBinAddr: 0x10000EE10, symSize: 0x3C }
  - { offsetInCU: 0x3C3E7, offset: 0x3C3E7, size: 0x8, addend: 0x0, symName: __ZSt16__do_uninit_copyIN9__gnu_cxx17__normal_iteratorIPK8BookItemSt6vectorIS2_SaIS2_EEEEPS2_ET0_T_SB_SA_, symObjAddr: 0xC7E0, symBinAddr: 0x10000ECFC, symSize: 0xAC }
  - { offsetInCU: 0x3C3EF, offset: 0x3C3EF, size: 0x8, addend: 0x0, symName: __ZN10BookDetailaSERKS_, symObjAddr: 0xC88C, symBinAddr: 0x10000EDA8, symSize: 0x68 }
  - { offsetInCU: 0x3C417, offset: 0x3C417, size: 0x8, addend: 0x0, symName: __ZSt19__relocate_object_aI4RackS0_SaIS0_EEvPT_PT0_RT1_, symObjAddr: 0xC710, symBinAddr: 0x10000EC2C, symSize: 0xD0 }
  - { offsetInCU: 0x3C41F, offset: 0x3C41F, size: 0x8, addend: 0x0, symName: __ZSt16__do_uninit_copyIN9__gnu_cxx17__normal_iteratorIPK8BookItemSt6vectorIS2_SaIS2_EEEEPS2_ET0_T_SB_SA_, symObjAddr: 0xC7E0, symBinAddr: 0x10000ECFC, symSize: 0xAC }
  - { offsetInCU: 0x3C574, offset: 0x3C574, size: 0x8, addend: 0x0, symName: __ZSt10_ConstructI4RackJEEvPT_DpOT0_, symObjAddr: 0xC6E4, symBinAddr: 0x10000EC00, symSize: 0x2C }
  - { offsetInCU: 0x3C57C, offset: 0x3C57C, size: 0x8, addend: 0x0, symName: __ZSt19__relocate_object_aI4RackS0_SaIS0_EEvPT_PT0_RT1_, symObjAddr: 0xC710, symBinAddr: 0x10000EC2C, symSize: 0xD0 }
  - { offsetInCU: 0x3C5A6, offset: 0x3C5A6, size: 0x8, addend: 0x0, symName: __ZNSt19__ptr_traits_ptr_toIPNSt8__detail10_Hash_nodeISt4pairIKiiELb0EEES5_Lb0EE10pointer_toERS5_, symObjAddr: 0xC6C8, symBinAddr: 0x10000EBE4, symSize: 0x1C }
  - { offsetInCU: 0x3C5AE, offset: 0x3C5AE, size: 0x8, addend: 0x0, symName: __ZSt10_ConstructI4RackJEEvPT_DpOT0_, symObjAddr: 0xC6E4, symBinAddr: 0x10000EC00, symSize: 0x2C }
  - { offsetInCU: 0x3C610, offset: 0x3C610, size: 0x8, addend: 0x0, symName: __ZNSt8__detail21_Hashtable_ebo_helperILi0ESaINS_10_Hash_nodeISt4pairIKiiELb0EEEELb1EE6_M_getEv, symObjAddr: 0xC6B4, symBinAddr: 0x10000EBD0, symSize: 0x14 }
  - { offsetInCU: 0x3C618, offset: 0x3C618, size: 0x8, addend: 0x0, symName: __ZNSt19__ptr_traits_ptr_toIPNSt8__detail10_Hash_nodeISt4pairIKiiELb0EEES5_Lb0EE10pointer_toERS5_, symObjAddr: 0xC6C8, symBinAddr: 0x10000EBE4, symSize: 0x1C }
  - { offsetInCU: 0x3C63F, offset: 0x3C63F, size: 0x8, addend: 0x0, symName: __ZNSt15__new_allocatorIPNSt8__detail15_Hash_node_baseEE10deallocateEPS2_m, symObjAddr: 0xC684, symBinAddr: 0x10000EBA0, symSize: 0x30 }
  - { offsetInCU: 0x3C647, offset: 0x3C647, size: 0x8, addend: 0x0, symName: __ZNSt8__detail21_Hashtable_ebo_helperILi0ESaINS_10_Hash_nodeISt4pairIKiiELb0EEEELb1EE6_M_getEv, symObjAddr: 0xC6B4, symBinAddr: 0x10000EBD0, symSize: 0x14 }
  - { offsetInCU: 0x3C6FA, offset: 0x3C6FA, size: 0x8, addend: 0x0, symName: __ZNSt15__new_allocatorIPNSt8__detail15_Hash_node_baseEED2Ev, symObjAddr: 0xC670, symBinAddr: 0x10000EB8C, symSize: 0x14 }
  - { offsetInCU: 0x3C702, offset: 0x3C702, size: 0x8, addend: 0x0, symName: __ZNSt15__new_allocatorIPNSt8__detail15_Hash_node_baseEE10deallocateEPS2_m, symObjAddr: 0xC684, symBinAddr: 0x10000EBA0, symSize: 0x30 }
  - { offsetInCU: 0x3C76F, offset: 0x3C76F, size: 0x8, addend: 0x0, symName: __ZSt9addressofIPNSt8__detail15_Hash_node_baseEEPT_RS3_, symObjAddr: 0xC654, symBinAddr: 0x10000EB70, symSize: 0x1C }
  - { offsetInCU: 0x3C777, offset: 0x3C777, size: 0x8, addend: 0x0, symName: __ZNSt15__new_allocatorIPNSt8__detail15_Hash_node_baseEED2Ev, symObjAddr: 0xC670, symBinAddr: 0x10000EB8C, symSize: 0x14 }
  - { offsetInCU: 0x3C753, offset: 0x3C753, size: 0x8, addend: 0x0, symName: __ZNSt19__ptr_traits_ptr_toIPNSt8__detail10_Hash_nodeISt4pairIKNSt7__cxx1112basic_stringIcSt11char_traitsIcESaIcEEEiELb1EEESB_Lb0EE10pointer_toERSB_, symObjAddr: 0xC638, symBinAddr: 0x10000EB54, symSize: 0x1C }
  - { offsetInCU: 0x3C75B, offset: 0x3C75B, size: 0x8, addend: 0x0, symName: __ZSt9addressofIPNSt8__detail15_Hash_node_baseEEPT_RS3_, symObjAddr: 0xC654, symBinAddr: 0x10000EB70, symSize: 0x1C }
  - { offsetInCU: 0x3C831, offset: 0x3C831, size: 0x8, addend: 0x0, symName: __ZNSt4pairIKNSt7__cxx1112basic_stringIcSt11char_traitsIcESaIcEEEiED1Ev, symObjAddr: 0xC618, symBinAddr: 0x10000EB34, symSize: 0x20 }
  - { offsetInCU: 0x3C839, offset: 0x3C839, size: 0x8, addend: 0x0, symName: __ZNSt19__ptr_traits_ptr_toIPNSt8__detail10_Hash_nodeISt4pairIKNSt7__cxx1112basic_stringIcSt11char_traitsIcESaIcEEEiELb1EEESB_Lb0EE10pointer_toERSB_, symObjAddr: 0xC638, symBinAddr: 0x10000EB54, symSize: 0x1C }
  - { offsetInCU: 0x3C81A, offset: 0x3C81A, size: 0x8, addend: 0x0, symName: __ZNSt8__detail21_Hashtable_ebo_helperILi0ESaINS_10_Hash_nodeISt4pairIKNSt7__cxx1112basic_stringIcSt11char_traitsIcESaIcEEEiELb1EEEELb1EE6_M_getEv, symObjAddr: 0xC604, symBinAddr: 0x10000EB20, symSize: 0x14 }
  - { offsetInCU: 0x3C822, offset: 0x3C822, size: 0x8, addend: 0x0, symName: __ZNSt4pairIKNSt7__cxx1112basic_stringIcSt11char_traitsIcESaIcEEEiED1Ev, symObjAddr: 0xC618, symBinAddr: 0x10000EB34, symSize: 0x20 }
  - { offsetInCU: 0x3C990, offset: 0x3C990, size: 0x8, addend: 0x0, symName: __ZSt14__relocate_a_1IPSt4pairI8BookItemNSt7__cxx1112basic_stringIcSt11char_traitsIcESaIcEEEES9_SaIS8_EET0_T_SC_SB_RT1_, symObjAddr: 0xC580, symBinAddr: 0x10000EA9C, symSize: 0x84 }
  - { offsetInCU: 0x3C998, offset: 0x3C998, size: 0x8, addend: 0x0, symName: __ZNSt8__detail21_Hashtable_ebo_helperILi0ESaINS_10_Hash_nodeISt4pairIKNSt7__cxx1112basic_stringIcSt11char_traitsIcESaIcEEEiELb1EEEELb1EE6_M_getEv, symObjAddr: 0xC604, symBinAddr: 0x10000EB20, symSize: 0x14 }
  - { offsetInCU: 0x3C9B1, offset: 0x3C9B1, size: 0x8, addend: 0x0, symName: __ZSt12__niter_baseIPSt4pairI8BookItemNSt7__cxx1112basic_stringIcSt11char_traitsIcESaIcEEEEET_SA_, symObjAddr: 0xC56C, symBinAddr: 0x10000EA88, symSize: 0x14 }
  - { offsetInCU: 0x3C9B9, offset: 0x3C9B9, size: 0x8, addend: 0x0, symName: __ZSt14__relocate_a_1IPSt4pairI8BookItemNSt7__cxx1112basic_stringIcSt11char_traitsIcESaIcEEEES9_SaIS8_EET0_T_SC_SB_RT1_, symObjAddr: 0xC580, symBinAddr: 0x10000EA9C, symSize: 0x84 }
  - { offsetInCU: 0x3C953, offset: 0x3C953, size: 0x8, addend: 0x0, symName: __ZNSt15__new_allocatorISt4pairI8BookItemNSt7__cxx1112basic_stringIcSt11char_traitsIcESaIcEEEEE8allocateEmPKv, symObjAddr: 0xC4C4, symBinAddr: 0x10000E9E0, symSize: 0xA8 }
  - { offsetInCU: 0x3C95B, offset: 0x3C95B, size: 0x8, addend: 0x0, symName: __ZSt12__niter_baseIPSt4pairI8BookItemNSt7__cxx1112basic_stringIcSt11char_traitsIcESaIcEEEEET_SA_, symObjAddr: 0xC56C, symBinAddr: 0x10000EA88, symSize: 0x14 }
  - { offsetInCU: 0x3C9DD, offset: 0x3C9DD, size: 0x8, addend: 0x0, symName: __ZNKSt12_Vector_baseISt4pairI8BookItemNSt7__cxx1112basic_stringIcSt11char_traitsIcESaIcEEEESaIS8_EE19_M_get_Tp_allocatorEv, symObjAddr: 0xC4B0, symBinAddr: 0x10000E9CC, symSize: 0x14 }
  - { offsetInCU: 0x3C9E5, offset: 0x3C9E5, size: 0x8, addend: 0x0, symName: __ZNSt15__new_allocatorISt4pairI8BookItemNSt7__cxx1112basic_stringIcSt11char_traitsIcESaIcEEEEE8allocateEmPKv, symObjAddr: 0xC4C4, symBinAddr: 0x10000E9E0, symSize: 0xA8 }
  - { offsetInCU: 0x3CA0C, offset: 0x3CA0C, size: 0x8, addend: 0x0, symName: __ZNSt6vectorISt4pairI8BookItemNSt7__cxx1112basic_stringIcSt11char_traitsIcESaIcEEEESaIS8_EE11_S_max_sizeERKS9_, symObjAddr: 0xC444, symBinAddr: 0x10000E960, symSize: 0x6C }
  - { offsetInCU: 0x3CA14, offset: 0x3CA14, size: 0x8, addend: 0x0, symName: __ZNKSt12_Vector_baseISt4pairI8BookItemNSt7__cxx1112basic_stringIcSt11char_traitsIcESaIcEEEESaIS8_EE19_M_get_Tp_allocatorEv, symObjAddr: 0xC4B0, symBinAddr: 0x10000E9CC, symSize: 0x14 }
  - { offsetInCU: 0x3CB61, offset: 0x3CB61, size: 0x8, addend: 0x0, symName: __ZSt19__relocate_object_aI8BookItemS0_SaIS0_EEvPT_PT0_RT1_, symObjAddr: 0xC374, symBinAddr: 0x10000E890, symSize: 0xD0 }
  - { offsetInCU: 0x3CB69, offset: 0x3CB69, size: 0x8, addend: 0x0, symName: __ZNSt6vectorISt4pairI8BookItemNSt7__cxx1112basic_stringIcSt11char_traitsIcESaIcEEEESaIS8_EE11_S_max_sizeERKS9_, symObjAddr: 0xC444, symBinAddr: 0x10000E960, symSize: 0x6C }
  - { offsetInCU: 0x3CD74, offset: 0x3CD74, size: 0x8, addend: 0x0, symName: __ZSt10_ConstructINSt7__cxx1112basic_stringIcSt11char_traitsIcESaIcEEEJRKS5_EEvPT_DpOT0_, symObjAddr: 0xC2F8, symBinAddr: 0x10000E814, symSize: 0x7C }
  - { offsetInCU: 0x3CD7C, offset: 0x3CD7C, size: 0x8, addend: 0x0, symName: __ZSt19__relocate_object_aI8BookItemS0_SaIS0_EEvPT_PT0_RT1_, symObjAddr: 0xC374, symBinAddr: 0x10000E890, symSize: 0xD0 }
  - { offsetInCU: 0x3CCF9, offset: 0x3CCF9, size: 0x8, addend: 0x0, symName: __ZNK9__gnu_cxx17__normal_iteratorIPKNSt7__cxx1112basic_stringIcSt11char_traitsIcESaIcEEESt6vectorIS6_SaIS6_EEEdeEv, symObjAddr: 0xC2E0, symBinAddr: 0x10000E7FC, symSize: 0x18 }
  - { offsetInCU: 0x3CD01, offset: 0x3CD01, size: 0x8, addend: 0x0, symName: __ZSt10_ConstructINSt7__cxx1112basic_stringIcSt11char_traitsIcESaIcEEEJRKS5_EEvPT_DpOT0_, symObjAddr: 0xC2F8, symBinAddr: 0x10000E814, symSize: 0x7C }
  - { offsetInCU: 0x3CD28, offset: 0x3CD28, size: 0x8, addend: 0x0, symName: __ZN9__gnu_cxx17__normal_iteratorIPKNSt7__cxx1112basic_stringIcSt11char_traitsIcESaIcEEESt6vectorIS6_SaIS6_EEEppEv, symObjAddr: 0xC2B8, symBinAddr: 0x10000E7D4, symSize: 0x28 }
  - { offsetInCU: 0x3CD30, offset: 0x3CD30, size: 0x8, addend: 0x0, symName: __ZNK9__gnu_cxx17__normal_iteratorIPKNSt7__cxx1112basic_stringIcSt11char_traitsIcESaIcEEESt6vectorIS6_SaIS6_EEEdeEv, symObjAddr: 0xC2E0, symBinAddr: 0x10000E7FC, symSize: 0x18 }
  - { offsetInCU: 0x3CE43, offset: 0x3CE43, size: 0x8, addend: 0x0, symName: __ZN9__gnu_cxxneIPKNSt7__cxx1112basic_stringIcSt11char_traitsIcESaIcEEESt6vectorIS6_SaIS6_EEEEbRKNS_17__normal_iteratorIT_T0_EESH_, symObjAddr: 0xC274, symBinAddr: 0x10000E790, symSize: 0x44 }
  - { offsetInCU: 0x3CE4B, offset: 0x3CE4B, size: 0x8, addend: 0x0, symName: __ZN9__gnu_cxx17__normal_iteratorIPKNSt7__cxx1112basic_stringIcSt11char_traitsIcESaIcEEESt6vectorIS6_SaIS6_EEEppEv, symObjAddr: 0xC2B8, symBinAddr: 0x10000E7D4, symSize: 0x28 }
  - { offsetInCU: 0x3CEA7, offset: 0x3CEA7, size: 0x8, addend: 0x0, symName: __ZSt10_ConstructINSt7__cxx1112basic_stringIcSt11char_traitsIcESaIcEEEJRS5_EEvPT_DpOT0_, symObjAddr: 0xC1F8, symBinAddr: 0x10000E714, symSize: 0x7C }
  - { offsetInCU: 0x3CEAF, offset: 0x3CEAF, size: 0x8, addend: 0x0, symName: __ZN9__gnu_cxxneIPKNSt7__cxx1112basic_stringIcSt11char_traitsIcESaIcEEESt6vectorIS6_SaIS6_EEEEbRKNS_17__normal_iteratorIT_T0_EESH_, symObjAddr: 0xC274, symBinAddr: 0x10000E790, symSize: 0x44 }
  - { offsetInCU: 0x3CE33, offset: 0x3CE33, size: 0x8, addend: 0x0, symName: __ZNSt11__copy_moveILb0ELb0ESt26random_access_iterator_tagE8__copy_mIPNSt7__cxx1112basic_stringIcSt11char_traitsIcESaIcEEES9_EET0_T_SB_SA_, symObjAddr: 0xC184, symBinAddr: 0x10000E6A0, symSize: 0x74 }
  - { offsetInCU: 0x3CE3B, offset: 0x3CE3B, size: 0x8, addend: 0x0, symName: __ZSt10_ConstructINSt7__cxx1112basic_stringIcSt11char_traitsIcESaIcEEEJRS5_EEvPT_DpOT0_, symObjAddr: 0xC1F8, symBinAddr: 0x10000E714, symSize: 0x7C }
  - { offsetInCU: 0x3CEE3, offset: 0x3CEE3, size: 0x8, addend: 0x0, symName: __ZNSt11__copy_moveILb0ELb0ESt26random_access_iterator_tagE8__copy_mIPKNSt7__cxx1112basic_stringIcSt11char_traitsIcESaIcEEEPS8_EET0_T_SD_SC_, symObjAddr: 0xC110, symBinAddr: 0x10000E62C, symSize: 0x74 }
  - { offsetInCU: 0x3CEEB, offset: 0x3CEEB, size: 0x8, addend: 0x0, symName: __ZNSt11__copy_moveILb0ELb0ESt26random_access_iterator_tagE8__copy_mIPNSt7__cxx1112basic_stringIcSt11char_traitsIcESaIcEEES9_EET0_T_SB_SA_, symObjAddr: 0xC184, symBinAddr: 0x10000E6A0, symSize: 0x74 }
  - { offsetInCU: 0x3D087, offset: 0x3D087, size: 0x8, addend: 0x0, symName: __ZSt19__relocate_object_aINSt7__cxx1112basic_stringIcSt11char_traitsIcESaIcEEES5_SaIS5_EEvPT_PT0_RT1_, symObjAddr: 0xC040, symBinAddr: 0x10000E55C, symSize: 0xD0 }
  - { offsetInCU: 0x3D08F, offset: 0x3D08F, size: 0x8, addend: 0x0, symName: __ZNSt11__copy_moveILb0ELb0ESt26random_access_iterator_tagE8__copy_mIPKNSt7__cxx1112basic_stringIcSt11char_traitsIcESaIcEEEPS8_EET0_T_SD_SC_, symObjAddr: 0xC110, symBinAddr: 0x10000E62C, symSize: 0x74 }
  - { offsetInCU: 0x3D1DD, offset: 0x3D1DD, size: 0x8, addend: 0x0, symName: __ZSt8_DestroyISt6vectorINSt7__cxx1112basic_stringIcSt11char_traitsIcESaIcEEESaIS6_EEEvPT_, symObjAddr: 0xC020, symBinAddr: 0x10000E53C, symSize: 0x20 }
  - { offsetInCU: 0x3D1E5, offset: 0x3D1E5, size: 0x8, addend: 0x0, symName: __ZSt19__relocate_object_aINSt7__cxx1112basic_stringIcSt11char_traitsIcESaIcEEES5_SaIS5_EEvPT_PT0_RT1_, symObjAddr: 0xC040, symBinAddr: 0x10000E55C, symSize: 0xD0 }
  - { offsetInCU: 0x3D22D, offset: 0x3D22D, size: 0x8, addend: 0x0, symName: __ZSt11__addressofISt6vectorINSt7__cxx1112basic_stringIcSt11char_traitsIcESaIcEEESaIS6_EEEPT_RS9_, symObjAddr: 0xC00C, symBinAddr: 0x10000E528, symSize: 0x14 }
  - { offsetInCU: 0x3D235, offset: 0x3D235, size: 0x8, addend: 0x0, symName: __ZSt8_DestroyISt6vectorINSt7__cxx1112basic_stringIcSt11char_traitsIcESaIcEEESaIS6_EEEvPT_, symObjAddr: 0xC020, symBinAddr: 0x10000E53C, symSize: 0x20 }
  - { offsetInCU: 0x3D233, offset: 0x3D233, size: 0x8, addend: 0x0, symName: __ZNSt12_Vector_baseIiSaIiEE12_Vector_implC1ERKS0_, symObjAddr: 0xBFC0, symBinAddr: 0x10000E4DC, symSize: 0x4C }
  - { offsetInCU: 0x3D23B, offset: 0x3D23B, size: 0x8, addend: 0x0, symName: __ZSt11__addressofISt6vectorINSt7__cxx1112basic_stringIcSt11char_traitsIcESaIcEEESaIS6_EEEPT_RS9_, symObjAddr: 0xC00C, symBinAddr: 0x10000E528, symSize: 0x14 }
  - { offsetInCU: 0x3D33D, offset: 0x3D33D, size: 0x8, addend: 0x0, symName: __ZN11BookLendingC1ERKS_, symObjAddr: 0xBF60, symBinAddr: 0x10000E47C, symSize: 0x60 }
  - { offsetInCU: 0x3D345, offset: 0x3D345, size: 0x8, addend: 0x0, symName: __ZNSt12_Vector_baseIiSaIiEE12_Vector_implC1ERKS0_, symObjAddr: 0xBFC0, symBinAddr: 0x10000E4DC, symSize: 0x4C }
  - { offsetInCU: 0x3D3DE, offset: 0x3D3DE, size: 0x8, addend: 0x0, symName: __ZSt11__addressofISaISt10_List_nodeI11BookLendingEEEPT_RS4_, symObjAddr: 0xBF4C, symBinAddr: 0x10000E468, symSize: 0x14 }
  - { offsetInCU: 0x3D3E6, offset: 0x3D3E6, size: 0x8, addend: 0x0, symName: __ZN11BookLendingC1ERKS_, symObjAddr: 0xBF60, symBinAddr: 0x10000E47C, symSize: 0x60 }
  - { offsetInCU: 0x3D540, offset: 0x3D540, size: 0x8, addend: 0x0, symName: __ZSt12__relocate_aIPSt6vectorINSt7__cxx1112basic_stringIcSt11char_traitsIcESaIcEEESaIS6_EES9_SaIS8_EET0_T_SC_SB_RT1_, symObjAddr: 0xBEF0, symBinAddr: 0x10000E40C, symSize: 0x5C }
  - { offsetInCU: 0x3D548, offset: 0x3D548, size: 0x8, addend: 0x0, symName: __ZSt11__addressofISaISt10_List_nodeI11BookLendingEEEPT_RS4_, symObjAddr: 0xBF4C, symBinAddr: 0x10000E468, symSize: 0x14 }
  - { offsetInCU: 0x3D4EC, offset: 0x3D4EC, size: 0x8, addend: 0x0, symName: __ZNKSt6vectorIS_INSt7__cxx1112basic_stringIcSt11char_traitsIcESaIcEEESaIS5_EESaIS7_EE4sizeEv, symObjAddr: 0xBEBC, symBinAddr: 0x10000E3D8, symSize: 0x34 }
  - { offsetInCU: 0x3D4F4, offset: 0x3D4F4, size: 0x8, addend: 0x0, symName: __ZSt12__relocate_aIPSt6vectorINSt7__cxx1112basic_stringIcSt11char_traitsIcESaIcEEESaIS6_EES9_SaIS8_EET0_T_SC_SB_RT1_, symObjAddr: 0xBEF0, symBinAddr: 0x10000E40C, symSize: 0x5C }
  - { offsetInCU: 0x3D51B, offset: 0x3D51B, size: 0x8, addend: 0x0, symName: __ZNKSt6vectorIS_INSt7__cxx1112basic_stringIcSt11char_traitsIcESaIcEEESaIS5_EESaIS7_EE8max_sizeEv, symObjAddr: 0xBE9C, symBinAddr: 0x10000E3B8, symSize: 0x20 }
  - { offsetInCU: 0x3D523, offset: 0x3D523, size: 0x8, addend: 0x0, symName: __ZNKSt6vectorIS_INSt7__cxx1112basic_stringIcSt11char_traitsIcESaIcEEESaIS5_EESaIS7_EE4sizeEv, symObjAddr: 0xBEBC, symBinAddr: 0x10000E3D8, symSize: 0x34 }
  - { offsetInCU: 0x3D5AC, offset: 0x3D5AC, size: 0x8, addend: 0x0, symName: __ZSt12__relocate_aIPiS0_SaIiEET0_T_S3_S2_RT1_, symObjAddr: 0xBE40, symBinAddr: 0x10000E35C, symSize: 0x5C }
  - { offsetInCU: 0x3D5B4, offset: 0x3D5B4, size: 0x8, addend: 0x0, symName: __ZNKSt6vectorIS_INSt7__cxx1112basic_stringIcSt11char_traitsIcESaIcEEESaIS5_EESaIS7_EE8max_sizeEv, symObjAddr: 0xBE9C, symBinAddr: 0x10000E3B8, symSize: 0x20 }
  - { offsetInCU: 0x3D621, offset: 0x3D621, size: 0x8, addend: 0x0, symName: __ZNKSt6vectorIiSaIiEE8max_sizeEv, symObjAddr: 0xBE20, symBinAddr: 0x10000E33C, symSize: 0x20 }
  - { offsetInCU: 0x3D629, offset: 0x3D629, size: 0x8, addend: 0x0, symName: __ZSt12__relocate_aIPiS0_SaIiEET0_T_S3_S2_RT1_, symObjAddr: 0xBE40, symBinAddr: 0x10000E35C, symSize: 0x5C }
  - { offsetInCU: 0x3D650, offset: 0x3D650, size: 0x8, addend: 0x0, symName: __ZNSt10_HashtableIiSt4pairIKiiESaIS2_ENSt8__detail10_Select1stESt8equal_toIiESt4hashIiENS4_18_Mod_range_hashingENS4_20_Default_ranged_hashENS4_20_Prime_rehash_policyENS4_17_Hashtable_traitsILb0ELb0ELb1EEEE13_M_rehash_auxEmSt17integral_constantIbLb1EE, symObjAddr: 0xBCB4, symBinAddr: 0x10000E1D0, symSize: 0x16C }
  - { offsetInCU: 0x3D658, offset: 0x3D658, size: 0x8, addend: 0x0, symName: __ZNKSt6vectorIiSaIiEE8max_sizeEv, symObjAddr: 0xBE20, symBinAddr: 0x10000E33C, symSize: 0x20 }
  - { offsetInCU: 0x3D874, offset: 0x3D874, size: 0x8, addend: 0x0, symName: __ZSt12__to_addressINSt8__detail10_Hash_nodeISt4pairIKiiELb0EEEEPT_S7_, symObjAddr: 0xBCA0, symBinAddr: 0x10000E1BC, symSize: 0x14 }
  - { offsetInCU: 0x3D87C, offset: 0x3D87C, size: 0x8, addend: 0x0, symName: __ZNSt10_HashtableIiSt4pairIKiiESaIS2_ENSt8__detail10_Select1stESt8equal_toIiESt4hashIiENS4_18_Mod_range_hashingENS4_20_Default_ranged_hashENS4_20_Prime_rehash_policyENS4_17_Hashtable_traitsILb0ELb0ELb1EEEE13_M_rehash_auxEmSt17integral_constantIbLb1EE, symObjAddr: 0xBCB4, symBinAddr: 0x10000E1D0, symSize: 0x16C }
  - { offsetInCU: 0x3D8AA, offset: 0x3D8AA, size: 0x8, addend: 0x0, symName: __ZNSt10_Head_baseILm0ERKiLb0EEC2ES1_, symObjAddr: 0xBC7C, symBinAddr: 0x10000E198, symSize: 0x24 }
  - { offsetInCU: 0x3D8B2, offset: 0x3D8B2, size: 0x8, addend: 0x0, symName: __ZSt12__to_addressINSt8__detail10_Hash_nodeISt4pairIKiiELb0EEEEPT_S7_, symObjAddr: 0xBCA0, symBinAddr: 0x10000E1BC, symSize: 0x14 }
  - { offsetInCU: 0x3D8C2, offset: 0x3D8C2, size: 0x8, addend: 0x0, symName: __ZN9__gnu_cxx16__aligned_bufferISt4pairIKiiEE6_M_ptrEv, symObjAddr: 0xBC60, symBinAddr: 0x10000E17C, symSize: 0x1C }
  - { offsetInCU: 0x3D8CA, offset: 0x3D8CA, size: 0x8, addend: 0x0, symName: __ZNSt10_Head_baseILm0ERKiLb0EEC2ES1_, symObjAddr: 0xBC7C, symBinAddr: 0x10000E198, symSize: 0x24 }
  - { offsetInCU: 0x3D8F1, offset: 0x3D8F1, size: 0x8, addend: 0x0, symName: __ZNSt10_HashtableINSt7__cxx1112basic_stringIcSt11char_traitsIcESaIcEEESt4pairIKS5_iESaIS8_ENSt8__detail10_Select1stESt8equal_toIS5_ESt4hashIS5_ENSA_18_Mod_range_hashingENSA_20_Default_ranged_hashENSA_20_Prime_rehash_policyENSA_17_Hashtable_traitsILb1ELb0ELb1EEEE13_M_rehash_auxEmSt17integral_constantIbLb1EE, symObjAddr: 0xBAF4, symBinAddr: 0x10000E010, symSize: 0x16C }
  - { offsetInCU: 0x3D8F9, offset: 0x3D8F9, size: 0x8, addend: 0x0, symName: __ZN9__gnu_cxx16__aligned_bufferISt4pairIKiiEE6_M_ptrEv, symObjAddr: 0xBC60, symBinAddr: 0x10000E17C, symSize: 0x1C }
  - { offsetInCU: 0x3DB64, offset: 0x3DB64, size: 0x8, addend: 0x0, symName: __ZSt12__to_addressINSt8__detail10_Hash_nodeISt4pairIKNSt7__cxx1112basic_stringIcSt11char_traitsIcESaIcEEEiELb1EEEEPT_SD_, symObjAddr: 0xBAE0, symBinAddr: 0x10000DFFC, symSize: 0x14 }
  - { offsetInCU: 0x3DB6C, offset: 0x3DB6C, size: 0x8, addend: 0x0, symName: __ZNSt10_HashtableINSt7__cxx1112basic_stringIcSt11char_traitsIcESaIcEEESt4pairIKS5_iESaIS8_ENSt8__detail10_Select1stESt8equal_toIS5_ESt4hashIS5_ENSA_18_Mod_range_hashingENSA_20_Default_ranged_hashENSA_20_Prime_rehash_policyENSA_17_Hashtable_traitsILb1ELb0ELb1EEEE13_M_rehash_auxEmSt17integral_constantIbLb1EE, symObjAddr: 0xBAF4, symBinAddr: 0x10000E010, symSize: 0x16C }
  - { offsetInCU: 0x3DB7E, offset: 0x3DB7E, size: 0x8, addend: 0x0, symName: __ZNSt10_Head_baseILm0ERKNSt7__cxx1112basic_stringIcSt11char_traitsIcESaIcEEELb0EEC2ES7_, symObjAddr: 0xBABC, symBinAddr: 0x10000DFD8, symSize: 0x24 }
  - { offsetInCU: 0x3DB86, offset: 0x3DB86, size: 0x8, addend: 0x0, symName: __ZSt12__to_addressINSt8__detail10_Hash_nodeISt4pairIKNSt7__cxx1112basic_stringIcSt11char_traitsIcESaIcEEEiELb1EEEEPT_SD_, symObjAddr: 0xBAE0, symBinAddr: 0x10000DFFC, symSize: 0x14 }
  - { offsetInCU: 0x3DB63, offset: 0x3DB63, size: 0x8, addend: 0x0, symName: __ZN9__gnu_cxx16__aligned_bufferISt4pairIKNSt7__cxx1112basic_stringIcSt11char_traitsIcESaIcEEEiEE6_M_ptrEv, symObjAddr: 0xBAA0, symBinAddr: 0x10000DFBC, symSize: 0x1C }
  - { offsetInCU: 0x3DB6B, offset: 0x3DB6B, size: 0x8, addend: 0x0, symName: __ZNSt10_Head_baseILm0ERKNSt7__cxx1112basic_stringIcSt11char_traitsIcESaIcEEELb0EEC2ES7_, symObjAddr: 0xBABC, symBinAddr: 0x10000DFD8, symSize: 0x24 }
  - { offsetInCU: 0x3DB92, offset: 0x3DB92, size: 0x8, addend: 0x0, symName: __ZNKSt10_HashtableIiSt4pairIKiiESaIS2_ENSt8__detail10_Select1stESt8equal_toIiESt4hashIiENS4_18_Mod_range_hashingENS4_20_Default_ranged_hashENS4_20_Prime_rehash_policyENS4_17_Hashtable_traitsILb0ELb0ELb1EEEE15_M_bucket_indexERKNS4_16_Hash_node_valueIS2_Lb0EEE, symObjAddr: 0xBA70, symBinAddr: 0x10000DF8C, symSize: 0x30 }
  - { offsetInCU: 0x3DB9A, offset: 0x3DB9A, size: 0x8, addend: 0x0, symName: __ZN9__gnu_cxx16__aligned_bufferISt4pairIKNSt7__cxx1112basic_stringIcSt11char_traitsIcESaIcEEEiEE6_M_ptrEv, symObjAddr: 0xBAA0, symBinAddr: 0x10000DFBC, symSize: 0x1C }
  - { offsetInCU: 0x3DBD6, offset: 0x3DBD6, size: 0x8, addend: 0x0, symName: __ZNKSt8__detail15_Hashtable_baseIiSt4pairIKiiENS_10_Select1stESt8equal_toIiESt4hashIiENS_18_Mod_range_hashingENS_20_Default_ranged_hashENS_17_Hashtable_traitsILb0ELb0ELb1EEEE9_M_equalsERS2_mRKNS_16_Hash_node_valueIS3_Lb0EEE, symObjAddr: 0xBA08, symBinAddr: 0x10000DF24, symSize: 0x68 }
  - { offsetInCU: 0x3DBDE, offset: 0x3DBDE, size: 0x8, addend: 0x0, symName: __ZNKSt10_HashtableIiSt4pairIKiiESaIS2_ENSt8__detail10_Select1stESt8equal_toIiESt4hashIiENS4_18_Mod_range_hashingENS4_20_Default_ranged_hashENS4_20_Prime_rehash_policyENS4_17_Hashtable_traitsILb0ELb0ELb1EEEE15_M_bucket_indexERKNS4_16_Hash_node_valueIS2_Lb0EEE, symObjAddr: 0xBA70, symBinAddr: 0x10000DF8C, symSize: 0x30 }
  - { offsetInCU: 0x3DC44, offset: 0x3DC44, size: 0x8, addend: 0x0, symName: __ZNKSt8__detail21_Hashtable_ebo_helperILi1ESt4hashIiELb1EE7_M_cgetEv, symObjAddr: 0xB9F4, symBinAddr: 0x10000DF10, symSize: 0x14 }
  - { offsetInCU: 0x3DC4C, offset: 0x3DC4C, size: 0x8, addend: 0x0, symName: __ZNKSt8__detail15_Hashtable_baseIiSt4pairIKiiENS_10_Select1stESt8equal_toIiESt4hashIiENS_18_Mod_range_hashingENS_20_Default_ranged_hashENS_17_Hashtable_traitsILb0ELb0ELb1EEEE9_M_equalsERS2_mRKNS_16_Hash_node_valueIS3_Lb0EEE, symObjAddr: 0xBA08, symBinAddr: 0x10000DF24, symSize: 0x68 }
  - { offsetInCU: 0x3DCE2, offset: 0x3DCE2, size: 0x8, addend: 0x0, symName: __ZSt7forwardIRKSt4pairIKiiEEOT_RNSt16remove_referenceIS5_E4typeE, symObjAddr: 0xB9E0, symBinAddr: 0x10000DEFC, symSize: 0x14 }
  - { offsetInCU: 0x3DCEA, offset: 0x3DCEA, size: 0x8, addend: 0x0, symName: __ZNKSt8__detail21_Hashtable_ebo_helperILi1ESt4hashIiELb1EE7_M_cgetEv, symObjAddr: 0xB9F4, symBinAddr: 0x10000DF10, symSize: 0x14 }
  - { offsetInCU: 0x3DCC7, offset: 0x3DCC7, size: 0x8, addend: 0x0, symName: __ZNKSt8__detail21_Hash_node_value_baseISt4pairIKiiEE9_M_valptrEv, symObjAddr: 0xB9C4, symBinAddr: 0x10000DEE0, symSize: 0x1C }
  - { offsetInCU: 0x3DCCF, offset: 0x3DCCF, size: 0x8, addend: 0x0, symName: __ZSt7forwardIRKSt4pairIKiiEEOT_RNSt16remove_referenceIS5_E4typeE, symObjAddr: 0xB9E0, symBinAddr: 0x10000DEFC, symSize: 0x14 }
  - { offsetInCU: 0x3DCF6, offset: 0x3DCF6, size: 0x8, addend: 0x0, symName: __ZNKSt8__detail21_Hashtable_ebo_helperILi0ESt8equal_toIiELb1EE7_M_cgetEv, symObjAddr: 0xB9B0, symBinAddr: 0x10000DECC, symSize: 0x14 }
  - { offsetInCU: 0x3DCFE, offset: 0x3DCFE, size: 0x8, addend: 0x0, symName: __ZNKSt8__detail21_Hash_node_value_baseISt4pairIKiiEE9_M_valptrEv, symObjAddr: 0xB9C4, symBinAddr: 0x10000DEE0, symSize: 0x1C }
  - { offsetInCU: 0x3DD25, offset: 0x3DD25, size: 0x8, addend: 0x0, symName: __ZNKSt10_HashtableINSt7__cxx1112basic_stringIcSt11char_traitsIcESaIcEEESt4pairIKS5_iESaIS8_ENSt8__detail10_Select1stESt8equal_toIS5_ESt4hashIS5_ENSA_18_Mod_range_hashingENSA_20_Default_ranged_hashENSA_20_Prime_rehash_policyENSA_17_Hashtable_traitsILb1ELb0ELb1EEEE15_M_bucket_indexERKNSA_16_Hash_node_valueIS8_Lb1EEE, symObjAddr: 0xB980, symBinAddr: 0x10000DE9C, symSize: 0x30 }
  - { offsetInCU: 0x3DD2D, offset: 0x3DD2D, size: 0x8, addend: 0x0, symName: __ZNKSt8__detail21_Hashtable_ebo_helperILi0ESt8equal_toIiELb1EE7_M_cgetEv, symObjAddr: 0xB9B0, symBinAddr: 0x10000DECC, symSize: 0x14 }
  - { offsetInCU: 0x3DD69, offset: 0x3DD69, size: 0x8, addend: 0x0, symName: __ZNKSt8__detail15_Hashtable_baseINSt7__cxx1112basic_stringIcSt11char_traitsIcESaIcEEESt4pairIKS6_iENS_10_Select1stESt8equal_toIS6_ESt4hashIS6_ENS_18_Mod_range_hashingENS_20_Default_ranged_hashENS_17_Hashtable_traitsILb1ELb0ELb1EEEE9_M_equalsERS8_mRKNS_16_Hash_node_valueIS9_Lb1EEE, symObjAddr: 0xB910, symBinAddr: 0x10000DE2C, symSize: 0x70 }
  - { offsetInCU: 0x3DD71, offset: 0x3DD71, size: 0x8, addend: 0x0, symName: __ZNKSt10_HashtableINSt7__cxx1112basic_stringIcSt11char_traitsIcESaIcEEESt4pairIKS5_iESaIS8_ENSt8__detail10_Select1stESt8equal_toIS5_ESt4hashIS5_ENSA_18_Mod_range_hashingENSA_20_Default_ranged_hashENSA_20_Prime_rehash_policyENSA_17_Hashtable_traitsILb1ELb0ELb1EEEE15_M_bucket_indexERKNSA_16_Hash_node_valueIS8_Lb1EEE, symObjAddr: 0xB980, symBinAddr: 0x10000DE9C, symSize: 0x30 }
  - { offsetInCU: 0x3DDD7, offset: 0x3DDD7, size: 0x8, addend: 0x0, symName: __ZNKSt8__detail21_Hashtable_ebo_helperILi1ESt4hashINSt7__cxx1112basic_stringIcSt11char_traitsIcESaIcEEEELb1EE7_M_cgetEv, symObjAddr: 0xB8FC, symBinAddr: 0x10000DE18, symSize: 0x14 }
  - { offsetInCU: 0x3DDDF, offset: 0x3DDDF, size: 0x8, addend: 0x0, symName: __ZNKSt8__detail15_Hashtable_baseINSt7__cxx1112basic_stringIcSt11char_traitsIcESaIcEEESt4pairIKS6_iENS_10_Select1stESt8equal_toIS6_ESt4hashIS6_ENS_18_Mod_range_hashingENS_20_Default_ranged_hashENS_17_Hashtable_traitsILb1ELb0ELb1EEEE9_M_equalsERS8_mRKNS_16_Hash_node_valueIS9_Lb1EEE, symObjAddr: 0xB910, symBinAddr: 0x10000DE2C, symSize: 0x70 }
  - { offsetInCU: 0x3DEC5, offset: 0x3DEC5, size: 0x8, addend: 0x0, symName: __ZSt7forwardIRKSt4pairIKNSt7__cxx1112basic_stringIcSt11char_traitsIcESaIcEEEiEEOT_RNSt16remove_referenceISB_E4typeE, symObjAddr: 0xB8E8, symBinAddr: 0x10000DE04, symSize: 0x14 }
  - { offsetInCU: 0x3DECD, offset: 0x3DECD, size: 0x8, addend: 0x0, symName: __ZNKSt8__detail21_Hashtable_ebo_helperILi1ESt4hashINSt7__cxx1112basic_stringIcSt11char_traitsIcESaIcEEEELb1EE7_M_cgetEv, symObjAddr: 0xB8FC, symBinAddr: 0x10000DE18, symSize: 0x14 }
  - { offsetInCU: 0x3DE5A, offset: 0x3DE5A, size: 0x8, addend: 0x0, symName: __ZNKSt8__detail21_Hash_node_value_baseISt4pairIKNSt7__cxx1112basic_stringIcSt11char_traitsIcESaIcEEEiEE9_M_valptrEv, symObjAddr: 0xB8CC, symBinAddr: 0x10000DDE8, symSize: 0x1C }
  - { offsetInCU: 0x3DE62, offset: 0x3DE62, size: 0x8, addend: 0x0, symName: __ZSt7forwardIRKSt4pairIKNSt7__cxx1112basic_stringIcSt11char_traitsIcESaIcEEEiEEOT_RNSt16remove_referenceISB_E4typeE, symObjAddr: 0xB8E8, symBinAddr: 0x10000DE04, symSize: 0x14 }
  - { offsetInCU: 0x3DE89, offset: 0x3DE89, size: 0x8, addend: 0x0, symName: __ZNKSt8__detail21_Hashtable_ebo_helperILi0ESt8equal_toINSt7__cxx1112basic_stringIcSt11char_traitsIcESaIcEEEELb1EE7_M_cgetEv, symObjAddr: 0xB8B8, symBinAddr: 0x10000DDD4, symSize: 0x14 }
  - { offsetInCU: 0x3DE91, offset: 0x3DE91, size: 0x8, addend: 0x0, symName: __ZNKSt8__detail21_Hash_node_value_baseISt4pairIKNSt7__cxx1112basic_stringIcSt11char_traitsIcESaIcEEEiEE9_M_valptrEv, symObjAddr: 0xB8CC, symBinAddr: 0x10000DDE8, symSize: 0x1C }
  - { offsetInCU: 0x3DF14, offset: 0x3DF14, size: 0x8, addend: 0x0, symName: __ZSt16__do_uninit_copyIP8BookItemS1_ET0_T_S3_S2_, symObjAddr: 0xB824, symBinAddr: 0x10000DD40, symSize: 0x94 }
  - { offsetInCU: 0x3DF1C, offset: 0x3DF1C, size: 0x8, addend: 0x0, symName: __ZNKSt8__detail21_Hashtable_ebo_helperILi0ESt8equal_toINSt7__cxx1112basic_stringIcSt11char_traitsIcESaIcEEEELb1EE7_M_cgetEv, symObjAddr: 0xB8B8, symBinAddr: 0x10000DDD4, symSize: 0x14 }
  - { offsetInCU: 0x3DFAD, offset: 0x3DFAD, size: 0x8, addend: 0x0, symName: __ZSt14__copy_move_a2ILb0EP8BookItemS1_ET1_T0_S3_S2_, symObjAddr: 0xB7F8, symBinAddr: 0x10000DD14, symSize: 0x2C }
  - { offsetInCU: 0x3DFB5, offset: 0x3DFB5, size: 0x8, addend: 0x0, symName: __ZSt16__do_uninit_copyIP8BookItemS1_ET0_T_S3_S2_, symObjAddr: 0xB824, symBinAddr: 0x10000DD40, symSize: 0x94 }
  - { offsetInCU: 0x3DFDB, offset: 0x3DFDB, size: 0x8, addend: 0x0, symName: __ZNK9__gnu_cxx17__normal_iteratorIP8BookItemSt6vectorIS1_SaIS1_EEEdeEv, symObjAddr: 0xB7E0, symBinAddr: 0x10000DCFC, symSize: 0x18 }
  - { offsetInCU: 0x3DFE3, offset: 0x3DFE3, size: 0x8, addend: 0x0, symName: __ZSt14__copy_move_a2ILb0EP8BookItemS1_ET1_T0_S3_S2_, symObjAddr: 0xB7F8, symBinAddr: 0x10000DD14, symSize: 0x2C }
  - { offsetInCU: 0x3E00A, offset: 0x3E00A, size: 0x8, addend: 0x0, symName: __ZN9__gnu_cxx17__normal_iteratorIP8BookItemSt6vectorIS1_SaIS1_EEEppEv, symObjAddr: 0xB7B8, symBinAddr: 0x10000DCD4, symSize: 0x28 }
  - { offsetInCU: 0x3E012, offset: 0x3E012, size: 0x8, addend: 0x0, symName: __ZNK9__gnu_cxx17__normal_iteratorIP8BookItemSt6vectorIS1_SaIS1_EEEdeEv, symObjAddr: 0xB7E0, symBinAddr: 0x10000DCFC, symSize: 0x18 }
  - { offsetInCU: 0x3E0C2, offset: 0x3E0C2, size: 0x8, addend: 0x0, symName: __ZN9__gnu_cxxneIP8BookItemSt6vectorIS1_SaIS1_EEEEbRKNS_17__normal_iteratorIT_T0_EESB_, symObjAddr: 0xB774, symBinAddr: 0x10000DC90, symSize: 0x44 }
  - { offsetInCU: 0x3E0CA, offset: 0x3E0CA, size: 0x8, addend: 0x0, symName: __ZN9__gnu_cxx17__normal_iteratorIP8BookItemSt6vectorIS1_SaIS1_EEEppEv, symObjAddr: 0xB7B8, symBinAddr: 0x10000DCD4, symSize: 0x28 }
  - { offsetInCU: 0x3E0B3, offset: 0x3E0B3, size: 0x8, addend: 0x0, symName: __ZNK9__gnu_cxx17__normal_iteratorIP8BookItemSt6vectorIS1_SaIS1_EEEplEl, symObjAddr: 0xB728, symBinAddr: 0x10000DC44, symSize: 0x4C }
  - { offsetInCU: 0x3E0BB, offset: 0x3E0BB, size: 0x8, addend: 0x0, symName: __ZN9__gnu_cxxneIP8BookItemSt6vectorIS1_SaIS1_EEEEbRKNS_17__normal_iteratorIT_T0_EESB_, symObjAddr: 0xB774, symBinAddr: 0x10000DC90, symSize: 0x44 }
  - { offsetInCU: 0x3E164, offset: 0x3E164, size: 0x8, addend: 0x0, symName: __ZSt14__copy_move_a2ILb0EPK8BookItemPS0_ET1_T0_S5_S4_, symObjAddr: 0xB6FC, symBinAddr: 0x10000DC18, symSize: 0x2C }
  - { offsetInCU: 0x3E16C, offset: 0x3E16C, size: 0x8, addend: 0x0, symName: __ZNK9__gnu_cxx17__normal_iteratorIP8BookItemSt6vectorIS1_SaIS1_EEEplEl, symObjAddr: 0xB728, symBinAddr: 0x10000DC44, symSize: 0x4C }
  - { offsetInCU: 0x3E18A, offset: 0x3E18A, size: 0x8, addend: 0x0, symName: __ZNK9__gnu_cxx17__normal_iteratorIPK8BookItemSt6vectorIS1_SaIS1_EEE4baseEv, symObjAddr: 0xB6E8, symBinAddr: 0x10000DC04, symSize: 0x14 }
  - { offsetInCU: 0x3E192, offset: 0x3E192, size: 0x8, addend: 0x0, symName: __ZSt14__copy_move_a2ILb0EPK8BookItemPS0_ET1_T0_S5_S4_, symObjAddr: 0xB6FC, symBinAddr: 0x10000DC18, symSize: 0x2C }
  - { offsetInCU: 0x3E1B9, offset: 0x3E1B9, size: 0x8, addend: 0x0, symName: __ZNSt20__uninitialized_copyILb0EE13__uninit_copyIN9__gnu_cxx17__normal_iteratorIPK8BookItemSt6vectorIS4_SaIS4_EEEEPS4_EET0_T_SD_SC_, symObjAddr: 0xB6BC, symBinAddr: 0x10000DBD8, symSize: 0x2C }
  - { offsetInCU: 0x3E1C1, offset: 0x3E1C1, size: 0x8, addend: 0x0, symName: __ZNK9__gnu_cxx17__normal_iteratorIPK8BookItemSt6vectorIS1_SaIS1_EEE4baseEv, symObjAddr: 0xB6E8, symBinAddr: 0x10000DC04, symSize: 0x14 }
  - { offsetInCU: 0x3E299, offset: 0x3E299, size: 0x8, addend: 0x0, symName: __ZSt14__relocate_a_1IP4RackS1_SaIS0_EET0_T_S4_S3_RT1_, symObjAddr: 0xB638, symBinAddr: 0x10000DB54, symSize: 0x84 }
  - { offsetInCU: 0x3E2A1, offset: 0x3E2A1, size: 0x8, addend: 0x0, symName: __ZNSt20__uninitialized_copyILb0EE13__uninit_copyIN9__gnu_cxx17__normal_iteratorIPK8BookItemSt6vectorIS4_SaIS4_EEEEPS4_EET0_T_SD_SC_, symObjAddr: 0xB6BC, symBinAddr: 0x10000DBD8, symSize: 0x2C }
  - { offsetInCU: 0x3E31F, offset: 0x3E31F, size: 0x8, addend: 0x0, symName: __ZSt12__niter_baseIP4RackET_S2_, symObjAddr: 0xB624, symBinAddr: 0x10000DB40, symSize: 0x14 }
  - { offsetInCU: 0x3E327, offset: 0x3E327, size: 0x8, addend: 0x0, symName: __ZSt14__relocate_a_1IP4RackS1_SaIS0_EET0_T_S4_S3_RT1_, symObjAddr: 0xB638, symBinAddr: 0x10000DB54, symSize: 0x84 }
  - { offsetInCU: 0x3E334, offset: 0x3E334, size: 0x8, addend: 0x0, symName: __ZNSt15__new_allocatorI4RackE8allocateEmPKv, symObjAddr: 0xB594, symBinAddr: 0x10000DAB0, symSize: 0x90 }
  - { offsetInCU: 0x3E33C, offset: 0x3E33C, size: 0x8, addend: 0x0, symName: __ZSt12__niter_baseIP4RackET_S2_, symObjAddr: 0xB624, symBinAddr: 0x10000DB40, symSize: 0x14 }
  - { offsetInCU: 0x3E3BE, offset: 0x3E3BE, size: 0x8, addend: 0x0, symName: __ZNSt27__uninitialized_default_n_1ILb0EE18__uninit_default_nIP4RackmEET_S4_T0_, symObjAddr: 0xB53C, symBinAddr: 0x10000DA58, symSize: 0x58 }
  - { offsetInCU: 0x3E3C6, offset: 0x3E3C6, size: 0x8, addend: 0x0, symName: __ZNSt15__new_allocatorI4RackE8allocateEmPKv, symObjAddr: 0xB594, symBinAddr: 0x10000DAB0, symSize: 0x90 }
  - { offsetInCU: 0x3E484, offset: 0x3E484, size: 0x8, addend: 0x0, symName: __ZNSt8__detail16_Hashtable_allocISaINS_10_Hash_nodeISt4pairIKiiELb0EEEEE22_M_deallocate_node_ptrEPS5_, symObjAddr: 0xB4E4, symBinAddr: 0x10000DA00, symSize: 0x58 }
  - { offsetInCU: 0x3E48C, offset: 0x3E48C, size: 0x8, addend: 0x0, symName: __ZNSt27__uninitialized_default_n_1ILb0EE18__uninit_default_nIP4RackmEET_S4_T0_, symObjAddr: 0xB53C, symBinAddr: 0x10000DA58, symSize: 0x58 }
  - { offsetInCU: 0x3E55C, offset: 0x3E55C, size: 0x8, addend: 0x0, symName: __ZNSt8__detail16_Hashtable_allocISaINS_10_Hash_nodeISt4pairIKiiELb0EEEEE17_M_node_allocatorEv, symObjAddr: 0xB4C8, symBinAddr: 0x10000D9E4, symSize: 0x1C }
  - { offsetInCU: 0x3E564, offset: 0x3E564, size: 0x8, addend: 0x0, symName: __ZNSt8__detail16_Hashtable_allocISaINS_10_Hash_nodeISt4pairIKiiELb0EEEEE22_M_deallocate_node_ptrEPS5_, symObjAddr: 0xB4E4, symBinAddr: 0x10000DA00, symSize: 0x58 }
  - { offsetInCU: 0x3E628, offset: 0x3E628, size: 0x8, addend: 0x0, symName: __ZNSt19__ptr_traits_ptr_toIPPNSt8__detail15_Hash_node_baseES2_Lb0EE10pointer_toERS2_, symObjAddr: 0xB4AC, symBinAddr: 0x10000D9C8, symSize: 0x1C }
  - { offsetInCU: 0x3E630, offset: 0x3E630, size: 0x8, addend: 0x0, symName: __ZNSt8__detail16_Hashtable_allocISaINS_10_Hash_nodeISt4pairIKiiELb0EEEEE17_M_node_allocatorEv, symObjAddr: 0xB4C8, symBinAddr: 0x10000D9E4, symSize: 0x1C }
  - { offsetInCU: 0x3E659, offset: 0x3E659, size: 0x8, addend: 0x0, symName: __ZNSt8__detail16_Hashtable_allocISaINS_10_Hash_nodeISt4pairIKNSt7__cxx1112basic_stringIcSt11char_traitsIcESaIcEEEiELb1EEEEE22_M_deallocate_node_ptrEPSB_, symObjAddr: 0xB454, symBinAddr: 0x10000D970, symSize: 0x58 }
  - { offsetInCU: 0x3E661, offset: 0x3E661, size: 0x8, addend: 0x0, symName: __ZNSt19__ptr_traits_ptr_toIPPNSt8__detail15_Hash_node_baseES2_Lb0EE10pointer_toERS2_, symObjAddr: 0xB4AC, symBinAddr: 0x10000D9C8, symSize: 0x1C }
  - { offsetInCU: 0x3E731, offset: 0x3E731, size: 0x8, addend: 0x0, symName: __ZNSt8__detail16_Hashtable_allocISaINS_10_Hash_nodeISt4pairIKNSt7__cxx1112basic_stringIcSt11char_traitsIcESaIcEEEiELb1EEEEE17_M_node_allocatorEv, symObjAddr: 0xB438, symBinAddr: 0x10000D954, symSize: 0x1C }
  - { offsetInCU: 0x3E739, offset: 0x3E739, size: 0x8, addend: 0x0, symName: __ZNSt8__detail16_Hashtable_allocISaINS_10_Hash_nodeISt4pairIKNSt7__cxx1112basic_stringIcSt11char_traitsIcESaIcEEEiELb1EEEEE22_M_deallocate_node_ptrEPSB_, symObjAddr: 0xB454, symBinAddr: 0x10000D970, symSize: 0x58 }
  - { offsetInCU: 0x3E760, offset: 0x3E760, size: 0x8, addend: 0x0, symName: __ZNSt15__new_allocatorISt10_List_nodeI11BookLendingEE10deallocateEPS2_m, symObjAddr: 0xB3FC, symBinAddr: 0x10000D918, symSize: 0x3C }
  - { offsetInCU: 0x3E768, offset: 0x3E768, size: 0x8, addend: 0x0, symName: __ZNSt8__detail16_Hashtable_allocISaINS_10_Hash_nodeISt4pairIKNSt7__cxx1112basic_stringIcSt11char_traitsIcESaIcEEEiELb1EEEEE17_M_node_allocatorEv, symObjAddr: 0xB438, symBinAddr: 0x10000D954, symSize: 0x1C }
  - { offsetInCU: 0x3E7DD, offset: 0x3E7DD, size: 0x8, addend: 0x0, symName: __ZSt8_DestroyI4RackEvPT_, symObjAddr: 0xB3DC, symBinAddr: 0x10000D8F8, symSize: 0x20 }
  - { offsetInCU: 0x3E7E5, offset: 0x3E7E5, size: 0x8, addend: 0x0, symName: __ZNSt15__new_allocatorISt10_List_nodeI11BookLendingEE10deallocateEPS2_m, symObjAddr: 0xB3FC, symBinAddr: 0x10000D918, symSize: 0x3C }
  - { offsetInCU: 0x3E82D, offset: 0x3E82D, size: 0x8, addend: 0x0, symName: __ZSt11__addressofI4RackEPT_RS1_, symObjAddr: 0xB3C8, symBinAddr: 0x10000D8E4, symSize: 0x14 }
  - { offsetInCU: 0x3E835, offset: 0x3E835, size: 0x8, addend: 0x0, symName: __ZSt8_DestroyI4RackEvPT_, symObjAddr: 0xB3DC, symBinAddr: 0x10000D8F8, symSize: 0x20 }
  - { offsetInCU: 0x3E9BD, offset: 0x3E9BD, size: 0x8, addend: 0x0, symName: __ZSt12__relocate_aIPSt4pairI8BookItemNSt7__cxx1112basic_stringIcSt11char_traitsIcESaIcEEEES9_SaIS8_EET0_T_SC_SB_RT1_, symObjAddr: 0xB36C, symBinAddr: 0x10000D888, symSize: 0x5C }
  - { offsetInCU: 0x3E9C5, offset: 0x3E9C5, size: 0x8, addend: 0x0, symName: __ZSt11__addressofI4RackEPT_RS1_, symObjAddr: 0xB3C8, symBinAddr: 0x10000D8E4, symSize: 0x14 }
  - { offsetInCU: 0x3E951, offset: 0x3E951, size: 0x8, addend: 0x0, symName: __ZNKSt6vectorISt4pairI8BookItemNSt7__cxx1112basic_stringIcSt11char_traitsIcESaIcEEEESaIS8_EE4sizeEv, symObjAddr: 0xB330, symBinAddr: 0x10000D84C, symSize: 0x3C }
  - { offsetInCU: 0x3E959, offset: 0x3E959, size: 0x8, addend: 0x0, symName: __ZSt12__relocate_aIPSt4pairI8BookItemNSt7__cxx1112basic_stringIcSt11char_traitsIcESaIcEEEES9_SaIS8_EET0_T_SC_SB_RT1_, symObjAddr: 0xB36C, symBinAddr: 0x10000D888, symSize: 0x5C }
  - { offsetInCU: 0x3E980, offset: 0x3E980, size: 0x8, addend: 0x0, symName: __ZNKSt6vectorISt4pairI8BookItemNSt7__cxx1112basic_stringIcSt11char_traitsIcESaIcEEEESaIS8_EE8max_sizeEv, symObjAddr: 0xB310, symBinAddr: 0x10000D82C, symSize: 0x20 }
  - { offsetInCU: 0x3E988, offset: 0x3E988, size: 0x8, addend: 0x0, symName: __ZNKSt6vectorISt4pairI8BookItemNSt7__cxx1112basic_stringIcSt11char_traitsIcESaIcEEEESaIS8_EE4sizeEv, symObjAddr: 0xB330, symBinAddr: 0x10000D84C, symSize: 0x3C }
  - { offsetInCU: 0x3EA4B, offset: 0x3EA4B, size: 0x8, addend: 0x0, symName: __ZSt8_DestroyISt4pairI8BookItemNSt7__cxx1112basic_stringIcSt11char_traitsIcESaIcEEEEEvPT_, symObjAddr: 0xB2F0, symBinAddr: 0x10000D80C, symSize: 0x20 }
  - { offsetInCU: 0x3EA53, offset: 0x3EA53, size: 0x8, addend: 0x0, symName: __ZNKSt6vectorISt4pairI8BookItemNSt7__cxx1112basic_stringIcSt11char_traitsIcESaIcEEEESaIS8_EE8max_sizeEv, symObjAddr: 0xB310, symBinAddr: 0x10000D82C, symSize: 0x20 }
  - { offsetInCU: 0x3EA9B, offset: 0x3EA9B, size: 0x8, addend: 0x0, symName: __ZSt11__addressofISt4pairI8BookItemNSt7__cxx1112basic_stringIcSt11char_traitsIcESaIcEEEEEPT_RS9_, symObjAddr: 0xB2DC, symBinAddr: 0x10000D7F8, symSize: 0x14 }
  - { offsetInCU: 0x3EAA3, offset: 0x3EAA3, size: 0x8, addend: 0x0, symName: __ZSt8_DestroyISt4pairI8BookItemNSt7__cxx1112basic_stringIcSt11char_traitsIcESaIcEEEEEvPT_, symObjAddr: 0xB2F0, symBinAddr: 0x10000D80C, symSize: 0x20 }
  - { offsetInCU: 0x3EABA, offset: 0x3EABA, size: 0x8, addend: 0x0, symName: __ZSt14__relocate_a_1IP8BookItemS1_SaIS0_EET0_T_S4_S3_RT1_, symObjAddr: 0xB258, symBinAddr: 0x10000D774, symSize: 0x84 }
  - { offsetInCU: 0x3EAC2, offset: 0x3EAC2, size: 0x8, addend: 0x0, symName: __ZSt11__addressofISt4pairI8BookItemNSt7__cxx1112basic_stringIcSt11char_traitsIcESaIcEEEEEPT_RS9_, symObjAddr: 0xB2DC, symBinAddr: 0x10000D7F8, symSize: 0x14 }
  - { offsetInCU: 0x3EAF7, offset: 0x3EAF7, size: 0x8, addend: 0x0, symName: __ZNSt15__new_allocatorI8BookItemE8allocateEmPKv, symObjAddr: 0xB1C8, symBinAddr: 0x10000D6E4, symSize: 0x90 }
  - { offsetInCU: 0x3EAFF, offset: 0x3EAFF, size: 0x8, addend: 0x0, symName: __ZSt14__relocate_a_1IP8BookItemS1_SaIS0_EET0_T_S4_S3_RT1_, symObjAddr: 0xB258, symBinAddr: 0x10000D774, symSize: 0x84 }
  - { offsetInCU: 0x3EB81, offset: 0x3EB81, size: 0x8, addend: 0x0, symName: __ZNSt6vectorI8BookItemSaIS0_EE11_S_max_sizeERKS1_, symObjAddr: 0xB16C, symBinAddr: 0x10000D688, symSize: 0x5C }
  - { offsetInCU: 0x3EB89, offset: 0x3EB89, size: 0x8, addend: 0x0, symName: __ZNSt15__new_allocatorI8BookItemE8allocateEmPKv, symObjAddr: 0xB1C8, symBinAddr: 0x10000D6E4, symSize: 0x90 }
  - { offsetInCU: 0x3EC86, offset: 0x3EC86, size: 0x8, addend: 0x0, symName: __ZSt8_DestroyI8BookItemEvPT_, symObjAddr: 0xB14C, symBinAddr: 0x10000D668, symSize: 0x20 }
  - { offsetInCU: 0x3EC8E, offset: 0x3EC8E, size: 0x8, addend: 0x0, symName: __ZNSt6vectorI8BookItemSaIS0_EE11_S_max_sizeERKS1_, symObjAddr: 0xB16C, symBinAddr: 0x10000D688, symSize: 0x5C }
  - { offsetInCU: 0x3ECD6, offset: 0x3ECD6, size: 0x8, addend: 0x0, symName: __ZSt11__addressofI8BookItemEPT_RS1_, symObjAddr: 0xB138, symBinAddr: 0x10000D654, symSize: 0x14 }
  - { offsetInCU: 0x3ECDE, offset: 0x3ECDE, size: 0x8, addend: 0x0, symName: __ZSt8_DestroyI8BookItemEvPT_, symObjAddr: 0xB14C, symBinAddr: 0x10000D668, symSize: 0x20 }
  - { offsetInCU: 0x3EE26, offset: 0x3EE26, size: 0x8, addend: 0x0, symName: __ZSt16__do_uninit_copyIN9__gnu_cxx17__normal_iteratorIPKNSt7__cxx1112basic_stringIcSt11char_traitsIcESaIcEEESt6vectorIS7_SaIS7_EEEEPS7_ET0_T_SG_SF_, symObjAddr: 0xB08C, symBinAddr: 0x10000D5A8, symSize: 0xAC }
  - { offsetInCU: 0x3EE2E, offset: 0x3EE2E, size: 0x8, addend: 0x0, symName: __ZSt11__addressofI8BookItemEPT_RS1_, symObjAddr: 0xB138, symBinAddr: 0x10000D654, symSize: 0x14 }
  - { offsetInCU: 0x3EE29, offset: 0x3EE29, size: 0x8, addend: 0x0, symName: __ZSt16__do_uninit_copyIPNSt7__cxx1112basic_stringIcSt11char_traitsIcESaIcEEES6_ET0_T_S8_S7_, symObjAddr: 0xAFF8, symBinAddr: 0x10000D514, symSize: 0x94 }
  - { offsetInCU: 0x3EE31, offset: 0x3EE31, size: 0x8, addend: 0x0, symName: __ZSt16__do_uninit_copyIN9__gnu_cxx17__normal_iteratorIPKNSt7__cxx1112basic_stringIcSt11char_traitsIcESaIcEEESt6vectorIS7_SaIS7_EEEEPS7_ET0_T_SG_SF_, symObjAddr: 0xB08C, symBinAddr: 0x10000D5A8, symSize: 0xAC }
  - { offsetInCU: 0x3EEC2, offset: 0x3EEC2, size: 0x8, addend: 0x0, symName: __ZSt14__copy_move_a2ILb0EPNSt7__cxx1112basic_stringIcSt11char_traitsIcESaIcEEES6_ET1_T0_S8_S7_, symObjAddr: 0xAFCC, symBinAddr: 0x10000D4E8, symSize: 0x2C }
  - { offsetInCU: 0x3EECA, offset: 0x3EECA, size: 0x8, addend: 0x0, symName: __ZSt16__do_uninit_copyIPNSt7__cxx1112basic_stringIcSt11char_traitsIcESaIcEEES6_ET0_T_S8_S7_, symObjAddr: 0xAFF8, symBinAddr: 0x10000D514, symSize: 0x94 }
  - { offsetInCU: 0x3EE95, offset: 0x3EE95, size: 0x8, addend: 0x0, symName: __ZN9__gnu_cxx17__normal_iteratorIPNSt7__cxx1112basic_stringIcSt11char_traitsIcESaIcEEESt6vectorIS6_SaIS6_EEEppEv, symObjAddr: 0xAFA4, symBinAddr: 0x10000D4C0, symSize: 0x28 }
  - { offsetInCU: 0x3EE9D, offset: 0x3EE9D, size: 0x8, addend: 0x0, symName: __ZSt14__copy_move_a2ILb0EPNSt7__cxx1112basic_stringIcSt11char_traitsIcESaIcEEES6_ET1_T0_S8_S7_, symObjAddr: 0xAFCC, symBinAddr: 0x10000D4E8, symSize: 0x2C }
  - { offsetInCU: 0x3EFA9, offset: 0x3EFA9, size: 0x8, addend: 0x0, symName: __ZN9__gnu_cxxneIPNSt7__cxx1112basic_stringIcSt11char_traitsIcESaIcEEESt6vectorIS6_SaIS6_EEEEbRKNS_17__normal_iteratorIT_T0_EESG_, symObjAddr: 0xAF60, symBinAddr: 0x10000D47C, symSize: 0x44 }
  - { offsetInCU: 0x3EFB1, offset: 0x3EFB1, size: 0x8, addend: 0x0, symName: __ZN9__gnu_cxx17__normal_iteratorIPNSt7__cxx1112basic_stringIcSt11char_traitsIcESaIcEEESt6vectorIS6_SaIS6_EEEppEv, symObjAddr: 0xAFA4, symBinAddr: 0x10000D4C0, symSize: 0x28 }
  - { offsetInCU: 0x3EF3E, offset: 0x3EF3E, size: 0x8, addend: 0x0, symName: __ZNK9__gnu_cxx17__normal_iteratorIPNSt7__cxx1112basic_stringIcSt11char_traitsIcESaIcEEESt6vectorIS6_SaIS6_EEEplEl, symObjAddr: 0xAF20, symBinAddr: 0x10000D43C, symSize: 0x40 }
  - { offsetInCU: 0x3EF46, offset: 0x3EF46, size: 0x8, addend: 0x0, symName: __ZN9__gnu_cxxneIPNSt7__cxx1112basic_stringIcSt11char_traitsIcESaIcEEESt6vectorIS6_SaIS6_EEEEbRKNS_17__normal_iteratorIT_T0_EESG_, symObjAddr: 0xAF60, symBinAddr: 0x10000D47C, symSize: 0x44 }
  - { offsetInCU: 0x3F04A, offset: 0x3F04A, size: 0x8, addend: 0x0, symName: __ZSt14__copy_move_a2ILb0EPKNSt7__cxx1112basic_stringIcSt11char_traitsIcESaIcEEEPS5_ET1_T0_SA_S9_, symObjAddr: 0xAEF4, symBinAddr: 0x10000D410, symSize: 0x2C }
  - { offsetInCU: 0x3F052, offset: 0x3F052, size: 0x8, addend: 0x0, symName: __ZNK9__gnu_cxx17__normal_iteratorIPNSt7__cxx1112basic_stringIcSt11char_traitsIcESaIcEEESt6vectorIS6_SaIS6_EEEplEl, symObjAddr: 0xAF20, symBinAddr: 0x10000D43C, symSize: 0x40 }
  - { offsetInCU: 0x3F015, offset: 0x3F015, size: 0x8, addend: 0x0, symName: __ZNK9__gnu_cxx17__normal_iteratorIPKNSt7__cxx1112basic_stringIcSt11char_traitsIcESaIcEEESt6vectorIS6_SaIS6_EEE4baseEv, symObjAddr: 0xAEE0, symBinAddr: 0x10000D3FC, symSize: 0x14 }
  - { offsetInCU: 0x3F01D, offset: 0x3F01D, size: 0x8, addend: 0x0, symName: __ZSt14__copy_move_a2ILb0EPKNSt7__cxx1112basic_stringIcSt11char_traitsIcESaIcEEEPS5_ET1_T0_SA_S9_, symObjAddr: 0xAEF4, symBinAddr: 0x10000D410, symSize: 0x2C }
  - { offsetInCU: 0x3F137, offset: 0x3F137, size: 0x8, addend: 0x0, symName: __ZSt14__relocate_a_1IPNSt7__cxx1112basic_stringIcSt11char_traitsIcESaIcEEES6_SaIS5_EET0_T_S9_S8_RT1_, symObjAddr: 0xAE5C, symBinAddr: 0x10000D378, symSize: 0x84 }
  - { offsetInCU: 0x3F13F, offset: 0x3F13F, size: 0x8, addend: 0x0, symName: __ZNK9__gnu_cxx17__normal_iteratorIPKNSt7__cxx1112basic_stringIcSt11char_traitsIcESaIcEEESt6vectorIS6_SaIS6_EEE4baseEv, symObjAddr: 0xAEE0, symBinAddr: 0x10000D3FC, symSize: 0x14 }
  - { offsetInCU: 0x3F100, offset: 0x3F100, size: 0x8, addend: 0x0, symName: __ZNSt15__new_allocatorINSt7__cxx1112basic_stringIcSt11char_traitsIcESaIcEEEE8allocateEmPKv, symObjAddr: 0xADE0, symBinAddr: 0x10000D2FC, symSize: 0x7C }
  - { offsetInCU: 0x3F108, offset: 0x3F108, size: 0x8, addend: 0x0, symName: __ZSt14__relocate_a_1IPNSt7__cxx1112basic_stringIcSt11char_traitsIcESaIcEEES6_SaIS5_EET0_T_S9_S8_RT1_, symObjAddr: 0xAE5C, symBinAddr: 0x10000D378, symSize: 0x84 }
  - { offsetInCU: 0x3F18A, offset: 0x3F18A, size: 0x8, addend: 0x0, symName: __ZNSt6vectorINSt7__cxx1112basic_stringIcSt11char_traitsIcESaIcEEESaIS5_EE11_S_max_sizeERKS6_, symObjAddr: 0xAD8C, symBinAddr: 0x10000D2A8, symSize: 0x54 }
  - { offsetInCU: 0x3F192, offset: 0x3F192, size: 0x8, addend: 0x0, symName: __ZNSt15__new_allocatorINSt7__cxx1112basic_stringIcSt11char_traitsIcESaIcEEEE8allocateEmPKv, symObjAddr: 0xADE0, symBinAddr: 0x10000D2FC, symSize: 0x7C }
  - { offsetInCU: 0x3F2D3, offset: 0x3F2D3, size: 0x8, addend: 0x0, symName: __ZSt8_DestroyINSt7__cxx1112basic_stringIcSt11char_traitsIcESaIcEEEEvPT_, symObjAddr: 0xAD6C, symBinAddr: 0x10000D288, symSize: 0x20 }
  - { offsetInCU: 0x3F2DB, offset: 0x3F2DB, size: 0x8, addend: 0x0, symName: __ZNSt6vectorINSt7__cxx1112basic_stringIcSt11char_traitsIcESaIcEEESaIS5_EE11_S_max_sizeERKS6_, symObjAddr: 0xAD8C, symBinAddr: 0x10000D2A8, symSize: 0x54 }
  - { offsetInCU: 0x3F2A1, offset: 0x3F2A1, size: 0x8, addend: 0x0, symName: __ZNSt12_Destroy_auxILb0EE9__destroyIPSt6vectorINSt7__cxx1112basic_stringIcSt11char_traitsIcESaIcEEESaIS8_EEEEvT_SC_, symObjAddr: 0xAD20, symBinAddr: 0x10000D23C, symSize: 0x4C }
  - { offsetInCU: 0x3F2A9, offset: 0x3F2A9, size: 0x8, addend: 0x0, symName: __ZSt8_DestroyINSt7__cxx1112basic_stringIcSt11char_traitsIcESaIcEEEEvPT_, symObjAddr: 0xAD6C, symBinAddr: 0x10000D288, symSize: 0x20 }
  - { offsetInCU: 0x3F2F2, offset: 0x3F2F2, size: 0x8, addend: 0x0, symName: __ZNSt15__new_allocatorISt6vectorINSt7__cxx1112basic_stringIcSt11char_traitsIcESaIcEEESaIS6_EEE10deallocateEPS8_m, symObjAddr: 0xACE4, symBinAddr: 0x10000D200, symSize: 0x3C }
  - { offsetInCU: 0x3F2FA, offset: 0x3F2FA, size: 0x8, addend: 0x0, symName: __ZNSt12_Destroy_auxILb0EE9__destroyIPSt6vectorINSt7__cxx1112basic_stringIcSt11char_traitsIcESaIcEEESaIS8_EEEEvT_SC_, symObjAddr: 0xAD20, symBinAddr: 0x10000D23C, symSize: 0x4C }
  - { offsetInCU: 0x3F39C, offset: 0x3F39C, size: 0x8, addend: 0x0, symName: __ZSt4moveIRSaIiEEONSt16remove_referenceIT_E4typeEOS3_, symObjAddr: 0xACD0, symBinAddr: 0x10000D1EC, symSize: 0x14 }
  - { offsetInCU: 0x3F3A4, offset: 0x3F3A4, size: 0x8, addend: 0x0, symName: __ZNSt15__new_allocatorISt6vectorINSt7__cxx1112basic_stringIcSt11char_traitsIcESaIcEEESaIS6_EEE10deallocateEPS8_m, symObjAddr: 0xACE4, symBinAddr: 0x10000D200, symSize: 0x3C }
  - { offsetInCU: 0x3F39B, offset: 0x3F39B, size: 0x8, addend: 0x0, symName: __ZNSt12_Vector_baseIiSaIiEE17_Vector_impl_data12_M_copy_dataERKS2_, symObjAddr: 0xAC88, symBinAddr: 0x10000D1A4, symSize: 0x48 }
  - { offsetInCU: 0x3F3A3, offset: 0x3F3A3, size: 0x8, addend: 0x0, symName: __ZSt4moveIRSaIiEEONSt16remove_referenceIT_E4typeEOS3_, symObjAddr: 0xACD0, symBinAddr: 0x10000D1EC, symSize: 0x14 }
  - { offsetInCU: 0x3F42E, offset: 0x3F42E, size: 0x8, addend: 0x0, symName: __ZNSt12_Vector_baseIiSaIiEEC2ERKS0_, symObjAddr: 0xAC60, symBinAddr: 0x10000D17C, symSize: 0x28 }
  - { offsetInCU: 0x3F436, offset: 0x3F436, size: 0x8, addend: 0x0, symName: __ZNSt12_Vector_baseIiSaIiEE17_Vector_impl_data12_M_copy_dataERKS2_, symObjAddr: 0xAC88, symBinAddr: 0x10000D1A4, symSize: 0x48 }
  - { offsetInCU: 0x3F447, offset: 0x3F447, size: 0x8, addend: 0x0, symName: __ZNKSt12_Vector_baseIiSaIiEE19_M_get_Tp_allocatorEv, symObjAddr: 0xAC4C, symBinAddr: 0x10000D168, symSize: 0x14 }
  - { offsetInCU: 0x3F44F, offset: 0x3F44F, size: 0x8, addend: 0x0, symName: __ZNSt12_Vector_baseIiSaIiEEC2ERKS0_, symObjAddr: 0xAC60, symBinAddr: 0x10000D17C, symSize: 0x28 }
  - { offsetInCU: 0x3F476, offset: 0x3F476, size: 0x8, addend: 0x0, symName: __ZNSt15__allocated_ptrISaISt10_List_nodeI11BookLendingEEEaSEDn, symObjAddr: 0xAC2C, symBinAddr: 0x10000D148, symSize: 0x20 }
  - { offsetInCU: 0x3F47E, offset: 0x3F47E, size: 0x8, addend: 0x0, symName: __ZNKSt12_Vector_baseIiSaIiEE19_M_get_Tp_allocatorEv, symObjAddr: 0xAC4C, symBinAddr: 0x10000D168, symSize: 0x14 }
  - { offsetInCU: 0x3F575, offset: 0x3F575, size: 0x8, addend: 0x0, symName: __ZNSt15__allocated_ptrISaISt10_List_nodeI11BookLendingEEED1Ev, symObjAddr: 0xABD0, symBinAddr: 0x10000D0EC, symSize: 0x5C }
  - { offsetInCU: 0x3F57D, offset: 0x3F57D, size: 0x8, addend: 0x0, symName: __ZNSt15__allocated_ptrISaISt10_List_nodeI11BookLendingEEEaSEDn, symObjAddr: 0xAC2C, symBinAddr: 0x10000D148, symSize: 0x20 }
  - { offsetInCU: 0x3F62B, offset: 0x3F62B, size: 0x8, addend: 0x0, symName: __ZNSt15__allocated_ptrISaISt10_List_nodeI11BookLendingEEEC1ERS3_PS2_, symObjAddr: 0xAB90, symBinAddr: 0x10000D0AC, symSize: 0x40 }
  - { offsetInCU: 0x3F633, offset: 0x3F633, size: 0x8, addend: 0x0, symName: __ZNSt15__allocated_ptrISaISt10_List_nodeI11BookLendingEEED1Ev, symObjAddr: 0xABD0, symBinAddr: 0x10000D0EC, symSize: 0x5C }
  - { offsetInCU: 0x3F630, offset: 0x3F630, size: 0x8, addend: 0x0, symName: __ZNSt7__cxx1110_List_baseI11BookLendingSaIS1_EE11_M_get_nodeEv, symObjAddr: 0xAB58, symBinAddr: 0x10000D074, symSize: 0x38 }
  - { offsetInCU: 0x3F638, offset: 0x3F638, size: 0x8, addend: 0x0, symName: __ZNSt15__allocated_ptrISaISt10_List_nodeI11BookLendingEEEC1ERS3_PS2_, symObjAddr: 0xAB90, symBinAddr: 0x10000D0AC, symSize: 0x40 }
  - { offsetInCU: 0x3F699, offset: 0x3F699, size: 0x8, addend: 0x0, symName: __ZN9__gnu_cxx16__aligned_membufI11BookLendingE7_M_addrEv, symObjAddr: 0xAB44, symBinAddr: 0x10000D060, symSize: 0x14 }
  - { offsetInCU: 0x3F6A1, offset: 0x3F6A1, size: 0x8, addend: 0x0, symName: __ZNSt7__cxx1110_List_baseI11BookLendingSaIS1_EE11_M_get_nodeEv, symObjAddr: 0xAB58, symBinAddr: 0x10000D074, symSize: 0x38 }
  - { offsetInCU: 0x3F6CC, offset: 0x3F6CC, size: 0x8, addend: 0x0, symName: __ZNK9__gnu_cxx17__normal_iteratorIPSt6vectorINSt7__cxx1112basic_stringIcSt11char_traitsIcESaIcEEESaIS7_EES1_IS9_SaIS9_EEEdeEv, symObjAddr: 0xAB2C, symBinAddr: 0x10000D048, symSize: 0x18 }
  - { offsetInCU: 0x3F6D4, offset: 0x3F6D4, size: 0x8, addend: 0x0, symName: __ZN9__gnu_cxx16__aligned_membufI11BookLendingE7_M_addrEv, symObjAddr: 0xAB44, symBinAddr: 0x10000D060, symSize: 0x14 }
  - { offsetInCU: 0x3F6FB, offset: 0x3F6FB, size: 0x8, addend: 0x0, symName: __ZNK9__gnu_cxx17__normal_iteratorIPSt6vectorINSt7__cxx1112basic_stringIcSt11char_traitsIcESaIcEEESaIS7_EES1_IS9_SaIS9_EEEmiEl, symObjAddr: 0xAADC, symBinAddr: 0x10000CFF8, symSize: 0x50 }
  - { offsetInCU: 0x3F703, offset: 0x3F703, size: 0x8, addend: 0x0, symName: __ZNK9__gnu_cxx17__normal_iteratorIPSt6vectorINSt7__cxx1112basic_stringIcSt11char_traitsIcESaIcEEESaIS7_EES1_IS9_SaIS9_EEEdeEv, symObjAddr: 0xAB2C, symBinAddr: 0x10000D048, symSize: 0x18 }
  - { offsetInCU: 0x3F77C, offset: 0x3F77C, size: 0x8, addend: 0x0, symName: __ZNK9__gnu_cxx17__normal_iteratorIPSt6vectorINSt7__cxx1112basic_stringIcSt11char_traitsIcESaIcEEESaIS7_EES1_IS9_SaIS9_EEE4baseEv, symObjAddr: 0xAAC8, symBinAddr: 0x10000CFE4, symSize: 0x14 }
  - { offsetInCU: 0x3F784, offset: 0x3F784, size: 0x8, addend: 0x0, symName: __ZNK9__gnu_cxx17__normal_iteratorIPSt6vectorINSt7__cxx1112basic_stringIcSt11char_traitsIcESaIcEEESaIS7_EES1_IS9_SaIS9_EEEmiEl, symObjAddr: 0xAADC, symBinAddr: 0x10000CFF8, symSize: 0x50 }
  - { offsetInCU: 0x3F7AB, offset: 0x3F7AB, size: 0x8, addend: 0x0, symName: __ZNSt6vectorIS_INSt7__cxx1112basic_stringIcSt11char_traitsIcESaIcEEESaIS5_EESaIS7_EE11_S_relocateEPS7_SA_SA_RS8_, symObjAddr: 0xAA94, symBinAddr: 0x10000CFB0, symSize: 0x34 }
  - { offsetInCU: 0x3F7B3, offset: 0x3F7B3, size: 0x8, addend: 0x0, symName: __ZNK9__gnu_cxx17__normal_iteratorIPSt6vectorINSt7__cxx1112basic_stringIcSt11char_traitsIcESaIcEEESaIS7_EES1_IS9_SaIS9_EEE4baseEv, symObjAddr: 0xAAC8, symBinAddr: 0x10000CFE4, symSize: 0x14 }
  - { offsetInCU: 0x3F81D, offset: 0x3F81D, size: 0x8, addend: 0x0, symName: __ZNSt12_Vector_baseISt6vectorINSt7__cxx1112basic_stringIcSt11char_traitsIcESaIcEEESaIS6_EESaIS8_EE11_M_allocateEm, symObjAddr: 0xAA44, symBinAddr: 0x10000CF60, symSize: 0x50 }
  - { offsetInCU: 0x3F825, offset: 0x3F825, size: 0x8, addend: 0x0, symName: __ZNSt6vectorIS_INSt7__cxx1112basic_stringIcSt11char_traitsIcESaIcEEESaIS5_EESaIS7_EE11_S_relocateEPS7_SA_SA_RS8_, symObjAddr: 0xAA94, symBinAddr: 0x10000CFB0, symSize: 0x34 }
  - { offsetInCU: 0x3F9B5, offset: 0x3F9B5, size: 0x8, addend: 0x0, symName: __ZN9__gnu_cxxmiIPSt6vectorINSt7__cxx1112basic_stringIcSt11char_traitsIcESaIcEEESaIS7_EES1_IS9_SaIS9_EEEENS_17__normal_iteratorIT_T0_E15difference_typeERKSG_SJ_, symObjAddr: 0xA9F8, symBinAddr: 0x10000CF14, symSize: 0x4C }
  - { offsetInCU: 0x3F9BD, offset: 0x3F9BD, size: 0x8, addend: 0x0, symName: __ZNSt12_Vector_baseISt6vectorINSt7__cxx1112basic_stringIcSt11char_traitsIcESaIcEEESaIS6_EESaIS8_EE11_M_allocateEm, symObjAddr: 0xAA44, symBinAddr: 0x10000CF60, symSize: 0x50 }
  - { offsetInCU: 0x3F910, offset: 0x3F910, size: 0x8, addend: 0x0, symName: __ZNSt6vectorIS_INSt7__cxx1112basic_stringIcSt11char_traitsIcESaIcEEESaIS5_EESaIS7_EE5beginEv, symObjAddr: 0xA9D4, symBinAddr: 0x10000CEF0, symSize: 0x24 }
  - { offsetInCU: 0x3F918, offset: 0x3F918, size: 0x8, addend: 0x0, symName: __ZN9__gnu_cxxmiIPSt6vectorINSt7__cxx1112basic_stringIcSt11char_traitsIcESaIcEEESaIS7_EES1_IS9_SaIS9_EEEENS_17__normal_iteratorIT_T0_E15difference_typeERKSG_SJ_, symObjAddr: 0xA9F8, symBinAddr: 0x10000CF14, symSize: 0x4C }
  - { offsetInCU: 0x3F93F, offset: 0x3F93F, size: 0x8, addend: 0x0, symName: __ZNKSt6vectorIS_INSt7__cxx1112basic_stringIcSt11char_traitsIcESaIcEEESaIS5_EESaIS7_EE12_M_check_lenEmPKc, symObjAddr: 0xA904, symBinAddr: 0x10000CE20, symSize: 0xD0 }
  - { offsetInCU: 0x3F947, offset: 0x3F947, size: 0x8, addend: 0x0, symName: __ZNSt6vectorIS_INSt7__cxx1112basic_stringIcSt11char_traitsIcESaIcEEESaIS5_EESaIS7_EE5beginEv, symObjAddr: 0xA9D4, symBinAddr: 0x10000CEF0, symSize: 0x24 }
  - { offsetInCU: 0x3FA5B, offset: 0x3FA5B, size: 0x8, addend: 0x0, symName: __ZN9__gnu_cxx17__normal_iteratorIPSt6vectorINSt7__cxx1112basic_stringIcSt11char_traitsIcESaIcEEESaIS7_EES1_IS9_SaIS9_EEEC1ERKSA_, symObjAddr: 0xA8DC, symBinAddr: 0x10000CDF8, symSize: 0x28 }
  - { offsetInCU: 0x3FA63, offset: 0x3FA63, size: 0x8, addend: 0x0, symName: __ZNKSt6vectorIS_INSt7__cxx1112basic_stringIcSt11char_traitsIcESaIcEEESaIS5_EESaIS7_EE12_M_check_lenEmPKc, symObjAddr: 0xA904, symBinAddr: 0x10000CE20, symSize: 0xD0 }
  - { offsetInCU: 0x3FA6D, offset: 0x3FA6D, size: 0x8, addend: 0x0, symName: __ZNK9__gnu_cxx17__normal_iteratorIPNSt7__cxx1112basic_stringIcSt11char_traitsIcESaIcEEESt6vectorIS6_SaIS6_EEEdeEv, symObjAddr: 0xA8C4, symBinAddr: 0x10000CDE0, symSize: 0x18 }
  - { offsetInCU: 0x3FA75, offset: 0x3FA75, size: 0x8, addend: 0x0, symName: __ZN9__gnu_cxx17__normal_iteratorIPSt6vectorINSt7__cxx1112basic_stringIcSt11char_traitsIcESaIcEEESaIS7_EES1_IS9_SaIS9_EEEC1ERKSA_, symObjAddr: 0xA8DC, symBinAddr: 0x10000CDF8, symSize: 0x28 }
  - { offsetInCU: 0x3FA9C, offset: 0x3FA9C, size: 0x8, addend: 0x0, symName: __ZNK9__gnu_cxx17__normal_iteratorIPNSt7__cxx1112basic_stringIcSt11char_traitsIcESaIcEEESt6vectorIS6_SaIS6_EEEmiEl, symObjAddr: 0xA880, symBinAddr: 0x10000CD9C, symSize: 0x44 }
  - { offsetInCU: 0x3FAA4, offset: 0x3FAA4, size: 0x8, addend: 0x0, symName: __ZNK9__gnu_cxx17__normal_iteratorIPNSt7__cxx1112basic_stringIcSt11char_traitsIcESaIcEEESt6vectorIS6_SaIS6_EEEdeEv, symObjAddr: 0xA8C4, symBinAddr: 0x10000CDE0, symSize: 0x18 }
  - { offsetInCU: 0x3FBDC, offset: 0x3FBDC, size: 0x8, addend: 0x0, symName: __ZSt4moveIRSaINSt7__cxx1112basic_stringIcSt11char_traitsIcESaIcEEEEEONSt16remove_referenceIT_E4typeEOS9_, symObjAddr: 0xA86C, symBinAddr: 0x10000CD88, symSize: 0x14 }
  - { offsetInCU: 0x3FBE4, offset: 0x3FBE4, size: 0x8, addend: 0x0, symName: __ZNK9__gnu_cxx17__normal_iteratorIPNSt7__cxx1112basic_stringIcSt11char_traitsIcESaIcEEESt6vectorIS6_SaIS6_EEEmiEl, symObjAddr: 0xA880, symBinAddr: 0x10000CD9C, symSize: 0x44 }
  - { offsetInCU: 0x3FB8A, offset: 0x3FB8A, size: 0x8, addend: 0x0, symName: __ZNSt12_Vector_baseINSt7__cxx1112basic_stringIcSt11char_traitsIcESaIcEEESaIS5_EE17_Vector_impl_data12_M_copy_dataERKS8_, symObjAddr: 0xA824, symBinAddr: 0x10000CD40, symSize: 0x48 }
  - { offsetInCU: 0x3FB92, offset: 0x3FB92, size: 0x8, addend: 0x0, symName: __ZSt4moveIRSaINSt7__cxx1112basic_stringIcSt11char_traitsIcESaIcEEEEEONSt16remove_referenceIT_E4typeEOS9_, symObjAddr: 0xA86C, symBinAddr: 0x10000CD88, symSize: 0x14 }
  - { offsetInCU: 0x3FC52, offset: 0x3FC52, size: 0x8, addend: 0x0, symName: __ZNSt12_Vector_baseINSt7__cxx1112basic_stringIcSt11char_traitsIcESaIcEEESaIS5_EEC2ERKS6_, symObjAddr: 0xA7FC, symBinAddr: 0x10000CD18, symSize: 0x28 }
  - { offsetInCU: 0x3FC5A, offset: 0x3FC5A, size: 0x8, addend: 0x0, symName: __ZNSt12_Vector_baseINSt7__cxx1112basic_stringIcSt11char_traitsIcESaIcEEESaIS5_EE17_Vector_impl_data12_M_copy_dataERKS8_, symObjAddr: 0xA824, symBinAddr: 0x10000CD40, symSize: 0x48 }
  - { offsetInCU: 0x3FC36, offset: 0x3FC36, size: 0x8, addend: 0x0, symName: __ZNK9__gnu_cxx17__normal_iteratorIPiSt6vectorIiSaIiEEEdeEv, symObjAddr: 0xA7E4, symBinAddr: 0x10000CD00, symSize: 0x18 }
  - { offsetInCU: 0x3FC3E, offset: 0x3FC3E, size: 0x8, addend: 0x0, symName: __ZNSt12_Vector_baseINSt7__cxx1112basic_stringIcSt11char_traitsIcESaIcEEESaIS5_EEC2ERKS6_, symObjAddr: 0xA7FC, symBinAddr: 0x10000CD18, symSize: 0x28 }
  - { offsetInCU: 0x3FC65, offset: 0x3FC65, size: 0x8, addend: 0x0, symName: __ZNK9__gnu_cxx17__normal_iteratorIPiSt6vectorIiSaIiEEEmiEl, symObjAddr: 0xA7A0, symBinAddr: 0x10000CCBC, symSize: 0x44 }
  - { offsetInCU: 0x3FC6D, offset: 0x3FC6D, size: 0x8, addend: 0x0, symName: __ZNK9__gnu_cxx17__normal_iteratorIPiSt6vectorIiSaIiEEEdeEv, symObjAddr: 0xA7E4, symBinAddr: 0x10000CD00, symSize: 0x18 }
  - { offsetInCU: 0x3FCA9, offset: 0x3FCA9, size: 0x8, addend: 0x0, symName: __ZNK9__gnu_cxx17__normal_iteratorIPiSt6vectorIiSaIiEEE4baseEv, symObjAddr: 0xA78C, symBinAddr: 0x10000CCA8, symSize: 0x14 }
  - { offsetInCU: 0x3FCB1, offset: 0x3FCB1, size: 0x8, addend: 0x0, symName: __ZNK9__gnu_cxx17__normal_iteratorIPiSt6vectorIiSaIiEEEmiEl, symObjAddr: 0xA7A0, symBinAddr: 0x10000CCBC, symSize: 0x44 }
  - { offsetInCU: 0x3FCD8, offset: 0x3FCD8, size: 0x8, addend: 0x0, symName: __ZNSt6vectorIiSaIiEE11_S_relocateEPiS2_S2_RS0_, symObjAddr: 0xA758, symBinAddr: 0x10000CC74, symSize: 0x34 }
  - { offsetInCU: 0x3FCE0, offset: 0x3FCE0, size: 0x8, addend: 0x0, symName: __ZNK9__gnu_cxx17__normal_iteratorIPiSt6vectorIiSaIiEEE4baseEv, symObjAddr: 0xA78C, symBinAddr: 0x10000CCA8, symSize: 0x14 }
  - { offsetInCU: 0x3FD4A, offset: 0x3FD4A, size: 0x8, addend: 0x0, symName: __ZNSt12_Vector_baseIiSaIiEE11_M_allocateEm, symObjAddr: 0xA708, symBinAddr: 0x10000CC24, symSize: 0x50 }
  - { offsetInCU: 0x3FD52, offset: 0x3FD52, size: 0x8, addend: 0x0, symName: __ZNSt6vectorIiSaIiEE11_S_relocateEPiS2_S2_RS0_, symObjAddr: 0xA758, symBinAddr: 0x10000CC74, symSize: 0x34 }
  - { offsetInCU: 0x3FE48, offset: 0x3FE48, size: 0x8, addend: 0x0, symName: __ZN9__gnu_cxxmiIPiSt6vectorIiSaIiEEEENS_17__normal_iteratorIT_T0_E15difference_typeERKS8_SB_, symObjAddr: 0xA6C8, symBinAddr: 0x10000CBE4, symSize: 0x40 }
  - { offsetInCU: 0x3FE50, offset: 0x3FE50, size: 0x8, addend: 0x0, symName: __ZNSt12_Vector_baseIiSaIiEE11_M_allocateEm, symObjAddr: 0xA708, symBinAddr: 0x10000CC24, symSize: 0x50 }
  - { offsetInCU: 0x3FE3D, offset: 0x3FE3D, size: 0x8, addend: 0x0, symName: __ZNSt6vectorIiSaIiEE5beginEv, symObjAddr: 0xA6A4, symBinAddr: 0x10000CBC0, symSize: 0x24 }
  - { offsetInCU: 0x3FE45, offset: 0x3FE45, size: 0x8, addend: 0x0, symName: __ZN9__gnu_cxxmiIPiSt6vectorIiSaIiEEEENS_17__normal_iteratorIT_T0_E15difference_typeERKS8_SB_, symObjAddr: 0xA6C8, symBinAddr: 0x10000CBE4, symSize: 0x40 }
  - { offsetInCU: 0x3FE6C, offset: 0x3FE6C, size: 0x8, addend: 0x0, symName: __ZNKSt6vectorIiSaIiEE12_M_check_lenEmPKc, symObjAddr: 0xA5D4, symBinAddr: 0x10000CAF0, symSize: 0xD0 }
  - { offsetInCU: 0x3FE74, offset: 0x3FE74, size: 0x8, addend: 0x0, symName: __ZNSt6vectorIiSaIiEE5beginEv, symObjAddr: 0xA6A4, symBinAddr: 0x10000CBC0, symSize: 0x24 }
  - { offsetInCU: 0x3FF45, offset: 0x3FF45, size: 0x8, addend: 0x0, symName: __ZN9__gnu_cxx17__normal_iteratorIPiSt6vectorIiSaIiEEEC1ERKS1_, symObjAddr: 0xA5AC, symBinAddr: 0x10000CAC8, symSize: 0x28 }
  - { offsetInCU: 0x3FF4D, offset: 0x3FF4D, size: 0x8, addend: 0x0, symName: __ZNKSt6vectorIiSaIiEE12_M_check_lenEmPKc, symObjAddr: 0xA5D4, symBinAddr: 0x10000CAF0, symSize: 0xD0 }
  - { offsetInCU: 0x3FF9A, offset: 0x3FF9A, size: 0x8, addend: 0x0, symName: __ZNSt10_HashtableIiSt4pairIKiiESaIS2_ENSt8__detail10_Select1stESt8equal_toIiESt4hashIiENS4_18_Mod_range_hashingENS4_20_Default_ranged_hashENS4_20_Prime_rehash_policyENS4_17_Hashtable_traitsILb0ELb0ELb1EEEE22_M_insert_bucket_beginEmPNS4_10_Hash_nodeIS2_Lb0EEE, symObjAddr: 0xA4A0, symBinAddr: 0x10000C9BC, symSize: 0x10C }
  - { offsetInCU: 0x3FFA2, offset: 0x3FFA2, size: 0x8, addend: 0x0, symName: __ZN9__gnu_cxx17__normal_iteratorIPiSt6vectorIiSaIiEEEC1ERKS1_, symObjAddr: 0xA5AC, symBinAddr: 0x10000CAC8, symSize: 0x28 }
  - { offsetInCU: 0x3FFF3, offset: 0x3FFF3, size: 0x8, addend: 0x0, symName: __ZNKSt8__detail15_Hash_code_baseIiSt4pairIKiiENS_10_Select1stESt4hashIiENS_18_Mod_range_hashingENS_20_Default_ranged_hashELb0EE13_M_store_codeERNS_21_Hash_node_code_cacheILb0EEEm, symObjAddr: 0xA484, symBinAddr: 0x10000C9A0, symSize: 0x1C }
  - { offsetInCU: 0x3FFFB, offset: 0x3FFFB, size: 0x8, addend: 0x0, symName: __ZNSt10_HashtableIiSt4pairIKiiESaIS2_ENSt8__detail10_Select1stESt8equal_toIiESt4hashIiENS4_18_Mod_range_hashingENS4_20_Default_ranged_hashENS4_20_Prime_rehash_policyENS4_17_Hashtable_traitsILb0ELb0ELb1EEEE22_M_insert_bucket_beginEmPNS4_10_Hash_nodeIS2_Lb0EEE, symObjAddr: 0xA4A0, symBinAddr: 0x10000C9BC, symSize: 0x10C }
  - { offsetInCU: 0x4003A, offset: 0x4003A, size: 0x8, addend: 0x0, symName: __ZNSt10_HashtableIiSt4pairIKiiESaIS2_ENSt8__detail10_Select1stESt8equal_toIiESt4hashIiENS4_18_Mod_range_hashingENS4_20_Default_ranged_hashENS4_20_Prime_rehash_policyENS4_17_Hashtable_traitsILb0ELb0ELb1EEEE9_M_rehashEmRKm, symObjAddr: 0xA418, symBinAddr: 0x10000C934, symSize: 0x6C }
  - { offsetInCU: 0x40042, offset: 0x40042, size: 0x8, addend: 0x0, symName: __ZNKSt8__detail15_Hash_code_baseIiSt4pairIKiiENS_10_Select1stESt4hashIiENS_18_Mod_range_hashingENS_20_Default_ranged_hashELb0EE13_M_store_codeERNS_21_Hash_node_code_cacheILb0EEEm, symObjAddr: 0xA484, symBinAddr: 0x10000C9A0, symSize: 0x1C }
  - { offsetInCU: 0x40093, offset: 0x40093, size: 0x8, addend: 0x0, symName: __ZNSt8__detail16_Hashtable_allocISaINS_10_Hash_nodeISt4pairIKiiELb0EEEEE16_M_allocate_nodeIJRKSt21piecewise_construct_tSt5tupleIJRS3_EESC_IJEEEEEPS5_DpOT_, symObjAddr: 0xA234, symBinAddr: 0x10000C750, symSize: 0x1E4 }
  - { offsetInCU: 0x4009B, offset: 0x4009B, size: 0x8, addend: 0x0, symName: __ZNSt10_HashtableIiSt4pairIKiiESaIS2_ENSt8__detail10_Select1stESt8equal_toIiESt4hashIiENS4_18_Mod_range_hashingENS4_20_Default_ranged_hashENS4_20_Prime_rehash_policyENS4_17_Hashtable_traitsILb0ELb0ELb1EEEE9_M_rehashEmRKm, symObjAddr: 0xA418, symBinAddr: 0x10000C934, symSize: 0x6C }
  - { offsetInCU: 0x402C4, offset: 0x402C4, size: 0x8, addend: 0x0, symName: __ZNSt8__detail10_Hash_nodeISt4pairIKiiELb0EEC1Ev, symObjAddr: 0xA214, symBinAddr: 0x10000C730, symSize: 0x20 }
  - { offsetInCU: 0x402CC, offset: 0x402CC, size: 0x8, addend: 0x0, symName: __ZNSt8__detail16_Hashtable_allocISaINS_10_Hash_nodeISt4pairIKiiELb0EEEEE16_M_allocate_nodeIJRKSt21piecewise_construct_tSt5tupleIJRS3_EESC_IJEEEEEPS5_DpOT_, symObjAddr: 0xA234, symBinAddr: 0x10000C750, symSize: 0x1E4 }
  - { offsetInCU: 0x4032A, offset: 0x4032A, size: 0x8, addend: 0x0, symName: __ZSt7forwardISt5tupleIJRKiEEEOT_RNSt16remove_referenceIS4_E4typeE, symObjAddr: 0xA200, symBinAddr: 0x10000C71C, symSize: 0x14 }
  - { offsetInCU: 0x40332, offset: 0x40332, size: 0x8, addend: 0x0, symName: __ZNSt8__detail10_Hash_nodeISt4pairIKiiELb0EEC1Ev, symObjAddr: 0xA214, symBinAddr: 0x10000C730, symSize: 0x20 }
  - { offsetInCU: 0x40368, offset: 0x40368, size: 0x8, addend: 0x0, symName: __ZNSt11_Tuple_implILm0EJRKiEEC2ES1_, symObjAddr: 0xA1D8, symBinAddr: 0x10000C6F4, symSize: 0x28 }
  - { offsetInCU: 0x40370, offset: 0x40370, size: 0x8, addend: 0x0, symName: __ZSt7forwardISt5tupleIJRKiEEEOT_RNSt16remove_referenceIS4_E4typeE, symObjAddr: 0xA200, symBinAddr: 0x10000C71C, symSize: 0x14 }
  - { offsetInCU: 0x40381, offset: 0x40381, size: 0x8, addend: 0x0, symName: __ZNSt8__detail21_Hash_node_value_baseISt4pairIKiiEE9_M_valptrEv, symObjAddr: 0xA1BC, symBinAddr: 0x10000C6D8, symSize: 0x1C }
  - { offsetInCU: 0x40389, offset: 0x40389, size: 0x8, addend: 0x0, symName: __ZNSt11_Tuple_implILm0EJRKiEEC2ES1_, symObjAddr: 0xA1D8, symBinAddr: 0x10000C6F4, symSize: 0x28 }
  - { offsetInCU: 0x403B0, offset: 0x403B0, size: 0x8, addend: 0x0, symName: __ZNSt10_HashtableINSt7__cxx1112basic_stringIcSt11char_traitsIcESaIcEEESt4pairIKS5_iESaIS8_ENSt8__detail10_Select1stESt8equal_toIS5_ESt4hashIS5_ENSA_18_Mod_range_hashingENSA_20_Default_ranged_hashENSA_20_Prime_rehash_policyENSA_17_Hashtable_traitsILb1ELb0ELb1EEEE22_M_insert_bucket_beginEmPNSA_10_Hash_nodeIS8_Lb1EEE, symObjAddr: 0xA0B0, symBinAddr: 0x10000C5CC, symSize: 0x10C }
  - { offsetInCU: 0x403B8, offset: 0x403B8, size: 0x8, addend: 0x0, symName: __ZNSt8__detail21_Hash_node_value_baseISt4pairIKiiEE9_M_valptrEv, symObjAddr: 0xA1BC, symBinAddr: 0x10000C6D8, symSize: 0x1C }
  - { offsetInCU: 0x40409, offset: 0x40409, size: 0x8, addend: 0x0, symName: __ZNKSt8__detail15_Hash_code_baseINSt7__cxx1112basic_stringIcSt11char_traitsIcESaIcEEESt4pairIKS6_iENS_10_Select1stESt4hashIS6_ENS_18_Mod_range_hashingENS_20_Default_ranged_hashELb1EE13_M_store_codeERNS_21_Hash_node_code_cacheILb1EEEm, symObjAddr: 0xA088, symBinAddr: 0x10000C5A4, symSize: 0x28 }
  - { offsetInCU: 0x40411, offset: 0x40411, size: 0x8, addend: 0x0, symName: __ZNSt10_HashtableINSt7__cxx1112basic_stringIcSt11char_traitsIcESaIcEEESt4pairIKS5_iESaIS8_ENSt8__detail10_Select1stESt8equal_toIS5_ESt4hashIS5_ENSA_18_Mod_range_hashingENSA_20_Default_ranged_hashENSA_20_Prime_rehash_policyENSA_17_Hashtable_traitsILb1ELb0ELb1EEEE22_M_insert_bucket_beginEmPNSA_10_Hash_nodeIS8_Lb1EEE, symObjAddr: 0xA0B0, symBinAddr: 0x10000C5CC, symSize: 0x10C }
  - { offsetInCU: 0x40462, offset: 0x40462, size: 0x8, addend: 0x0, symName: __ZNSt10_HashtableINSt7__cxx1112basic_stringIcSt11char_traitsIcESaIcEEESt4pairIKS5_iESaIS8_ENSt8__detail10_Select1stESt8equal_toIS5_ESt4hashIS5_ENSA_18_Mod_range_hashingENSA_20_Default_ranged_hashENSA_20_Prime_rehash_policyENSA_17_Hashtable_traitsILb1ELb0ELb1EEEE9_M_rehashEmRKm, symObjAddr: 0xA01C, symBinAddr: 0x10000C538, symSize: 0x6C }
  - { offsetInCU: 0x4046A, offset: 0x4046A, size: 0x8, addend: 0x0, symName: __ZNKSt8__detail15_Hash_code_baseINSt7__cxx1112basic_stringIcSt11char_traitsIcESaIcEEESt4pairIKS6_iENS_10_Select1stESt4hashIS6_ENS_18_Mod_range_hashingENS_20_Default_ranged_hashELb1EE13_M_store_codeERNS_21_Hash_node_code_cacheILb1EEEm, symObjAddr: 0xA088, symBinAddr: 0x10000C5A4, symSize: 0x28 }
  - { offsetInCU: 0x404BB, offset: 0x404BB, size: 0x8, addend: 0x0, symName: __ZNSt8__detail16_Hashtable_allocISaINS_10_Hash_nodeISt4pairIKNSt7__cxx1112basic_stringIcSt11char_traitsIcESaIcEEEiELb1EEEEE16_M_allocate_nodeIJRKSt21piecewise_construct_tSt5tupleIJRS9_EESI_IJEEEEEPSB_DpOT_, symObjAddr: 0x9E38, symBinAddr: 0x10000C354, symSize: 0x1E4 }
  - { offsetInCU: 0x404C3, offset: 0x404C3, size: 0x8, addend: 0x0, symName: __ZNSt10_HashtableINSt7__cxx1112basic_stringIcSt11char_traitsIcESaIcEEESt4pairIKS5_iESaIS8_ENSt8__detail10_Select1stESt8equal_toIS5_ESt4hashIS5_ENSA_18_Mod_range_hashingENSA_20_Default_ranged_hashENSA_20_Prime_rehash_policyENSA_17_Hashtable_traitsILb1ELb0ELb1EEEE9_M_rehashEmRKm, symObjAddr: 0xA01C, symBinAddr: 0x10000C538, symSize: 0x6C }
  - { offsetInCU: 0x4071F, offset: 0x4071F, size: 0x8, addend: 0x0, symName: __ZNSt8__detail10_Hash_nodeISt4pairIKNSt7__cxx1112basic_stringIcSt11char_traitsIcESaIcEEEiELb1EEC1Ev, symObjAddr: 0x9E18, symBinAddr: 0x10000C334, symSize: 0x20 }
  - { offsetInCU: 0x40727, offset: 0x40727, size: 0x8, addend: 0x0, symName: __ZNSt8__detail16_Hashtable_allocISaINS_10_Hash_nodeISt4pairIKNSt7__cxx1112basic_stringIcSt11char_traitsIcESaIcEEEiELb1EEEEE16_M_allocate_nodeIJRKSt21piecewise_construct_tSt5tupleIJRS9_EESI_IJEEEEEPSB_DpOT_, symObjAddr: 0x9E38, symBinAddr: 0x10000C354, symSize: 0x1E4 }
  - { offsetInCU: 0x40745, offset: 0x40745, size: 0x8, addend: 0x0, symName: __ZSt7forwardISt5tupleIJEEEOT_RNSt16remove_referenceIS2_E4typeE, symObjAddr: 0x9E04, symBinAddr: 0x10000C320, symSize: 0x14 }
  - { offsetInCU: 0x4074D, offset: 0x4074D, size: 0x8, addend: 0x0, symName: __ZNSt8__detail10_Hash_nodeISt4pairIKNSt7__cxx1112basic_stringIcSt11char_traitsIcESaIcEEEiELb1EEC1Ev, symObjAddr: 0x9E18, symBinAddr: 0x10000C334, symSize: 0x20 }
  - { offsetInCU: 0x40825, offset: 0x40825, size: 0x8, addend: 0x0, symName: __ZSt7forwardISt5tupleIJRKNSt7__cxx1112basic_stringIcSt11char_traitsIcESaIcEEEEEEOT_RNSt16remove_referenceISA_E4typeE, symObjAddr: 0x9DF0, symBinAddr: 0x10000C30C, symSize: 0x14 }
  - { offsetInCU: 0x4082D, offset: 0x4082D, size: 0x8, addend: 0x0, symName: __ZSt7forwardISt5tupleIJEEEOT_RNSt16remove_referenceIS2_E4typeE, symObjAddr: 0x9E04, symBinAddr: 0x10000C320, symSize: 0x14 }
  - { offsetInCU: 0x40810, offset: 0x40810, size: 0x8, addend: 0x0, symName: __ZSt7forwardIRKSt21piecewise_construct_tEOT_RNSt16remove_referenceIS3_E4typeE, symObjAddr: 0x9DDC, symBinAddr: 0x10000C2F8, symSize: 0x14 }
  - { offsetInCU: 0x40818, offset: 0x40818, size: 0x8, addend: 0x0, symName: __ZSt7forwardISt5tupleIJRKNSt7__cxx1112basic_stringIcSt11char_traitsIcESaIcEEEEEEOT_RNSt16remove_referenceISA_E4typeE, symObjAddr: 0x9DF0, symBinAddr: 0x10000C30C, symSize: 0x14 }
  - { offsetInCU: 0x4086B, offset: 0x4086B, size: 0x8, addend: 0x0, symName: __ZNSt11_Tuple_implILm0EJRKNSt7__cxx1112basic_stringIcSt11char_traitsIcESaIcEEEEEC2ES7_, symObjAddr: 0x9DB4, symBinAddr: 0x10000C2D0, symSize: 0x28 }
  - { offsetInCU: 0x40873, offset: 0x40873, size: 0x8, addend: 0x0, symName: __ZSt7forwardIRKSt21piecewise_construct_tEOT_RNSt16remove_referenceIS3_E4typeE, symObjAddr: 0x9DDC, symBinAddr: 0x10000C2F8, symSize: 0x14 }
  - { offsetInCU: 0x40851, offset: 0x40851, size: 0x8, addend: 0x0, symName: __ZNSt8__detail21_Hash_node_value_baseISt4pairIKNSt7__cxx1112basic_stringIcSt11char_traitsIcESaIcEEEiEE9_M_valptrEv, symObjAddr: 0x9D98, symBinAddr: 0x10000C2B4, symSize: 0x1C }
  - { offsetInCU: 0x40859, offset: 0x40859, size: 0x8, addend: 0x0, symName: __ZNSt11_Tuple_implILm0EJRKNSt7__cxx1112basic_stringIcSt11char_traitsIcESaIcEEEEEC2ES7_, symObjAddr: 0x9DB4, symBinAddr: 0x10000C2D0, symSize: 0x28 }
  - { offsetInCU: 0x40880, offset: 0x40880, size: 0x8, addend: 0x0, symName: __ZNSt12_Destroy_auxILb1EE9__destroyIPiEEvT_S3_, symObjAddr: 0x9D80, symBinAddr: 0x10000C29C, symSize: 0x18 }
  - { offsetInCU: 0x40888, offset: 0x40888, size: 0x8, addend: 0x0, symName: __ZNSt8__detail21_Hash_node_value_baseISt4pairIKNSt7__cxx1112basic_stringIcSt11char_traitsIcESaIcEEEiEE9_M_valptrEv, symObjAddr: 0x9D98, symBinAddr: 0x10000C2B4, symSize: 0x1C }
  - { offsetInCU: 0x408C3, offset: 0x408C3, size: 0x8, addend: 0x0, symName: __ZNSt15__new_allocatorIiE10deallocateEPim, symObjAddr: 0x9D50, symBinAddr: 0x10000C26C, symSize: 0x30 }
  - { offsetInCU: 0x408CB, offset: 0x408CB, size: 0x8, addend: 0x0, symName: __ZNSt12_Destroy_auxILb1EE9__destroyIPiEEvT_S3_, symObjAddr: 0x9D80, symBinAddr: 0x10000C29C, symSize: 0x18 }
  - { offsetInCU: 0x40998, offset: 0x40998, size: 0x8, addend: 0x0, symName: __ZNSt8__detail19_Node_iterator_baseISt4pairIKiiELb0EEC2EPNS_10_Hash_nodeIS3_Lb0EEE, symObjAddr: 0x9D2C, symBinAddr: 0x10000C248, symSize: 0x24 }
  - { offsetInCU: 0x409A0, offset: 0x409A0, size: 0x8, addend: 0x0, symName: __ZNSt15__new_allocatorIiE10deallocateEPim, symObjAddr: 0x9D50, symBinAddr: 0x10000C26C, symSize: 0x30 }
  - { offsetInCU: 0x40982, offset: 0x40982, size: 0x8, addend: 0x0, symName: __ZNKSt10_HashtableIiSt4pairIKiiESaIS2_ENSt8__detail10_Select1stESt8equal_toIiESt4hashIiENS4_18_Mod_range_hashingENS4_20_Default_ranged_hashENS4_20_Prime_rehash_policyENS4_17_Hashtable_traitsILb0ELb0ELb1EEEE19_M_find_before_nodeEmRS1_m, symObjAddr: 0x9C2C, symBinAddr: 0x10000C148, symSize: 0x100 }
  - { offsetInCU: 0x4098A, offset: 0x4098A, size: 0x8, addend: 0x0, symName: __ZNSt8__detail19_Node_iterator_baseISt4pairIKiiELb0EEC2EPNS_10_Hash_nodeIS3_Lb0EEE, symObjAddr: 0x9D2C, symBinAddr: 0x10000C248, symSize: 0x24 }
  - { offsetInCU: 0x40A2D, offset: 0x40A2D, size: 0x8, addend: 0x0, symName: __ZNKSt8__detail15_Hash_code_baseIiSt4pairIKiiENS_10_Select1stESt4hashIiENS_18_Mod_range_hashingENS_20_Default_ranged_hashELb0EE15_M_bucket_indexEmm, symObjAddr: 0x9C00, symBinAddr: 0x10000C11C, symSize: 0x2C }
  - { offsetInCU: 0x40A35, offset: 0x40A35, size: 0x8, addend: 0x0, symName: __ZNKSt10_HashtableIiSt4pairIKiiESaIS2_ENSt8__detail10_Select1stESt8equal_toIiESt4hashIiENS4_18_Mod_range_hashingENS4_20_Default_ranged_hashENS4_20_Prime_rehash_policyENS4_17_Hashtable_traitsILb0ELb0ELb1EEEE19_M_find_before_nodeEmRS1_m, symObjAddr: 0x9C2C, symBinAddr: 0x10000C148, symSize: 0x100 }
  - { offsetInCU: 0x40A86, offset: 0x40A86, size: 0x8, addend: 0x0, symName: __ZNKSt8__detail15_Hash_code_baseIiSt4pairIKiiENS_10_Select1stESt4hashIiENS_18_Mod_range_hashingENS_20_Default_ranged_hashELb0EE7_M_hashEv, symObjAddr: 0x9BE4, symBinAddr: 0x10000C100, symSize: 0x1C }
  - { offsetInCU: 0x40A8E, offset: 0x40A8E, size: 0x8, addend: 0x0, symName: __ZNKSt8__detail15_Hash_code_baseIiSt4pairIKiiENS_10_Select1stESt4hashIiENS_18_Mod_range_hashingENS_20_Default_ranged_hashELb0EE15_M_bucket_indexEmm, symObjAddr: 0x9C00, symBinAddr: 0x10000C11C, symSize: 0x2C }
  - { offsetInCU: 0x40AB5, offset: 0x40AB5, size: 0x8, addend: 0x0, symName: __ZNKSt8equal_toIiEclERKiS2_, symObjAddr: 0x9BB0, symBinAddr: 0x10000C0CC, symSize: 0x34 }
  - { offsetInCU: 0x40ABD, offset: 0x40ABD, size: 0x8, addend: 0x0, symName: __ZNKSt8__detail15_Hash_code_baseIiSt4pairIKiiENS_10_Select1stESt4hashIiENS_18_Mod_range_hashingENS_20_Default_ranged_hashELb0EE7_M_hashEv, symObjAddr: 0x9BE4, symBinAddr: 0x10000C100, symSize: 0x1C }
  - { offsetInCU: 0x40B21, offset: 0x40B21, size: 0x8, addend: 0x0, symName: __ZNKSt8__detail10_Select1stclIRKSt4pairIKiiEEEONS0_10__1st_typeIT_E4typeEOS8_, symObjAddr: 0x9B90, symBinAddr: 0x10000C0AC, symSize: 0x20 }
  - { offsetInCU: 0x40B29, offset: 0x40B29, size: 0x8, addend: 0x0, symName: __ZNKSt8equal_toIiEclERKiS2_, symObjAddr: 0x9BB0, symBinAddr: 0x10000C0CC, symSize: 0x34 }
  - { offsetInCU: 0x40B70, offset: 0x40B70, size: 0x8, addend: 0x0, symName: __ZNKSt8__detail21_Hash_node_value_baseISt4pairIKiiEE4_M_vEv, symObjAddr: 0x9B74, symBinAddr: 0x10000C090, symSize: 0x1C }
  - { offsetInCU: 0x40B78, offset: 0x40B78, size: 0x8, addend: 0x0, symName: __ZNKSt8__detail10_Select1stclIRKSt4pairIKiiEEEONS0_10__1st_typeIT_E4typeEOS8_, symObjAddr: 0x9B90, symBinAddr: 0x10000C0AC, symSize: 0x20 }
  - { offsetInCU: 0x40B9F, offset: 0x40B9F, size: 0x8, addend: 0x0, symName: __ZNKSt8__detail15_Hashtable_baseIiSt4pairIKiiENS_10_Select1stESt8equal_toIiESt4hashIiENS_18_Mod_range_hashingENS_20_Default_ranged_hashENS_17_Hashtable_traitsILb0ELb0ELb1EEEE5_M_eqEv, symObjAddr: 0x9B58, symBinAddr: 0x10000C074, symSize: 0x1C }
  - { offsetInCU: 0x40BA7, offset: 0x40BA7, size: 0x8, addend: 0x0, symName: __ZNKSt8__detail21_Hash_node_value_baseISt4pairIKiiEE4_M_vEv, symObjAddr: 0x9B74, symBinAddr: 0x10000C090, symSize: 0x1C }
  - { offsetInCU: 0x40BCE, offset: 0x40BCE, size: 0x8, addend: 0x0, symName: __ZNSt8__detail19_Node_iterator_baseISt4pairIKiiELb0EE7_M_incrEv, symObjAddr: 0x9B28, symBinAddr: 0x10000C044, symSize: 0x30 }
  - { offsetInCU: 0x40BD6, offset: 0x40BD6, size: 0x8, addend: 0x0, symName: __ZNKSt8__detail15_Hashtable_baseIiSt4pairIKiiENS_10_Select1stESt8equal_toIiESt4hashIiENS_18_Mod_range_hashingENS_20_Default_ranged_hashENS_17_Hashtable_traitsILb0ELb0ELb1EEEE5_M_eqEv, symObjAddr: 0x9B58, symBinAddr: 0x10000C074, symSize: 0x1C }
  - { offsetInCU: 0x40BFE, offset: 0x40BFE, size: 0x8, addend: 0x0, symName: __ZNSt8__detail22_Hashtable_hash_traitsISt4hashIiEE22__small_size_thresholdEv, symObjAddr: 0x9B20, symBinAddr: 0x10000C03C, symSize: 0x8 }
  - { offsetInCU: 0x40C06, offset: 0x40C06, size: 0x8, addend: 0x0, symName: __ZNSt8__detail19_Node_iterator_baseISt4pairIKiiELb0EE7_M_incrEv, symObjAddr: 0x9B28, symBinAddr: 0x10000C044, symSize: 0x30 }
  - { offsetInCU: 0x40CCD, offset: 0x40CCD, size: 0x8, addend: 0x0, symName: __ZNSt8__detail19_Node_iterator_baseISt4pairIKNSt7__cxx1112basic_stringIcSt11char_traitsIcESaIcEEEiELb1EEC2EPNS_10_Hash_nodeIS9_Lb1EEE, symObjAddr: 0x9AFC, symBinAddr: 0x10000C018, symSize: 0x24 }
  - { offsetInCU: 0x40CD5, offset: 0x40CD5, size: 0x8, addend: 0x0, symName: __ZNSt8__detail22_Hashtable_hash_traitsISt4hashIiEE22__small_size_thresholdEv, symObjAddr: 0x9B20, symBinAddr: 0x10000C03C, symSize: 0x8 }
  - { offsetInCU: 0x40C84, offset: 0x40C84, size: 0x8, addend: 0x0, symName: __ZNKSt10_HashtableINSt7__cxx1112basic_stringIcSt11char_traitsIcESaIcEEESt4pairIKS5_iESaIS8_ENSt8__detail10_Select1stESt8equal_toIS5_ESt4hashIS5_ENSA_18_Mod_range_hashingENSA_20_Default_ranged_hashENSA_20_Prime_rehash_policyENSA_17_Hashtable_traitsILb1ELb0ELb1EEEE19_M_find_before_nodeEmRS7_m, symObjAddr: 0x99FC, symBinAddr: 0x10000BF18, symSize: 0x100 }
  - { offsetInCU: 0x40C8C, offset: 0x40C8C, size: 0x8, addend: 0x0, symName: __ZNSt8__detail19_Node_iterator_baseISt4pairIKNSt7__cxx1112basic_stringIcSt11char_traitsIcESaIcEEEiELb1EEC2EPNS_10_Hash_nodeIS9_Lb1EEE, symObjAddr: 0x9AFC, symBinAddr: 0x10000C018, symSize: 0x24 }
  - { offsetInCU: 0x40D2F, offset: 0x40D2F, size: 0x8, addend: 0x0, symName: __ZNKSt8__detail15_Hash_code_baseINSt7__cxx1112basic_stringIcSt11char_traitsIcESaIcEEESt4pairIKS6_iENS_10_Select1stESt4hashIS6_ENS_18_Mod_range_hashingENS_20_Default_ranged_hashELb1EE15_M_bucket_indexEmm, symObjAddr: 0x99D0, symBinAddr: 0x10000BEEC, symSize: 0x2C }
  - { offsetInCU: 0x40D37, offset: 0x40D37, size: 0x8, addend: 0x0, symName: __ZNKSt10_HashtableINSt7__cxx1112basic_stringIcSt11char_traitsIcESaIcEEESt4pairIKS5_iESaIS8_ENSt8__detail10_Select1stESt8equal_toIS5_ESt4hashIS5_ENSA_18_Mod_range_hashingENSA_20_Default_ranged_hashENSA_20_Prime_rehash_policyENSA_17_Hashtable_traitsILb1ELb0ELb1EEEE19_M_find_before_nodeEmRS7_m, symObjAddr: 0x99FC, symBinAddr: 0x10000BF18, symSize: 0x100 }
  - { offsetInCU: 0x40D88, offset: 0x40D88, size: 0x8, addend: 0x0, symName: __ZNKSt15__str_hash_baseIcSaIcENSt7__cxx1112basic_stringIcSt11char_traitsIcES0_EEEclERKS5_, symObjAddr: 0x9988, symBinAddr: 0x10000BEA4, symSize: 0x48 }
  - { offsetInCU: 0x40D90, offset: 0x40D90, size: 0x8, addend: 0x0, symName: __ZNKSt8__detail15_Hash_code_baseINSt7__cxx1112basic_stringIcSt11char_traitsIcESaIcEEESt4pairIKS6_iENS_10_Select1stESt4hashIS6_ENS_18_Mod_range_hashingENS_20_Default_ranged_hashELb1EE15_M_bucket_indexEmm, symObjAddr: 0x99D0, symBinAddr: 0x10000BEEC, symSize: 0x2C }
  - { offsetInCU: 0x40DCC, offset: 0x40DCC, size: 0x8, addend: 0x0, symName: __ZNKSt8__detail15_Hash_code_baseINSt7__cxx1112basic_stringIcSt11char_traitsIcESaIcEEESt4pairIKS6_iENS_10_Select1stESt4hashIS6_ENS_18_Mod_range_hashingENS_20_Default_ranged_hashELb1EE7_M_hashEv, symObjAddr: 0x996C, symBinAddr: 0x10000BE88, symSize: 0x1C }
  - { offsetInCU: 0x40DD4, offset: 0x40DD4, size: 0x8, addend: 0x0, symName: __ZNKSt15__str_hash_baseIcSaIcENSt7__cxx1112basic_stringIcSt11char_traitsIcES0_EEEclERKS5_, symObjAddr: 0x9988, symBinAddr: 0x10000BEA4, symSize: 0x48 }
  - { offsetInCU: 0x40DFB, offset: 0x40DFB, size: 0x8, addend: 0x0, symName: __ZNKSt8equal_toINSt7__cxx1112basic_stringIcSt11char_traitsIcESaIcEEEEclERKS5_S8_, symObjAddr: 0x9940, symBinAddr: 0x10000BE5C, symSize: 0x2C }
  - { offsetInCU: 0x40E03, offset: 0x40E03, size: 0x8, addend: 0x0, symName: __ZNKSt8__detail15_Hash_code_baseINSt7__cxx1112basic_stringIcSt11char_traitsIcESaIcEEESt4pairIKS6_iENS_10_Select1stESt4hashIS6_ENS_18_Mod_range_hashingENS_20_Default_ranged_hashELb1EE7_M_hashEv, symObjAddr: 0x996C, symBinAddr: 0x10000BE88, symSize: 0x1C }
  - { offsetInCU: 0x40E54, offset: 0x40E54, size: 0x8, addend: 0x0, symName: __ZNKSt8__detail10_Select1stclIRKSt4pairIKNSt7__cxx1112basic_stringIcSt11char_traitsIcESaIcEEEiEEEONS0_10__1st_typeIT_E4typeEOSE_, symObjAddr: 0x9920, symBinAddr: 0x10000BE3C, symSize: 0x20 }
  - { offsetInCU: 0x40E5C, offset: 0x40E5C, size: 0x8, addend: 0x0, symName: __ZNKSt8equal_toINSt7__cxx1112basic_stringIcSt11char_traitsIcESaIcEEEEclERKS5_S8_, symObjAddr: 0x9940, symBinAddr: 0x10000BE5C, symSize: 0x2C }
  - { offsetInCU: 0x40EA3, offset: 0x40EA3, size: 0x8, addend: 0x0, symName: __ZNKSt8__detail21_Hash_node_value_baseISt4pairIKNSt7__cxx1112basic_stringIcSt11char_traitsIcESaIcEEEiEE4_M_vEv, symObjAddr: 0x9904, symBinAddr: 0x10000BE20, symSize: 0x1C }
  - { offsetInCU: 0x40EAB, offset: 0x40EAB, size: 0x8, addend: 0x0, symName: __ZNKSt8__detail10_Select1stclIRKSt4pairIKNSt7__cxx1112basic_stringIcSt11char_traitsIcESaIcEEEiEEEONS0_10__1st_typeIT_E4typeEOSE_, symObjAddr: 0x9920, symBinAddr: 0x10000BE3C, symSize: 0x20 }
  - { offsetInCU: 0x40ED2, offset: 0x40ED2, size: 0x8, addend: 0x0, symName: __ZNKSt8__detail15_Hashtable_baseINSt7__cxx1112basic_stringIcSt11char_traitsIcESaIcEEESt4pairIKS6_iENS_10_Select1stESt8equal_toIS6_ESt4hashIS6_ENS_18_Mod_range_hashingENS_20_Default_ranged_hashENS_17_Hashtable_traitsILb1ELb0ELb1EEEE5_M_eqEv, symObjAddr: 0x98E8, symBinAddr: 0x10000BE04, symSize: 0x1C }
  - { offsetInCU: 0x40EDA, offset: 0x40EDA, size: 0x8, addend: 0x0, symName: __ZNKSt8__detail21_Hash_node_value_baseISt4pairIKNSt7__cxx1112basic_stringIcSt11char_traitsIcESaIcEEEiEE4_M_vEv, symObjAddr: 0x9904, symBinAddr: 0x10000BE20, symSize: 0x1C }
  - { offsetInCU: 0x40F01, offset: 0x40F01, size: 0x8, addend: 0x0, symName: __ZNSt20__uninitialized_copyILb0EE13__uninit_copyIP8BookItemS3_EET0_T_S5_S4_, symObjAddr: 0x98BC, symBinAddr: 0x10000BDD8, symSize: 0x2C }
  - { offsetInCU: 0x40F09, offset: 0x40F09, size: 0x8, addend: 0x0, symName: __ZNKSt8__detail15_Hashtable_baseINSt7__cxx1112basic_stringIcSt11char_traitsIcESaIcEEESt4pairIKS6_iENS_10_Select1stESt8equal_toIS6_ESt4hashIS6_ENS_18_Mod_range_hashingENS_20_Default_ranged_hashENS_17_Hashtable_traitsILb1ELb0ELb1EEEE5_M_eqEv, symObjAddr: 0x98E8, symBinAddr: 0x10000BE04, symSize: 0x1C }
  - { offsetInCU: 0x40FB8, offset: 0x40FB8, size: 0x8, addend: 0x0, symName: __ZSt12__niter_wrapIP8BookItemET_RKS2_S2_, symObjAddr: 0x98A4, symBinAddr: 0x10000BDC0, symSize: 0x18 }
  - { offsetInCU: 0x40FC0, offset: 0x40FC0, size: 0x8, addend: 0x0, symName: __ZNSt20__uninitialized_copyILb0EE13__uninit_copyIP8BookItemS3_EET0_T_S5_S4_, symObjAddr: 0x98BC, symBinAddr: 0x10000BDD8, symSize: 0x2C }
  - { offsetInCU: 0x41031, offset: 0x41031, size: 0x8, addend: 0x0, symName: __ZSt14__copy_move_a1ILb0EP8BookItemS1_ET1_T0_S3_S2_, symObjAddr: 0x9878, symBinAddr: 0x10000BD94, symSize: 0x2C }
  - { offsetInCU: 0x41039, offset: 0x41039, size: 0x8, addend: 0x0, symName: __ZSt12__niter_wrapIP8BookItemET_RKS2_S2_, symObjAddr: 0x98A4, symBinAddr: 0x10000BDC0, symSize: 0x18 }
  - { offsetInCU: 0x410A0, offset: 0x410A0, size: 0x8, addend: 0x0, symName: __ZSt12__niter_baseIP8BookItemET_S2_, symObjAddr: 0x9864, symBinAddr: 0x10000BD80, symSize: 0x14 }
  - { offsetInCU: 0x410A8, offset: 0x410A8, size: 0x8, addend: 0x0, symName: __ZSt14__copy_move_a1ILb0EP8BookItemS1_ET1_T0_S3_S2_, symObjAddr: 0x9878, symBinAddr: 0x10000BD94, symSize: 0x2C }
  - { offsetInCU: 0x410AD, offset: 0x410AD, size: 0x8, addend: 0x0, symName: __ZNSt12_Destroy_auxILb0EE9__destroyIN9__gnu_cxx17__normal_iteratorIP8BookItemSt6vectorIS4_SaIS4_EEEEEEvT_SA_, symObjAddr: 0x980C, symBinAddr: 0x10000BD28, symSize: 0x58 }
  - { offsetInCU: 0x410B5, offset: 0x410B5, size: 0x8, addend: 0x0, symName: __ZSt12__niter_baseIP8BookItemET_S2_, symObjAddr: 0x9864, symBinAddr: 0x10000BD80, symSize: 0x14 }
  - { offsetInCU: 0x411BC, offset: 0x411BC, size: 0x8, addend: 0x0, symName: __ZSt12__niter_wrapIN9__gnu_cxx17__normal_iteratorIP8BookItemSt6vectorIS2_SaIS2_EEEES3_ET_S8_T0_, symObjAddr: 0x97C4, symBinAddr: 0x10000BCE0, symSize: 0x48 }
  - { offsetInCU: 0x411C4, offset: 0x411C4, size: 0x8, addend: 0x0, symName: __ZNSt12_Destroy_auxILb0EE9__destroyIN9__gnu_cxx17__normal_iteratorIP8BookItemSt6vectorIS4_SaIS4_EEEEEEvT_SA_, symObjAddr: 0x980C, symBinAddr: 0x10000BD28, symSize: 0x58 }
  - { offsetInCU: 0x411DB, offset: 0x411DB, size: 0x8, addend: 0x0, symName: __ZSt14__copy_move_a1ILb0EPK8BookItemPS0_ET1_T0_S5_S4_, symObjAddr: 0x9798, symBinAddr: 0x10000BCB4, symSize: 0x2C }
  - { offsetInCU: 0x411E3, offset: 0x411E3, size: 0x8, addend: 0x0, symName: __ZSt12__niter_wrapIN9__gnu_cxx17__normal_iteratorIP8BookItemSt6vectorIS2_SaIS2_EEEES3_ET_S8_T0_, symObjAddr: 0x97C4, symBinAddr: 0x10000BCE0, symSize: 0x48 }
  - { offsetInCU: 0x41293, offset: 0x41293, size: 0x8, addend: 0x0, symName: __ZSt12__niter_baseIP8BookItemSt6vectorIS0_SaIS0_EEET_N9__gnu_cxx17__normal_iteratorIS5_T0_EE, symObjAddr: 0x9778, symBinAddr: 0x10000BC94, symSize: 0x20 }
  - { offsetInCU: 0x4129B, offset: 0x4129B, size: 0x8, addend: 0x0, symName: __ZSt14__copy_move_a1ILb0EPK8BookItemPS0_ET1_T0_S5_S4_, symObjAddr: 0x9798, symBinAddr: 0x10000BCB4, symSize: 0x2C }
  - { offsetInCU: 0x412F5, offset: 0x412F5, size: 0x8, addend: 0x0, symName: __ZSt12__niter_baseIPK8BookItemSt6vectorIS0_SaIS0_EEET_N9__gnu_cxx17__normal_iteratorIS6_T0_EE, symObjAddr: 0x9758, symBinAddr: 0x10000BC74, symSize: 0x20 }
  - { offsetInCU: 0x412FD, offset: 0x412FD, size: 0x8, addend: 0x0, symName: __ZSt12__niter_baseIP8BookItemSt6vectorIS0_SaIS0_EEET_N9__gnu_cxx17__normal_iteratorIS5_T0_EE, symObjAddr: 0x9778, symBinAddr: 0x10000BC94, symSize: 0x20 }
  - { offsetInCU: 0x4138B, offset: 0x4138B, size: 0x8, addend: 0x0, symName: __ZSt18uninitialized_copyIN9__gnu_cxx17__normal_iteratorIPK8BookItemSt6vectorIS2_SaIS2_EEEEPS2_ET0_T_SB_SA_, symObjAddr: 0x9724, symBinAddr: 0x10000BC40, symSize: 0x34 }
  - { offsetInCU: 0x41393, offset: 0x41393, size: 0x8, addend: 0x0, symName: __ZSt12__niter_baseIPK8BookItemSt6vectorIS0_SaIS0_EEET_N9__gnu_cxx17__normal_iteratorIS6_T0_EE, symObjAddr: 0x9758, symBinAddr: 0x10000BC74, symSize: 0x20 }
  - { offsetInCU: 0x413C5, offset: 0x413C5, size: 0x8, addend: 0x0, symName: __ZSt12__relocate_aIP4RackS1_SaIS0_EET0_T_S4_S3_RT1_, symObjAddr: 0x96C8, symBinAddr: 0x10000BBE4, symSize: 0x5C }
  - { offsetInCU: 0x413CD, offset: 0x413CD, size: 0x8, addend: 0x0, symName: __ZSt18uninitialized_copyIN9__gnu_cxx17__normal_iteratorIPK8BookItemSt6vectorIS2_SaIS2_EEEEPS2_ET0_T_SB_SA_, symObjAddr: 0x9724, symBinAddr: 0x10000BC40, symSize: 0x34 }
  - { offsetInCU: 0x4149B, offset: 0x4149B, size: 0x8, addend: 0x0, symName: __ZSt25__uninitialized_default_nIP4RackmET_S2_T0_, symObjAddr: 0x969C, symBinAddr: 0x10000BBB8, symSize: 0x2C }
  - { offsetInCU: 0x414A3, offset: 0x414A3, size: 0x8, addend: 0x0, symName: __ZSt12__relocate_aIP4RackS1_SaIS0_EET0_T_S4_S3_RT1_, symObjAddr: 0x96C8, symBinAddr: 0x10000BBE4, symSize: 0x5C }
  - { offsetInCU: 0x414B6, offset: 0x414B6, size: 0x8, addend: 0x0, symName: __ZNKSt12_Vector_baseI4RackSaIS0_EE19_M_get_Tp_allocatorEv, symObjAddr: 0x9688, symBinAddr: 0x10000BBA4, symSize: 0x14 }
  - { offsetInCU: 0x414BE, offset: 0x414BE, size: 0x8, addend: 0x0, symName: __ZSt25__uninitialized_default_nIP4RackmET_S2_T0_, symObjAddr: 0x969C, symBinAddr: 0x10000BBB8, symSize: 0x2C }
  - { offsetInCU: 0x414E5, offset: 0x414E5, size: 0x8, addend: 0x0, symName: __ZNSt6vectorI4RackSaIS0_EE11_S_max_sizeERKS1_, symObjAddr: 0x962C, symBinAddr: 0x10000BB48, symSize: 0x5C }
  - { offsetInCU: 0x414ED, offset: 0x414ED, size: 0x8, addend: 0x0, symName: __ZNKSt12_Vector_baseI4RackSaIS0_EE19_M_get_Tp_allocatorEv, symObjAddr: 0x9688, symBinAddr: 0x10000BBA4, symSize: 0x14 }
  - { offsetInCU: 0x415BA, offset: 0x415BA, size: 0x8, addend: 0x0, symName: __ZNSt8__detail16_Hashtable_allocISaINS_10_Hash_nodeISt4pairIKiiELb0EEEEE21_M_deallocate_bucketsEPPNS_15_Hash_node_baseEm, symObjAddr: 0x95B4, symBinAddr: 0x10000BAD0, symSize: 0x78 }
  - { offsetInCU: 0x415C2, offset: 0x415C2, size: 0x8, addend: 0x0, symName: __ZNSt6vectorI4RackSaIS0_EE11_S_max_sizeERKS1_, symObjAddr: 0x962C, symBinAddr: 0x10000BB48, symSize: 0x5C }
  - { offsetInCU: 0x416FC, offset: 0x416FC, size: 0x8, addend: 0x0, symName: __ZNKSt10_HashtableIiSt4pairIKiiESaIS2_ENSt8__detail10_Select1stESt8equal_toIiESt4hashIiENS4_18_Mod_range_hashingENS4_20_Default_ranged_hashENS4_20_Prime_rehash_policyENS4_17_Hashtable_traitsILb0ELb0ELb1EEEE21_M_uses_single_bucketEPPNS4_15_Hash_node_baseE, symObjAddr: 0x9578, symBinAddr: 0x10000BA94, symSize: 0x3C }
  - { offsetInCU: 0x41704, offset: 0x41704, size: 0x8, addend: 0x0, symName: __ZNSt8__detail16_Hashtable_allocISaINS_10_Hash_nodeISt4pairIKiiELb0EEEEE21_M_deallocate_bucketsEPPNS_15_Hash_node_baseEm, symObjAddr: 0x95B4, symBinAddr: 0x10000BAD0, symSize: 0x78 }
  - { offsetInCU: 0x41740, offset: 0x41740, size: 0x8, addend: 0x0, symName: __ZNSt8__detail16_Hashtable_allocISaINS_10_Hash_nodeISt4pairIKiiELb0EEEEE18_M_deallocate_nodeEPS5_, symObjAddr: 0x9510, symBinAddr: 0x10000BA2C, symSize: 0x68 }
  - { offsetInCU: 0x41748, offset: 0x41748, size: 0x8, addend: 0x0, symName: __ZNKSt10_HashtableIiSt4pairIKiiESaIS2_ENSt8__detail10_Select1stESt8equal_toIiESt4hashIiENS4_18_Mod_range_hashingENS4_20_Default_ranged_hashENS4_20_Prime_rehash_policyENS4_17_Hashtable_traitsILb0ELb0ELb1EEEE21_M_uses_single_bucketEPPNS4_15_Hash_node_baseE, symObjAddr: 0x9578, symBinAddr: 0x10000BA94, symSize: 0x3C }
  - { offsetInCU: 0x417EE, offset: 0x417EE, size: 0x8, addend: 0x0, symName: __ZNKSt8__detail10_Hash_nodeISt4pairIKiiELb0EE7_M_nextEv, symObjAddr: 0x94F8, symBinAddr: 0x10000BA14, symSize: 0x18 }
  - { offsetInCU: 0x417F6, offset: 0x417F6, size: 0x8, addend: 0x0, symName: __ZNSt8__detail16_Hashtable_allocISaINS_10_Hash_nodeISt4pairIKiiELb0EEEEE18_M_deallocate_nodeEPS5_, symObjAddr: 0x9510, symBinAddr: 0x10000BA2C, symSize: 0x68 }
  - { offsetInCU: 0x4181D, offset: 0x4181D, size: 0x8, addend: 0x0, symName: __ZNSt8__detail16_Hashtable_allocISaINS_10_Hash_nodeISt4pairIKNSt7__cxx1112basic_stringIcSt11char_traitsIcESaIcEEEiELb1EEEEE21_M_deallocate_bucketsEPPNS_15_Hash_node_baseEm, symObjAddr: 0x9480, symBinAddr: 0x10000B99C, symSize: 0x78 }
  - { offsetInCU: 0x41825, offset: 0x41825, size: 0x8, addend: 0x0, symName: __ZNKSt8__detail10_Hash_nodeISt4pairIKiiELb0EE7_M_nextEv, symObjAddr: 0x94F8, symBinAddr: 0x10000BA14, symSize: 0x18 }
  - { offsetInCU: 0x4195F, offset: 0x4195F, size: 0x8, addend: 0x0, symName: __ZNKSt10_HashtableINSt7__cxx1112basic_stringIcSt11char_traitsIcESaIcEEESt4pairIKS5_iESaIS8_ENSt8__detail10_Select1stESt8equal_toIS5_ESt4hashIS5_ENSA_18_Mod_range_hashingENSA_20_Default_ranged_hashENSA_20_Prime_rehash_policyENSA_17_Hashtable_traitsILb1ELb0ELb1EEEE21_M_uses_single_bucketEPPNSA_15_Hash_node_baseE, symObjAddr: 0x9444, symBinAddr: 0x10000B960, symSize: 0x3C }
  - { offsetInCU: 0x41967, offset: 0x41967, size: 0x8, addend: 0x0, symName: __ZNSt8__detail16_Hashtable_allocISaINS_10_Hash_nodeISt4pairIKNSt7__cxx1112basic_stringIcSt11char_traitsIcESaIcEEEiELb1EEEEE21_M_deallocate_bucketsEPPNS_15_Hash_node_baseEm, symObjAddr: 0x9480, symBinAddr: 0x10000B99C, symSize: 0x78 }
  - { offsetInCU: 0x419A3, offset: 0x419A3, size: 0x8, addend: 0x0, symName: __ZNSt8__detail16_Hashtable_allocISaINS_10_Hash_nodeISt4pairIKNSt7__cxx1112basic_stringIcSt11char_traitsIcESaIcEEEiELb1EEEEE18_M_deallocate_nodeEPSB_, symObjAddr: 0x93D4, symBinAddr: 0x10000B8F0, symSize: 0x70 }
  - { offsetInCU: 0x419AB, offset: 0x419AB, size: 0x8, addend: 0x0, symName: __ZNKSt10_HashtableINSt7__cxx1112basic_stringIcSt11char_traitsIcESaIcEEESt4pairIKS5_iESaIS8_ENSt8__detail10_Select1stESt8equal_toIS5_ESt4hashIS5_ENSA_18_Mod_range_hashingENSA_20_Default_ranged_hashENSA_20_Prime_rehash_policyENSA_17_Hashtable_traitsILb1ELb0ELb1EEEE21_M_uses_single_bucketEPPNSA_15_Hash_node_baseE, symObjAddr: 0x9444, symBinAddr: 0x10000B960, symSize: 0x3C }
  - { offsetInCU: 0x41A51, offset: 0x41A51, size: 0x8, addend: 0x0, symName: __ZNKSt8__detail10_Hash_nodeISt4pairIKNSt7__cxx1112basic_stringIcSt11char_traitsIcESaIcEEEiELb1EE7_M_nextEv, symObjAddr: 0x93BC, symBinAddr: 0x10000B8D8, symSize: 0x18 }
  - { offsetInCU: 0x41A59, offset: 0x41A59, size: 0x8, addend: 0x0, symName: __ZNSt8__detail16_Hashtable_allocISaINS_10_Hash_nodeISt4pairIKNSt7__cxx1112basic_stringIcSt11char_traitsIcESaIcEEEiELb1EEEEE18_M_deallocate_nodeEPSB_, symObjAddr: 0x93D4, symBinAddr: 0x10000B8F0, symSize: 0x70 }
  - { offsetInCU: 0x41AFB, offset: 0x41AFB, size: 0x8, addend: 0x0, symName: __ZNSt12_Destroy_auxILb0EE9__destroyIP4RackEEvT_S4_, symObjAddr: 0x9370, symBinAddr: 0x10000B88C, symSize: 0x4C }
  - { offsetInCU: 0x41B03, offset: 0x41B03, size: 0x8, addend: 0x0, symName: __ZNKSt8__detail10_Hash_nodeISt4pairIKNSt7__cxx1112basic_stringIcSt11char_traitsIcESaIcEEEiELb1EE7_M_nextEv, symObjAddr: 0x93BC, symBinAddr: 0x10000B8D8, symSize: 0x18 }
  - { offsetInCU: 0x41B4C, offset: 0x41B4C, size: 0x8, addend: 0x0, symName: __ZNSt15__new_allocatorI4RackE10deallocateEPS0_m, symObjAddr: 0x9334, symBinAddr: 0x10000B850, symSize: 0x3C }
  - { offsetInCU: 0x41B54, offset: 0x41B54, size: 0x8, addend: 0x0, symName: __ZNSt12_Destroy_auxILb0EE9__destroyIP4RackEEvT_S4_, symObjAddr: 0x9370, symBinAddr: 0x10000B88C, symSize: 0x4C }
  - { offsetInCU: 0x41BA1, offset: 0x41BA1, size: 0x8, addend: 0x0, symName: __ZNK9__gnu_cxx17__normal_iteratorIPSt4pairI8BookItemNSt7__cxx1112basic_stringIcSt11char_traitsIcESaIcEEEESt6vectorIS9_SaIS9_EEEdeEv, symObjAddr: 0x931C, symBinAddr: 0x10000B838, symSize: 0x18 }
  - { offsetInCU: 0x41BA9, offset: 0x41BA9, size: 0x8, addend: 0x0, symName: __ZNSt15__new_allocatorI4RackE10deallocateEPS0_m, symObjAddr: 0x9334, symBinAddr: 0x10000B850, symSize: 0x3C }
  - { offsetInCU: 0x41BD0, offset: 0x41BD0, size: 0x8, addend: 0x0, symName: __ZNK9__gnu_cxx17__normal_iteratorIPSt4pairI8BookItemNSt7__cxx1112basic_stringIcSt11char_traitsIcESaIcEEEESt6vectorIS9_SaIS9_EEEmiEl, symObjAddr: 0x92C4, symBinAddr: 0x10000B7E0, symSize: 0x58 }
  - { offsetInCU: 0x41BD8, offset: 0x41BD8, size: 0x8, addend: 0x0, symName: __ZNK9__gnu_cxx17__normal_iteratorIPSt4pairI8BookItemNSt7__cxx1112basic_stringIcSt11char_traitsIcESaIcEEEESt6vectorIS9_SaIS9_EEEdeEv, symObjAddr: 0x931C, symBinAddr: 0x10000B838, symSize: 0x18 }
  - { offsetInCU: 0x41C51, offset: 0x41C51, size: 0x8, addend: 0x0, symName: __ZNK9__gnu_cxx17__normal_iteratorIPSt4pairI8BookItemNSt7__cxx1112basic_stringIcSt11char_traitsIcESaIcEEEESt6vectorIS9_SaIS9_EEE4baseEv, symObjAddr: 0x92B0, symBinAddr: 0x10000B7CC, symSize: 0x14 }
  - { offsetInCU: 0x41C59, offset: 0x41C59, size: 0x8, addend: 0x0, symName: __ZNK9__gnu_cxx17__normal_iteratorIPSt4pairI8BookItemNSt7__cxx1112basic_stringIcSt11char_traitsIcESaIcEEEESt6vectorIS9_SaIS9_EEEmiEl, symObjAddr: 0x92C4, symBinAddr: 0x10000B7E0, symSize: 0x58 }
  - { offsetInCU: 0x41C80, offset: 0x41C80, size: 0x8, addend: 0x0, symName: __ZNSt6vectorISt4pairI8BookItemNSt7__cxx1112basic_stringIcSt11char_traitsIcESaIcEEEESaIS8_EE11_S_relocateEPS8_SB_SB_RS9_, symObjAddr: 0x927C, symBinAddr: 0x10000B798, symSize: 0x34 }
  - { offsetInCU: 0x41C88, offset: 0x41C88, size: 0x8, addend: 0x0, symName: __ZNK9__gnu_cxx17__normal_iteratorIPSt4pairI8BookItemNSt7__cxx1112basic_stringIcSt11char_traitsIcESaIcEEEESt6vectorIS9_SaIS9_EEE4baseEv, symObjAddr: 0x92B0, symBinAddr: 0x10000B7CC, symSize: 0x14 }
  - { offsetInCU: 0x41CF2, offset: 0x41CF2, size: 0x8, addend: 0x0, symName: __ZNSt12_Vector_baseISt4pairI8BookItemNSt7__cxx1112basic_stringIcSt11char_traitsIcESaIcEEEESaIS8_EE11_M_allocateEm, symObjAddr: 0x922C, symBinAddr: 0x10000B748, symSize: 0x50 }
  - { offsetInCU: 0x41CFA, offset: 0x41CFA, size: 0x8, addend: 0x0, symName: __ZNSt6vectorISt4pairI8BookItemNSt7__cxx1112basic_stringIcSt11char_traitsIcESaIcEEEESaIS8_EE11_S_relocateEPS8_SB_SB_RS9_, symObjAddr: 0x927C, symBinAddr: 0x10000B798, symSize: 0x34 }
  - { offsetInCU: 0x41EA0, offset: 0x41EA0, size: 0x8, addend: 0x0, symName: __ZN9__gnu_cxxmiIPSt4pairI8BookItemNSt7__cxx1112basic_stringIcSt11char_traitsIcESaIcEEEESt6vectorIS9_SaIS9_EEEENS_17__normal_iteratorIT_T0_E15difference_typeERKSH_SK_, symObjAddr: 0x91D8, symBinAddr: 0x10000B6F4, symSize: 0x54 }
  - { offsetInCU: 0x41EA8, offset: 0x41EA8, size: 0x8, addend: 0x0, symName: __ZNSt12_Vector_baseISt4pairI8BookItemNSt7__cxx1112basic_stringIcSt11char_traitsIcESaIcEEEESaIS8_EE11_M_allocateEm, symObjAddr: 0x922C, symBinAddr: 0x10000B748, symSize: 0x50 }
  - { offsetInCU: 0x41DE5, offset: 0x41DE5, size: 0x8, addend: 0x0, symName: __ZNSt6vectorISt4pairI8BookItemNSt7__cxx1112basic_stringIcSt11char_traitsIcESaIcEEEESaIS8_EE5beginEv, symObjAddr: 0x91B4, symBinAddr: 0x10000B6D0, symSize: 0x24 }
  - { offsetInCU: 0x41DED, offset: 0x41DED, size: 0x8, addend: 0x0, symName: __ZN9__gnu_cxxmiIPSt4pairI8BookItemNSt7__cxx1112basic_stringIcSt11char_traitsIcESaIcEEEESt6vectorIS9_SaIS9_EEEENS_17__normal_iteratorIT_T0_E15difference_typeERKSH_SK_, symObjAddr: 0x91D8, symBinAddr: 0x10000B6F4, symSize: 0x54 }
  - { offsetInCU: 0x41E14, offset: 0x41E14, size: 0x8, addend: 0x0, symName: __ZNKSt6vectorISt4pairI8BookItemNSt7__cxx1112basic_stringIcSt11char_traitsIcESaIcEEEESaIS8_EE12_M_check_lenEmPKc, symObjAddr: 0x90E4, symBinAddr: 0x10000B600, symSize: 0xD0 }
  - { offsetInCU: 0x41E1C, offset: 0x41E1C, size: 0x8, addend: 0x0, symName: __ZNSt6vectorISt4pairI8BookItemNSt7__cxx1112basic_stringIcSt11char_traitsIcESaIcEEEESaIS8_EE5beginEv, symObjAddr: 0x91B4, symBinAddr: 0x10000B6D0, symSize: 0x24 }
  - { offsetInCU: 0x41F36, offset: 0x41F36, size: 0x8, addend: 0x0, symName: __ZN9__gnu_cxx17__normal_iteratorIPSt4pairI8BookItemNSt7__cxx1112basic_stringIcSt11char_traitsIcESaIcEEEESt6vectorIS9_SaIS9_EEEC1ERKSA_, symObjAddr: 0x90BC, symBinAddr: 0x10000B5D8, symSize: 0x28 }
  - { offsetInCU: 0x41F3E, offset: 0x41F3E, size: 0x8, addend: 0x0, symName: __ZNKSt6vectorISt4pairI8BookItemNSt7__cxx1112basic_stringIcSt11char_traitsIcESaIcEEEESaIS8_EE12_M_check_lenEmPKc, symObjAddr: 0x90E4, symBinAddr: 0x10000B600, symSize: 0xD0 }
  - { offsetInCU: 0x41FB7, offset: 0x41FB7, size: 0x8, addend: 0x0, symName: __ZNSt4pairI8BookItemNSt7__cxx1112basic_stringIcSt11char_traitsIcESaIcEEEEC1EOS7_, symObjAddr: 0x9078, symBinAddr: 0x10000B594, symSize: 0x44 }
  - { offsetInCU: 0x41FBF, offset: 0x41FBF, size: 0x8, addend: 0x0, symName: __ZN9__gnu_cxx17__normal_iteratorIPSt4pairI8BookItemNSt7__cxx1112basic_stringIcSt11char_traitsIcESaIcEEEESt6vectorIS9_SaIS9_EEEC1ERKSA_, symObjAddr: 0x90BC, symBinAddr: 0x10000B5D8, symSize: 0x28 }
  - { offsetInCU: 0x41FDD, offset: 0x41FDD, size: 0x8, addend: 0x0, symName: __ZN8BookItemC1EOS_, symObjAddr: 0x9034, symBinAddr: 0x10000B550, symSize: 0x44 }
  - { offsetInCU: 0x41FE5, offset: 0x41FE5, size: 0x8, addend: 0x0, symName: __ZNSt4pairI8BookItemNSt7__cxx1112basic_stringIcSt11char_traitsIcESaIcEEEEC1EOS7_, symObjAddr: 0x9078, symBinAddr: 0x10000B594, symSize: 0x44 }
  - { offsetInCU: 0x4204E, offset: 0x4204E, size: 0x8, addend: 0x0, symName: __ZN10BookDetailC2EOS_, symObjAddr: 0x8FB4, symBinAddr: 0x10000B4D0, symSize: 0x80 }
  - { offsetInCU: 0x42056, offset: 0x42056, size: 0x8, addend: 0x0, symName: __ZN8BookItemC1EOS_, symObjAddr: 0x9034, symBinAddr: 0x10000B550, symSize: 0x44 }
  - { offsetInCU: 0x42075, offset: 0x42075, size: 0x8, addend: 0x0, symName: __ZNSt12_Destroy_auxILb0EE9__destroyIPSt4pairI8BookItemNSt7__cxx1112basic_stringIcSt11char_traitsIcESaIcEEEEEEvT_SC_, symObjAddr: 0x8F68, symBinAddr: 0x10000B484, symSize: 0x4C }
  - { offsetInCU: 0x4207D, offset: 0x4207D, size: 0x8, addend: 0x0, symName: __ZN10BookDetailC2EOS_, symObjAddr: 0x8FB4, symBinAddr: 0x10000B4D0, symSize: 0x80 }
  - { offsetInCU: 0x420C6, offset: 0x420C6, size: 0x8, addend: 0x0, symName: __ZNSt15__new_allocatorISt4pairI8BookItemNSt7__cxx1112basic_stringIcSt11char_traitsIcESaIcEEEEE10deallocateEPS8_m, symObjAddr: 0x8F24, symBinAddr: 0x10000B440, symSize: 0x44 }
  - { offsetInCU: 0x420CE, offset: 0x420CE, size: 0x8, addend: 0x0, symName: __ZNSt12_Destroy_auxILb0EE9__destroyIPSt4pairI8BookItemNSt7__cxx1112basic_stringIcSt11char_traitsIcESaIcEEEEEEvT_SC_, symObjAddr: 0x8F68, symBinAddr: 0x10000B484, symSize: 0x4C }
  - { offsetInCU: 0x421CF, offset: 0x421CF, size: 0x8, addend: 0x0, symName: __ZSt12__relocate_aIP8BookItemS1_SaIS0_EET0_T_S4_S3_RT1_, symObjAddr: 0x8EC8, symBinAddr: 0x10000B3E4, symSize: 0x5C }
  - { offsetInCU: 0x421D7, offset: 0x421D7, size: 0x8, addend: 0x0, symName: __ZNSt15__new_allocatorISt4pairI8BookItemNSt7__cxx1112basic_stringIcSt11char_traitsIcESaIcEEEEE10deallocateEPS8_m, symObjAddr: 0x8F24, symBinAddr: 0x10000B440, symSize: 0x44 }
  - { offsetInCU: 0x4222B, offset: 0x4222B, size: 0x8, addend: 0x0, symName: __ZNKSt6vectorI8BookItemSaIS0_EE8max_sizeEv, symObjAddr: 0x8EA8, symBinAddr: 0x10000B3C4, symSize: 0x20 }
  - { offsetInCU: 0x42233, offset: 0x42233, size: 0x8, addend: 0x0, symName: __ZSt12__relocate_aIP8BookItemS1_SaIS0_EET0_T_S4_S3_RT1_, symObjAddr: 0x8EC8, symBinAddr: 0x10000B3E4, symSize: 0x5C }
  - { offsetInCU: 0x4225A, offset: 0x4225A, size: 0x8, addend: 0x0, symName: __ZNSt12_Destroy_auxILb0EE9__destroyIP8BookItemEEvT_S4_, symObjAddr: 0x8E5C, symBinAddr: 0x10000B378, symSize: 0x4C }
  - { offsetInCU: 0x42262, offset: 0x42262, size: 0x8, addend: 0x0, symName: __ZNKSt6vectorI8BookItemSaIS0_EE8max_sizeEv, symObjAddr: 0x8EA8, symBinAddr: 0x10000B3C4, symSize: 0x20 }
  - { offsetInCU: 0x422AB, offset: 0x422AB, size: 0x8, addend: 0x0, symName: __ZNSt15__new_allocatorI8BookItemE10deallocateEPS0_m, symObjAddr: 0x8E20, symBinAddr: 0x10000B33C, symSize: 0x3C }
  - { offsetInCU: 0x422B3, offset: 0x422B3, size: 0x8, addend: 0x0, symName: __ZNSt12_Destroy_auxILb0EE9__destroyIP8BookItemEEvT_S4_, symObjAddr: 0x8E5C, symBinAddr: 0x10000B378, symSize: 0x4C }
  - { offsetInCU: 0x42300, offset: 0x42300, size: 0x8, addend: 0x0, symName: __ZNSt20__uninitialized_copyILb0EE13__uninit_copyIN9__gnu_cxx17__normal_iteratorIPKNSt7__cxx1112basic_stringIcSt11char_traitsIcESaIcEEESt6vectorIS9_SaIS9_EEEEPS9_EET0_T_SI_SH_, symObjAddr: 0x8DF4, symBinAddr: 0x10000B310, symSize: 0x2C }
  - { offsetInCU: 0x42308, offset: 0x42308, size: 0x8, addend: 0x0, symName: __ZNSt15__new_allocatorI8BookItemE10deallocateEPS0_m, symObjAddr: 0x8E20, symBinAddr: 0x10000B33C, symSize: 0x3C }
  - { offsetInCU: 0x42371, offset: 0x42371, size: 0x8, addend: 0x0, symName: __ZNSt20__uninitialized_copyILb0EE13__uninit_copyIPNSt7__cxx1112basic_stringIcSt11char_traitsIcESaIcEEES8_EET0_T_SA_S9_, symObjAddr: 0x8DC8, symBinAddr: 0x10000B2E4, symSize: 0x2C }
  - { offsetInCU: 0x42379, offset: 0x42379, size: 0x8, addend: 0x0, symName: __ZNSt20__uninitialized_copyILb0EE13__uninit_copyIN9__gnu_cxx17__normal_iteratorIPKNSt7__cxx1112basic_stringIcSt11char_traitsIcESaIcEEESt6vectorIS9_SaIS9_EEEEPS9_EET0_T_SI_SH_, symObjAddr: 0x8DF4, symBinAddr: 0x10000B310, symSize: 0x2C }
  - { offsetInCU: 0x4246B, offset: 0x4246B, size: 0x8, addend: 0x0, symName: __ZSt12__niter_wrapIPNSt7__cxx1112basic_stringIcSt11char_traitsIcESaIcEEEET_RKS7_S7_, symObjAddr: 0x8DB0, symBinAddr: 0x10000B2CC, symSize: 0x18 }
  - { offsetInCU: 0x42473, offset: 0x42473, size: 0x8, addend: 0x0, symName: __ZNSt20__uninitialized_copyILb0EE13__uninit_copyIPNSt7__cxx1112basic_stringIcSt11char_traitsIcESaIcEEES8_EET0_T_SA_S9_, symObjAddr: 0x8DC8, symBinAddr: 0x10000B2E4, symSize: 0x2C }
  - { offsetInCU: 0x424FC, offset: 0x424FC, size: 0x8, addend: 0x0, symName: __ZSt14__copy_move_a1ILb0EPNSt7__cxx1112basic_stringIcSt11char_traitsIcESaIcEEES6_ET1_T0_S8_S7_, symObjAddr: 0x8D84, symBinAddr: 0x10000B2A0, symSize: 0x2C }
  - { offsetInCU: 0x42504, offset: 0x42504, size: 0x8, addend: 0x0, symName: __ZSt12__niter_wrapIPNSt7__cxx1112basic_stringIcSt11char_traitsIcESaIcEEEET_RKS7_S7_, symObjAddr: 0x8DB0, symBinAddr: 0x10000B2CC, symSize: 0x18 }
  - { offsetInCU: 0x42553, offset: 0x42553, size: 0x8, addend: 0x0, symName: __ZSt12__niter_baseIPNSt7__cxx1112basic_stringIcSt11char_traitsIcESaIcEEEET_S7_, symObjAddr: 0x8D70, symBinAddr: 0x10000B28C, symSize: 0x14 }
  - { offsetInCU: 0x4255B, offset: 0x4255B, size: 0x8, addend: 0x0, symName: __ZSt14__copy_move_a1ILb0EPNSt7__cxx1112basic_stringIcSt11char_traitsIcESaIcEEES6_ET1_T0_S8_S7_, symObjAddr: 0x8D84, symBinAddr: 0x10000B2A0, symSize: 0x2C }
  - { offsetInCU: 0x4251D, offset: 0x4251D, size: 0x8, addend: 0x0, symName: __ZNSt12_Destroy_auxILb0EE9__destroyIN9__gnu_cxx17__normal_iteratorIPNSt7__cxx1112basic_stringIcSt11char_traitsIcESaIcEEESt6vectorIS9_SaIS9_EEEEEEvT_SF_, symObjAddr: 0x8D18, symBinAddr: 0x10000B234, symSize: 0x58 }
  - { offsetInCU: 0x42525, offset: 0x42525, size: 0x8, addend: 0x0, symName: __ZSt12__niter_baseIPNSt7__cxx1112basic_stringIcSt11char_traitsIcESaIcEEEET_S7_, symObjAddr: 0x8D70, symBinAddr: 0x10000B28C, symSize: 0x14 }
  - { offsetInCU: 0x426A0, offset: 0x426A0, size: 0x8, addend: 0x0, symName: __ZSt12__niter_wrapIN9__gnu_cxx17__normal_iteratorIPNSt7__cxx1112basic_stringIcSt11char_traitsIcESaIcEEESt6vectorIS7_SaIS7_EEEES8_ET_SD_T0_, symObjAddr: 0x8CDC, symBinAddr: 0x10000B1F8, symSize: 0x3C }
  - { offsetInCU: 0x426A8, offset: 0x426A8, size: 0x8, addend: 0x0, symName: __ZNSt12_Destroy_auxILb0EE9__destroyIN9__gnu_cxx17__normal_iteratorIPNSt7__cxx1112basic_stringIcSt11char_traitsIcESaIcEEESt6vectorIS9_SaIS9_EEEEEEvT_SF_, symObjAddr: 0x8D18, symBinAddr: 0x10000B234, symSize: 0x58 }
  - { offsetInCU: 0x426A6, offset: 0x426A6, size: 0x8, addend: 0x0, symName: __ZSt14__copy_move_a1ILb0EPKNSt7__cxx1112basic_stringIcSt11char_traitsIcESaIcEEEPS5_ET1_T0_SA_S9_, symObjAddr: 0x8CB0, symBinAddr: 0x10000B1CC, symSize: 0x2C }
  - { offsetInCU: 0x426AE, offset: 0x426AE, size: 0x8, addend: 0x0, symName: __ZSt12__niter_wrapIN9__gnu_cxx17__normal_iteratorIPNSt7__cxx1112basic_stringIcSt11char_traitsIcESaIcEEESt6vectorIS7_SaIS7_EEEES8_ET_SD_T0_, symObjAddr: 0x8CDC, symBinAddr: 0x10000B1F8, symSize: 0x3C }
  - { offsetInCU: 0x4275F, offset: 0x4275F, size: 0x8, addend: 0x0, symName: __ZSt12__niter_baseIPNSt7__cxx1112basic_stringIcSt11char_traitsIcESaIcEEESt6vectorIS5_SaIS5_EEET_N9__gnu_cxx17__normal_iteratorISA_T0_EE, symObjAddr: 0x8C90, symBinAddr: 0x10000B1AC, symSize: 0x20 }
  - { offsetInCU: 0x42767, offset: 0x42767, size: 0x8, addend: 0x0, symName: __ZSt14__copy_move_a1ILb0EPKNSt7__cxx1112basic_stringIcSt11char_traitsIcESaIcEEEPS5_ET1_T0_SA_S9_, symObjAddr: 0x8CB0, symBinAddr: 0x10000B1CC, symSize: 0x2C }
  - { offsetInCU: 0x427C1, offset: 0x427C1, size: 0x8, addend: 0x0, symName: __ZSt12__niter_baseIPKNSt7__cxx1112basic_stringIcSt11char_traitsIcESaIcEEESt6vectorIS5_SaIS5_EEET_N9__gnu_cxx17__normal_iteratorISB_T0_EE, symObjAddr: 0x8C70, symBinAddr: 0x10000B18C, symSize: 0x20 }
  - { offsetInCU: 0x427C9, offset: 0x427C9, size: 0x8, addend: 0x0, symName: __ZSt12__niter_baseIPNSt7__cxx1112basic_stringIcSt11char_traitsIcESaIcEEESt6vectorIS5_SaIS5_EEET_N9__gnu_cxx17__normal_iteratorISA_T0_EE, symObjAddr: 0x8C90, symBinAddr: 0x10000B1AC, symSize: 0x20 }
  - { offsetInCU: 0x4284F, offset: 0x4284F, size: 0x8, addend: 0x0, symName: __ZSt12__relocate_aIPNSt7__cxx1112basic_stringIcSt11char_traitsIcESaIcEEES6_SaIS5_EET0_T_S9_S8_RT1_, symObjAddr: 0x8C14, symBinAddr: 0x10000B130, symSize: 0x5C }
  - { offsetInCU: 0x42857, offset: 0x42857, size: 0x8, addend: 0x0, symName: __ZSt12__niter_baseIPKNSt7__cxx1112basic_stringIcSt11char_traitsIcESaIcEEESt6vectorIS5_SaIS5_EEET_N9__gnu_cxx17__normal_iteratorISB_T0_EE, symObjAddr: 0x8C70, symBinAddr: 0x10000B18C, symSize: 0x20 }
  - { offsetInCU: 0x42837, offset: 0x42837, size: 0x8, addend: 0x0, symName: __ZNKSt6vectorINSt7__cxx1112basic_stringIcSt11char_traitsIcESaIcEEESaIS5_EE8max_sizeEv, symObjAddr: 0x8BF4, symBinAddr: 0x10000B110, symSize: 0x20 }
  - { offsetInCU: 0x4283F, offset: 0x4283F, size: 0x8, addend: 0x0, symName: __ZSt12__relocate_aIPNSt7__cxx1112basic_stringIcSt11char_traitsIcESaIcEEES6_SaIS5_EET0_T_S9_S8_RT1_, symObjAddr: 0x8C14, symBinAddr: 0x10000B130, symSize: 0x5C }
  - { offsetInCU: 0x42866, offset: 0x42866, size: 0x8, addend: 0x0, symName: __ZNSt12_Destroy_auxILb0EE9__destroyIPNSt7__cxx1112basic_stringIcSt11char_traitsIcESaIcEEEEEvT_S9_, symObjAddr: 0x8BA8, symBinAddr: 0x10000B0C4, symSize: 0x4C }
  - { offsetInCU: 0x4286E, offset: 0x4286E, size: 0x8, addend: 0x0, symName: __ZNKSt6vectorINSt7__cxx1112basic_stringIcSt11char_traitsIcESaIcEEESaIS5_EE8max_sizeEv, symObjAddr: 0x8BF4, symBinAddr: 0x10000B110, symSize: 0x20 }
  - { offsetInCU: 0x428B7, offset: 0x428B7, size: 0x8, addend: 0x0, symName: __ZNSt15__new_allocatorINSt7__cxx1112basic_stringIcSt11char_traitsIcESaIcEEEE10deallocateEPS5_m, symObjAddr: 0x8B78, symBinAddr: 0x10000B094, symSize: 0x30 }
  - { offsetInCU: 0x428BF, offset: 0x428BF, size: 0x8, addend: 0x0, symName: __ZNSt12_Destroy_auxILb0EE9__destroyIPNSt7__cxx1112basic_stringIcSt11char_traitsIcESaIcEEEEEvT_S9_, symObjAddr: 0x8BA8, symBinAddr: 0x10000B0C4, symSize: 0x4C }
  - { offsetInCU: 0x429A3, offset: 0x429A3, size: 0x8, addend: 0x0, symName: __ZSt8_DestroyIPSt6vectorINSt7__cxx1112basic_stringIcSt11char_traitsIcESaIcEEESaIS6_EEEvT_SA_, symObjAddr: 0x8B50, symBinAddr: 0x10000B06C, symSize: 0x28 }
  - { offsetInCU: 0x429AB, offset: 0x429AB, size: 0x8, addend: 0x0, symName: __ZNSt15__new_allocatorINSt7__cxx1112basic_stringIcSt11char_traitsIcESaIcEEEE10deallocateEPS5_m, symObjAddr: 0x8B78, symBinAddr: 0x10000B094, symSize: 0x30 }
  - { offsetInCU: 0x42A00, offset: 0x42A00, size: 0x8, addend: 0x0, symName: __ZNSt12_Vector_baseIiSaIiEE17_Vector_impl_data12_M_swap_dataERS2_, symObjAddr: 0x8B04, symBinAddr: 0x10000B020, symSize: 0x4C }
  - { offsetInCU: 0x42A08, offset: 0x42A08, size: 0x8, addend: 0x0, symName: __ZSt8_DestroyIPSt6vectorINSt7__cxx1112basic_stringIcSt11char_traitsIcESaIcEEESaIS6_EEEvT_SA_, symObjAddr: 0x8B50, symBinAddr: 0x10000B06C, symSize: 0x28 }
  - { offsetInCU: 0x42A9F, offset: 0x42A9F, size: 0x8, addend: 0x0, symName: __ZNSt6vectorIiSaIiEEC1ERKS0_, symObjAddr: 0x8ADC, symBinAddr: 0x10000AFF8, symSize: 0x28 }
  - { offsetInCU: 0x42AA7, offset: 0x42AA7, size: 0x8, addend: 0x0, symName: __ZNSt12_Vector_baseIiSaIiEE17_Vector_impl_data12_M_swap_dataERS2_, symObjAddr: 0x8B04, symBinAddr: 0x10000B020, symSize: 0x4C }
  - { offsetInCU: 0x42ABF, offset: 0x42ABF, size: 0x8, addend: 0x0, symName: __ZNKSt12_Vector_baseIiSaIiEE13get_allocatorEv, symObjAddr: 0x8A8C, symBinAddr: 0x10000AFA8, symSize: 0x50 }
  - { offsetInCU: 0x42AC7, offset: 0x42AC7, size: 0x8, addend: 0x0, symName: __ZNSt6vectorIiSaIiEEC1ERKS0_, symObjAddr: 0x8ADC, symBinAddr: 0x10000AFF8, symSize: 0x28 }
  - { offsetInCU: 0x42B58, offset: 0x42B58, size: 0x8, addend: 0x0, symName: __ZNSt7__cxx1110_List_baseI11BookLendingSaIS1_EE11_M_inc_sizeEm, symObjAddr: 0x8A5C, symBinAddr: 0x10000AF78, symSize: 0x30 }
  - { offsetInCU: 0x42B60, offset: 0x42B60, size: 0x8, addend: 0x0, symName: __ZNKSt12_Vector_baseIiSaIiEE13get_allocatorEv, symObjAddr: 0x8A8C, symBinAddr: 0x10000AFA8, symSize: 0x50 }
  - { offsetInCU: 0x42BA6, offset: 0x42BA6, size: 0x8, addend: 0x0, symName: __ZNSt7__cxx114listI11BookLendingSaIS1_EE14_M_create_nodeIJRKS1_EEEPSt10_List_nodeIS1_EDpOT_, symObjAddr: 0x8944, symBinAddr: 0x10000AE60, symSize: 0x118 }
  - { offsetInCU: 0x42BAE, offset: 0x42BAE, size: 0x8, addend: 0x0, symName: __ZNSt7__cxx1110_List_baseI11BookLendingSaIS1_EE11_M_inc_sizeEm, symObjAddr: 0x8A5C, symBinAddr: 0x10000AF78, symSize: 0x30 }
  - { offsetInCU: 0x42D1F, offset: 0x42D1F, size: 0x8, addend: 0x0, symName: __ZSt7forwardIRK11BookLendingEOT_RNSt16remove_referenceIS3_E4typeE, symObjAddr: 0x8930, symBinAddr: 0x10000AE4C, symSize: 0x14 }
  - { offsetInCU: 0x42D27, offset: 0x42D27, size: 0x8, addend: 0x0, symName: __ZNSt7__cxx114listI11BookLendingSaIS1_EE14_M_create_nodeIJRKS1_EEEPSt10_List_nodeIS1_EDpOT_, symObjAddr: 0x8944, symBinAddr: 0x10000AE60, symSize: 0x118 }
  - { offsetInCU: 0x42D11, offset: 0x42D11, size: 0x8, addend: 0x0, symName: __ZN9__gnu_cxx16__aligned_membufI11BookLendingE6_M_ptrEv, symObjAddr: 0x8914, symBinAddr: 0x10000AE30, symSize: 0x1C }
  - { offsetInCU: 0x42D19, offset: 0x42D19, size: 0x8, addend: 0x0, symName: __ZSt7forwardIRK11BookLendingEOT_RNSt16remove_referenceIS3_E4typeE, symObjAddr: 0x8930, symBinAddr: 0x10000AE4C, symSize: 0x14 }
  - { offsetInCU: 0x42D40, offset: 0x42D40, size: 0x8, addend: 0x0, symName: __ZNSt6vectorIS_INSt7__cxx1112basic_stringIcSt11char_traitsIcESaIcEEESaIS5_EESaIS7_EE4backEv, symObjAddr: 0x88DC, symBinAddr: 0x10000ADF8, symSize: 0x38 }
  - { offsetInCU: 0x42D48, offset: 0x42D48, size: 0x8, addend: 0x0, symName: __ZN9__gnu_cxx16__aligned_membufI11BookLendingE6_M_ptrEv, symObjAddr: 0x8914, symBinAddr: 0x10000AE30, symSize: 0x1C }
  - { offsetInCU: 0x42D6F, offset: 0x42D6F, size: 0x8, addend: 0x0, symName: __ZNSt6vectorIS_INSt7__cxx1112basic_stringIcSt11char_traitsIcESaIcEEESaIS5_EESaIS7_EE17_M_realloc_insertIJS7_EEEvN9__gnu_cxx17__normal_iteratorIPS7_S9_EEDpOT_, symObjAddr: 0x86EC, symBinAddr: 0x10000AC08, symSize: 0x1F0 }
  - { offsetInCU: 0x42D77, offset: 0x42D77, size: 0x8, addend: 0x0, symName: __ZNSt6vectorIS_INSt7__cxx1112basic_stringIcSt11char_traitsIcESaIcEEESaIS5_EESaIS7_EE4backEv, symObjAddr: 0x88DC, symBinAddr: 0x10000ADF8, symSize: 0x38 }
  - { offsetInCU: 0x42EDE, offset: 0x42EDE, size: 0x8, addend: 0x0, symName: __ZNSt6vectorIS_INSt7__cxx1112basic_stringIcSt11char_traitsIcESaIcEEESaIS5_EESaIS7_EE3endEv, symObjAddr: 0x86C4, symBinAddr: 0x10000ABE0, symSize: 0x28 }
  - { offsetInCU: 0x42EE6, offset: 0x42EE6, size: 0x8, addend: 0x0, symName: __ZNSt6vectorIS_INSt7__cxx1112basic_stringIcSt11char_traitsIcESaIcEEESaIS5_EESaIS7_EE17_M_realloc_insertIJS7_EEEvN9__gnu_cxx17__normal_iteratorIPS7_S9_EEDpOT_, symObjAddr: 0x86EC, symBinAddr: 0x10000AC08, symSize: 0x1F0 }
  - { offsetInCU: 0x4301F, offset: 0x4301F, size: 0x8, addend: 0x0, symName: __ZSt7forwardISt6vectorINSt7__cxx1112basic_stringIcSt11char_traitsIcESaIcEEESaIS6_EEEOT_RNSt16remove_referenceIS9_E4typeE, symObjAddr: 0x86B0, symBinAddr: 0x10000ABCC, symSize: 0x14 }
  - { offsetInCU: 0x43027, offset: 0x43027, size: 0x8, addend: 0x0, symName: __ZNSt6vectorIS_INSt7__cxx1112basic_stringIcSt11char_traitsIcESaIcEEESaIS5_EESaIS7_EE3endEv, symObjAddr: 0x86C4, symBinAddr: 0x10000ABE0, symSize: 0x28 }
  - { offsetInCU: 0x42FBD, offset: 0x42FBD, size: 0x8, addend: 0x0, symName: __ZNSt6vectorINSt7__cxx1112basic_stringIcSt11char_traitsIcESaIcEEESaIS5_EE4backEv, symObjAddr: 0x8678, symBinAddr: 0x10000AB94, symSize: 0x38 }
  - { offsetInCU: 0x42FC5, offset: 0x42FC5, size: 0x8, addend: 0x0, symName: __ZSt7forwardISt6vectorINSt7__cxx1112basic_stringIcSt11char_traitsIcESaIcEEESaIS6_EEEOT_RNSt16remove_referenceIS9_E4typeE, symObjAddr: 0x86B0, symBinAddr: 0x10000ABCC, symSize: 0x14 }
  - { offsetInCU: 0x42FEC, offset: 0x42FEC, size: 0x8, addend: 0x0, symName: __ZNSt6vectorINSt7__cxx1112basic_stringIcSt11char_traitsIcESaIcEEESaIS5_EE17_M_realloc_insertIJS5_EEEvN9__gnu_cxx17__normal_iteratorIPS5_S7_EEDpOT_, symObjAddr: 0x84B4, symBinAddr: 0x10000A9D0, symSize: 0x1C4 }
  - { offsetInCU: 0x42FF4, offset: 0x42FF4, size: 0x8, addend: 0x0, symName: __ZNSt6vectorINSt7__cxx1112basic_stringIcSt11char_traitsIcESaIcEEESaIS5_EE4backEv, symObjAddr: 0x8678, symBinAddr: 0x10000AB94, symSize: 0x38 }
  - { offsetInCU: 0x4324D, offset: 0x4324D, size: 0x8, addend: 0x0, symName: __ZSt7forwardINSt7__cxx1112basic_stringIcSt11char_traitsIcESaIcEEEEOT_RNSt16remove_referenceIS6_E4typeE, symObjAddr: 0x84A0, symBinAddr: 0x10000A9BC, symSize: 0x14 }
  - { offsetInCU: 0x43255, offset: 0x43255, size: 0x8, addend: 0x0, symName: __ZNSt6vectorINSt7__cxx1112basic_stringIcSt11char_traitsIcESaIcEEESaIS5_EE17_M_realloc_insertIJS5_EEEvN9__gnu_cxx17__normal_iteratorIPS5_S7_EEDpOT_, symObjAddr: 0x84B4, symBinAddr: 0x10000A9D0, symSize: 0x1C4 }
  - { offsetInCU: 0x4324D, offset: 0x4324D, size: 0x8, addend: 0x0, symName: __ZNSt12_Vector_baseINSt7__cxx1112basic_stringIcSt11char_traitsIcESaIcEEESaIS5_EE17_Vector_impl_data12_M_swap_dataERS8_, symObjAddr: 0x8454, symBinAddr: 0x10000A970, symSize: 0x4C }
  - { offsetInCU: 0x43255, offset: 0x43255, size: 0x8, addend: 0x0, symName: __ZSt7forwardINSt7__cxx1112basic_stringIcSt11char_traitsIcESaIcEEEEOT_RNSt16remove_referenceIS6_E4typeE, symObjAddr: 0x84A0, symBinAddr: 0x10000A9BC, symSize: 0x14 }
  - { offsetInCU: 0x43321, offset: 0x43321, size: 0x8, addend: 0x0, symName: __ZNSt6vectorINSt7__cxx1112basic_stringIcSt11char_traitsIcESaIcEEESaIS5_EEC1ERKS6_, symObjAddr: 0x842C, symBinAddr: 0x10000A948, symSize: 0x28 }
  - { offsetInCU: 0x43329, offset: 0x43329, size: 0x8, addend: 0x0, symName: __ZNSt12_Vector_baseINSt7__cxx1112basic_stringIcSt11char_traitsIcESaIcEEESaIS5_EE17_Vector_impl_data12_M_swap_dataERS8_, symObjAddr: 0x8454, symBinAddr: 0x10000A970, symSize: 0x4C }
  - { offsetInCU: 0x4330C, offset: 0x4330C, size: 0x8, addend: 0x0, symName: __ZNKSt12_Vector_baseINSt7__cxx1112basic_stringIcSt11char_traitsIcESaIcEEESaIS5_EE13get_allocatorEv, symObjAddr: 0x83DC, symBinAddr: 0x10000A8F8, symSize: 0x50 }
  - { offsetInCU: 0x43314, offset: 0x43314, size: 0x8, addend: 0x0, symName: __ZNSt6vectorINSt7__cxx1112basic_stringIcSt11char_traitsIcESaIcEEESaIS5_EEC1ERKS6_, symObjAddr: 0x842C, symBinAddr: 0x10000A948, symSize: 0x28 }
  - { offsetInCU: 0x433A5, offset: 0x433A5, size: 0x8, addend: 0x0, symName: __ZNSt6vectorIiSaIiEE4backEv, symObjAddr: 0x83A4, symBinAddr: 0x10000A8C0, symSize: 0x38 }
  - { offsetInCU: 0x433AD, offset: 0x433AD, size: 0x8, addend: 0x0, symName: __ZNKSt12_Vector_baseINSt7__cxx1112basic_stringIcSt11char_traitsIcESaIcEEESaIS5_EE13get_allocatorEv, symObjAddr: 0x83DC, symBinAddr: 0x10000A8F8, symSize: 0x50 }
  - { offsetInCU: 0x433D4, offset: 0x433D4, size: 0x8, addend: 0x0, symName: __ZNSt6vectorIiSaIiEE17_M_realloc_insertIJiEEEvN9__gnu_cxx17__normal_iteratorIPiS1_EEDpOT_, symObjAddr: 0x81E4, symBinAddr: 0x10000A700, symSize: 0x1C0 }
  - { offsetInCU: 0x433DC, offset: 0x433DC, size: 0x8, addend: 0x0, symName: __ZNSt6vectorIiSaIiEE4backEv, symObjAddr: 0x83A4, symBinAddr: 0x10000A8C0, symSize: 0x38 }
  - { offsetInCU: 0x43543, offset: 0x43543, size: 0x8, addend: 0x0, symName: __ZNSt6vectorIiSaIiEE3endEv, symObjAddr: 0x81BC, symBinAddr: 0x10000A6D8, symSize: 0x28 }
  - { offsetInCU: 0x4354B, offset: 0x4354B, size: 0x8, addend: 0x0, symName: __ZNSt6vectorIiSaIiEE17_M_realloc_insertIJiEEEvN9__gnu_cxx17__normal_iteratorIPiS1_EEDpOT_, symObjAddr: 0x81E4, symBinAddr: 0x10000A700, symSize: 0x1C0 }
  - { offsetInCU: 0x435CE, offset: 0x435CE, size: 0x8, addend: 0x0, symName: __ZNKSt8__detail14_Node_iteratorISt4pairIKiiELb0ELb0EEptEv, symObjAddr: 0x8198, symBinAddr: 0x10000A6B4, symSize: 0x24 }
  - { offsetInCU: 0x435D6, offset: 0x435D6, size: 0x8, addend: 0x0, symName: __ZNSt6vectorIiSaIiEE3endEv, symObjAddr: 0x81BC, symBinAddr: 0x10000A6D8, symSize: 0x28 }
  - { offsetInCU: 0x435FD, offset: 0x435FD, size: 0x8, addend: 0x0, symName: __ZNSt10_HashtableIiSt4pairIKiiESaIS2_ENSt8__detail10_Select1stESt8equal_toIiESt4hashIiENS4_18_Mod_range_hashingENS4_20_Default_ranged_hashENS4_20_Prime_rehash_policyENS4_17_Hashtable_traitsILb0ELb0ELb1EEEE21_M_insert_unique_nodeEmmPNS4_10_Hash_nodeIS2_Lb0EEEm, symObjAddr: 0x80B0, symBinAddr: 0x10000A5CC, symSize: 0xE8 }
  - { offsetInCU: 0x43605, offset: 0x43605, size: 0x8, addend: 0x0, symName: __ZNKSt8__detail14_Node_iteratorISt4pairIKiiELb0ELb0EEptEv, symObjAddr: 0x8198, symBinAddr: 0x10000A6B4, symSize: 0x24 }
  - { offsetInCU: 0x437B7, offset: 0x437B7, size: 0x8, addend: 0x0, symName: __ZNSt10_HashtableIiSt4pairIKiiESaIS2_ENSt8__detail10_Select1stESt8equal_toIiESt4hashIiENS4_18_Mod_range_hashingENS4_20_Default_ranged_hashENS4_20_Prime_rehash_policyENS4_17_Hashtable_traitsILb0ELb0ELb1EEEE12_Scoped_nodeD1Ev, symObjAddr: 0x806C, symBinAddr: 0x10000A588, symSize: 0x44 }
  - { offsetInCU: 0x437BF, offset: 0x437BF, size: 0x8, addend: 0x0, symName: __ZNSt10_HashtableIiSt4pairIKiiESaIS2_ENSt8__detail10_Select1stESt8equal_toIiESt4hashIiENS4_18_Mod_range_hashingENS4_20_Default_ranged_hashENS4_20_Prime_rehash_policyENS4_17_Hashtable_traitsILb0ELb0ELb1EEEE21_M_insert_unique_nodeEmmPNS4_10_Hash_nodeIS2_Lb0EEEm, symObjAddr: 0x80B0, symBinAddr: 0x10000A5CC, symSize: 0xE8 }
  - { offsetInCU: 0x438C9, offset: 0x438C9, size: 0x8, addend: 0x0, symName: __ZNSt10_HashtableIiSt4pairIKiiESaIS2_ENSt8__detail10_Select1stESt8equal_toIiESt4hashIiENS4_18_Mod_range_hashingENS4_20_Default_ranged_hashENS4_20_Prime_rehash_policyENS4_17_Hashtable_traitsILb0ELb0ELb1EEEE12_Scoped_nodeC1IJRKSt21piecewise_construct_tSt5tupleIJRS1_EESL_IJEEEEEPNS4_16_Hashtable_allocISaINS4_10_Hash_nodeIS2_Lb0EEEEEEDpOT_, symObjAddr: 0x7FE4, symBinAddr: 0x10000A500, symSize: 0x88 }
  - { offsetInCU: 0x438D1, offset: 0x438D1, size: 0x8, addend: 0x0, symName: __ZNSt10_HashtableIiSt4pairIKiiESaIS2_ENSt8__detail10_Select1stESt8equal_toIiESt4hashIiENS4_18_Mod_range_hashingENS4_20_Default_ranged_hashENS4_20_Prime_rehash_policyENS4_17_Hashtable_traitsILb0ELb0ELb1EEEE12_Scoped_nodeD1Ev, symObjAddr: 0x806C, symBinAddr: 0x10000A588, symSize: 0x44 }
  - { offsetInCU: 0x43862, offset: 0x43862, size: 0x8, addend: 0x0, symName: __ZNSt5tupleIJRKiEEC1ILb1ELb1EEES1_, symObjAddr: 0x7FBC, symBinAddr: 0x10000A4D8, symSize: 0x28 }
  - { offsetInCU: 0x4386A, offset: 0x4386A, size: 0x8, addend: 0x0, symName: __ZNSt10_HashtableIiSt4pairIKiiESaIS2_ENSt8__detail10_Select1stESt8equal_toIiESt4hashIiENS4_18_Mod_range_hashingENS4_20_Default_ranged_hashENS4_20_Prime_rehash_policyENS4_17_Hashtable_traitsILb0ELb0ELb1EEEE12_Scoped_nodeC1IJRKSt21piecewise_construct_tSt5tupleIJRS1_EESL_IJEEEEEPNS4_16_Hashtable_allocISaINS4_10_Hash_nodeIS2_Lb0EEEEEEDpOT_, symObjAddr: 0x7FE4, symBinAddr: 0x10000A500, symSize: 0x88 }
  - { offsetInCU: 0x4388B, offset: 0x4388B, size: 0x8, addend: 0x0, symName: __ZNSt8__detail21_Hash_node_value_baseISt4pairIKiiEE4_M_vEv, symObjAddr: 0x7FA0, symBinAddr: 0x10000A4BC, symSize: 0x1C }
  - { offsetInCU: 0x43893, offset: 0x43893, size: 0x8, addend: 0x0, symName: __ZNSt5tupleIJRKiEEC1ILb1ELb1EEES1_, symObjAddr: 0x7FBC, symBinAddr: 0x10000A4D8, symSize: 0x28 }
  - { offsetInCU: 0x438BA, offset: 0x438BA, size: 0x8, addend: 0x0, symName: __ZNKSt8__detail14_Node_iteratorISt4pairIKNSt7__cxx1112basic_stringIcSt11char_traitsIcESaIcEEEiELb0ELb1EEptEv, symObjAddr: 0x7F7C, symBinAddr: 0x10000A498, symSize: 0x24 }
  - { offsetInCU: 0x438C2, offset: 0x438C2, size: 0x8, addend: 0x0, symName: __ZNSt8__detail21_Hash_node_value_baseISt4pairIKiiEE4_M_vEv, symObjAddr: 0x7FA0, symBinAddr: 0x10000A4BC, symSize: 0x1C }
  - { offsetInCU: 0x438E9, offset: 0x438E9, size: 0x8, addend: 0x0, symName: __ZNSt10_HashtableINSt7__cxx1112basic_stringIcSt11char_traitsIcESaIcEEESt4pairIKS5_iESaIS8_ENSt8__detail10_Select1stESt8equal_toIS5_ESt4hashIS5_ENSA_18_Mod_range_hashingENSA_20_Default_ranged_hashENSA_20_Prime_rehash_policyENSA_17_Hashtable_traitsILb1ELb0ELb1EEEE21_M_insert_unique_nodeEmmPNSA_10_Hash_nodeIS8_Lb1EEEm, symObjAddr: 0x7E94, symBinAddr: 0x10000A3B0, symSize: 0xE8 }
  - { offsetInCU: 0x438F1, offset: 0x438F1, size: 0x8, addend: 0x0, symName: __ZNKSt8__detail14_Node_iteratorISt4pairIKNSt7__cxx1112basic_stringIcSt11char_traitsIcESaIcEEEiELb0ELb1EEptEv, symObjAddr: 0x7F7C, symBinAddr: 0x10000A498, symSize: 0x24 }
  - { offsetInCU: 0x43ADC, offset: 0x43ADC, size: 0x8, addend: 0x0, symName: __ZNSt10_HashtableINSt7__cxx1112basic_stringIcSt11char_traitsIcESaIcEEESt4pairIKS5_iESaIS8_ENSt8__detail10_Select1stESt8equal_toIS5_ESt4hashIS5_ENSA_18_Mod_range_hashingENSA_20_Default_ranged_hashENSA_20_Prime_rehash_policyENSA_17_Hashtable_traitsILb1ELb0ELb1EEEE12_Scoped_nodeD1Ev, symObjAddr: 0x7E50, symBinAddr: 0x10000A36C, symSize: 0x44 }
  - { offsetInCU: 0x43AE4, offset: 0x43AE4, size: 0x8, addend: 0x0, symName: __ZNSt10_HashtableINSt7__cxx1112basic_stringIcSt11char_traitsIcESaIcEEESt4pairIKS5_iESaIS8_ENSt8__detail10_Select1stESt8equal_toIS5_ESt4hashIS5_ENSA_18_Mod_range_hashingENSA_20_Default_ranged_hashENSA_20_Prime_rehash_policyENSA_17_Hashtable_traitsILb1ELb0ELb1EEEE21_M_insert_unique_nodeEmmPNSA_10_Hash_nodeIS8_Lb1EEEm, symObjAddr: 0x7E94, symBinAddr: 0x10000A3B0, symSize: 0xE8 }
  - { offsetInCU: 0x43BEE, offset: 0x43BEE, size: 0x8, addend: 0x0, symName: __ZNSt10_HashtableINSt7__cxx1112basic_stringIcSt11char_traitsIcESaIcEEESt4pairIKS5_iESaIS8_ENSt8__detail10_Select1stESt8equal_toIS5_ESt4hashIS5_ENSA_18_Mod_range_hashingENSA_20_Default_ranged_hashENSA_20_Prime_rehash_policyENSA_17_Hashtable_traitsILb1ELb0ELb1EEEE12_Scoped_nodeC1IJRKSt21piecewise_construct_tSt5tupleIJRS7_EESR_IJEEEEEPNSA_16_Hashtable_allocISaINSA_10_Hash_nodeIS8_Lb1EEEEEEDpOT_, symObjAddr: 0x7DC8, symBinAddr: 0x10000A2E4, symSize: 0x88 }
  - { offsetInCU: 0x43BF6, offset: 0x43BF6, size: 0x8, addend: 0x0, symName: __ZNSt10_HashtableINSt7__cxx1112basic_stringIcSt11char_traitsIcESaIcEEESt4pairIKS5_iESaIS8_ENSt8__detail10_Select1stESt8equal_toIS5_ESt4hashIS5_ENSA_18_Mod_range_hashingENSA_20_Default_ranged_hashENSA_20_Prime_rehash_policyENSA_17_Hashtable_traitsILb1ELb0ELb1EEEE12_Scoped_nodeD1Ev, symObjAddr: 0x7E50, symBinAddr: 0x10000A36C, symSize: 0x44 }
  - { offsetInCU: 0x43B81, offset: 0x43B81, size: 0x8, addend: 0x0, symName: __ZNSt5tupleIJRKNSt7__cxx1112basic_stringIcSt11char_traitsIcESaIcEEEEEC1ILb1ELb1EEES7_, symObjAddr: 0x7DA0, symBinAddr: 0x10000A2BC, symSize: 0x28 }
  - { offsetInCU: 0x43B89, offset: 0x43B89, size: 0x8, addend: 0x0, symName: __ZNSt10_HashtableINSt7__cxx1112basic_stringIcSt11char_traitsIcESaIcEEESt4pairIKS5_iESaIS8_ENSt8__detail10_Select1stESt8equal_toIS5_ESt4hashIS5_ENSA_18_Mod_range_hashingENSA_20_Default_ranged_hashENSA_20_Prime_rehash_policyENSA_17_Hashtable_traitsILb1ELb0ELb1EEEE12_Scoped_nodeC1IJRKSt21piecewise_construct_tSt5tupleIJRS7_EESR_IJEEEEEPNSA_16_Hashtable_allocISaINSA_10_Hash_nodeIS8_Lb1EEEEEEDpOT_, symObjAddr: 0x7DC8, symBinAddr: 0x10000A2E4, symSize: 0x88 }
  - { offsetInCU: 0x43B77, offset: 0x43B77, size: 0x8, addend: 0x0, symName: __ZNSt8__detail21_Hash_node_value_baseISt4pairIKNSt7__cxx1112basic_stringIcSt11char_traitsIcESaIcEEEiEE4_M_vEv, symObjAddr: 0x7D84, symBinAddr: 0x10000A2A0, symSize: 0x1C }
  - { offsetInCU: 0x43B7F, offset: 0x43B7F, size: 0x8, addend: 0x0, symName: __ZNSt5tupleIJRKNSt7__cxx1112basic_stringIcSt11char_traitsIcESaIcEEEEEC1ILb1ELb1EEES7_, symObjAddr: 0x7DA0, symBinAddr: 0x10000A2BC, symSize: 0x28 }
  - { offsetInCU: 0x43BF1, offset: 0x43BF1, size: 0x8, addend: 0x0, symName: __ZSt8_DestroyIPiEvT_S1_, symObjAddr: 0x7D5C, symBinAddr: 0x10000A278, symSize: 0x28 }
  - { offsetInCU: 0x43BF9, offset: 0x43BF9, size: 0x8, addend: 0x0, symName: __ZNSt8__detail21_Hash_node_value_baseISt4pairIKNSt7__cxx1112basic_stringIcSt11char_traitsIcESaIcEEEiEE4_M_vEv, symObjAddr: 0x7D84, symBinAddr: 0x10000A2A0, symSize: 0x1C }
  - { offsetInCU: 0x43CFB, offset: 0x43CFB, size: 0x8, addend: 0x0, symName: __ZNSt8__detail14_Node_iteratorISt4pairIKiiELb0ELb0EEC1EPNS_10_Hash_nodeIS3_Lb0EEE, symObjAddr: 0x7D34, symBinAddr: 0x10000A250, symSize: 0x28 }
  - { offsetInCU: 0x43D03, offset: 0x43D03, size: 0x8, addend: 0x0, symName: __ZSt8_DestroyIPiEvT_S1_, symObjAddr: 0x7D5C, symBinAddr: 0x10000A278, symSize: 0x28 }
  - { offsetInCU: 0x43CE6, offset: 0x43CE6, size: 0x8, addend: 0x0, symName: __ZNKSt10_HashtableIiSt4pairIKiiESaIS2_ENSt8__detail10_Select1stESt8equal_toIiESt4hashIiENS4_18_Mod_range_hashingENS4_20_Default_ranged_hashENS4_20_Prime_rehash_policyENS4_17_Hashtable_traitsILb0ELb0ELb1EEEE12_M_find_nodeEmRS1_m, symObjAddr: 0x7CE0, symBinAddr: 0x10000A1FC, symSize: 0x54 }
  - { offsetInCU: 0x43CEE, offset: 0x43CEE, size: 0x8, addend: 0x0, symName: __ZNSt8__detail14_Node_iteratorISt4pairIKiiELb0ELb0EEC1EPNS_10_Hash_nodeIS3_Lb0EEE, symObjAddr: 0x7D34, symBinAddr: 0x10000A250, symSize: 0x28 }
  - { offsetInCU: 0x43D69, offset: 0x43D69, size: 0x8, addend: 0x0, symName: __ZNKSt10_HashtableIiSt4pairIKiiESaIS2_ENSt8__detail10_Select1stESt8equal_toIiESt4hashIiENS4_18_Mod_range_hashingENS4_20_Default_ranged_hashENS4_20_Prime_rehash_policyENS4_17_Hashtable_traitsILb0ELb0ELb1EEEE15_M_bucket_indexEm, symObjAddr: 0x7CB0, symBinAddr: 0x10000A1CC, symSize: 0x30 }
  - { offsetInCU: 0x43D71, offset: 0x43D71, size: 0x8, addend: 0x0, symName: __ZNKSt10_HashtableIiSt4pairIKiiESaIS2_ENSt8__detail10_Select1stESt8equal_toIiESt4hashIiENS4_18_Mod_range_hashingENS4_20_Default_ranged_hashENS4_20_Prime_rehash_policyENS4_17_Hashtable_traitsILb0ELb0ELb1EEEE12_M_find_nodeEmRS1_m, symObjAddr: 0x7CE0, symBinAddr: 0x10000A1FC, symSize: 0x54 }
  - { offsetInCU: 0x43DAD, offset: 0x43DAD, size: 0x8, addend: 0x0, symName: __ZNKSt8__detail15_Hash_code_baseIiSt4pairIKiiENS_10_Select1stESt4hashIiENS_18_Mod_range_hashingENS_20_Default_ranged_hashELb0EE12_M_hash_codeERS2_, symObjAddr: 0x7C78, symBinAddr: 0x10000A194, symSize: 0x38 }
  - { offsetInCU: 0x43DB5, offset: 0x43DB5, size: 0x8, addend: 0x0, symName: __ZNKSt10_HashtableIiSt4pairIKiiESaIS2_ENSt8__detail10_Select1stESt8equal_toIiESt4hashIiENS4_18_Mod_range_hashingENS4_20_Default_ranged_hashENS4_20_Prime_rehash_policyENS4_17_Hashtable_traitsILb0ELb0ELb1EEEE15_M_bucket_indexEm, symObjAddr: 0x7CB0, symBinAddr: 0x10000A1CC, symSize: 0x30 }
  - { offsetInCU: 0x43DF1, offset: 0x43DF1, size: 0x8, addend: 0x0, symName: __ZNKSt8__detail15_Hashtable_baseIiSt4pairIKiiENS_10_Select1stESt8equal_toIiESt4hashIiENS_18_Mod_range_hashingENS_20_Default_ranged_hashENS_17_Hashtable_traitsILb0ELb0ELb1EEEE13_M_key_equalsERS2_RKNS_16_Hash_node_valueIS3_Lb0EEE, symObjAddr: 0x7C20, symBinAddr: 0x10000A13C, symSize: 0x58 }
  - { offsetInCU: 0x43DF9, offset: 0x43DF9, size: 0x8, addend: 0x0, symName: __ZNKSt8__detail15_Hash_code_baseIiSt4pairIKiiENS_10_Select1stESt4hashIiENS_18_Mod_range_hashingENS_20_Default_ranged_hashELb0EE12_M_hash_codeERS2_, symObjAddr: 0x7C78, symBinAddr: 0x10000A194, symSize: 0x38 }
  - { offsetInCU: 0x43E4A, offset: 0x43E4A, size: 0x8, addend: 0x0, symName: __ZNSt8__detail14_Node_iteratorISt4pairIKiiELb0ELb0EEppEv, symObjAddr: 0x7C00, symBinAddr: 0x10000A11C, symSize: 0x20 }
  - { offsetInCU: 0x43E52, offset: 0x43E52, size: 0x8, addend: 0x0, symName: __ZNKSt8__detail15_Hashtable_baseIiSt4pairIKiiENS_10_Select1stESt8equal_toIiESt4hashIiENS_18_Mod_range_hashingENS_20_Default_ranged_hashENS_17_Hashtable_traitsILb0ELb0ELb1EEEE13_M_key_equalsERS2_RKNS_16_Hash_node_valueIS3_Lb0EEE, symObjAddr: 0x7C20, symBinAddr: 0x10000A13C, symSize: 0x58 }
  - { offsetInCU: 0x43E79, offset: 0x43E79, size: 0x8, addend: 0x0, symName: __ZNSt10_HashtableIiSt4pairIKiiESaIS2_ENSt8__detail10_Select1stESt8equal_toIiESt4hashIiENS4_18_Mod_range_hashingENS4_20_Default_ranged_hashENS4_20_Prime_rehash_policyENS4_17_Hashtable_traitsILb0ELb0ELb1EEEE5beginEv, symObjAddr: 0x7BD4, symBinAddr: 0x10000A0F0, symSize: 0x2C }
  - { offsetInCU: 0x43E81, offset: 0x43E81, size: 0x8, addend: 0x0, symName: __ZNSt8__detail14_Node_iteratorISt4pairIKiiELb0ELb0EEppEv, symObjAddr: 0x7C00, symBinAddr: 0x10000A11C, symSize: 0x20 }
  - { offsetInCU: 0x43EA9, offset: 0x43EA9, size: 0x8, addend: 0x0, symName: __ZNSt10_HashtableIiSt4pairIKiiESaIS2_ENSt8__detail10_Select1stESt8equal_toIiESt4hashIiENS4_18_Mod_range_hashingENS4_20_Default_ranged_hashENS4_20_Prime_rehash_policyENS4_17_Hashtable_traitsILb0ELb0ELb1EEEE22__small_size_thresholdEv, symObjAddr: 0x7BC0, symBinAddr: 0x10000A0DC, symSize: 0x14 }
  - { offsetInCU: 0x43EB1, offset: 0x43EB1, size: 0x8, addend: 0x0, symName: __ZNSt10_HashtableIiSt4pairIKiiESaIS2_ENSt8__detail10_Select1stESt8equal_toIiESt4hashIiENS4_18_Mod_range_hashingENS4_20_Default_ranged_hashENS4_20_Prime_rehash_policyENS4_17_Hashtable_traitsILb0ELb0ELb1EEEE5beginEv, symObjAddr: 0x7BD4, symBinAddr: 0x10000A0F0, symSize: 0x2C }
  - { offsetInCU: 0x43EC6, offset: 0x43EC6, size: 0x8, addend: 0x0, symName: __ZNKSt10_HashtableIiSt4pairIKiiESaIS2_ENSt8__detail10_Select1stESt8equal_toIiESt4hashIiENS4_18_Mod_range_hashingENS4_20_Default_ranged_hashENS4_20_Prime_rehash_policyENS4_17_Hashtable_traitsILb0ELb0ELb1EEEE4sizeEv, symObjAddr: 0x7BA8, symBinAddr: 0x10000A0C4, symSize: 0x18 }
  - { offsetInCU: 0x43ECE, offset: 0x43ECE, size: 0x8, addend: 0x0, symName: __ZNSt10_HashtableIiSt4pairIKiiESaIS2_ENSt8__detail10_Select1stESt8equal_toIiESt4hashIiENS4_18_Mod_range_hashingENS4_20_Default_ranged_hashENS4_20_Prime_rehash_policyENS4_17_Hashtable_traitsILb0ELb0ELb1EEEE22__small_size_thresholdEv, symObjAddr: 0x7BC0, symBinAddr: 0x10000A0DC, symSize: 0x14 }
  - { offsetInCU: 0x43FA7, offset: 0x43FA7, size: 0x8, addend: 0x0, symName: __ZNSt8__detail14_Node_iteratorISt4pairIKNSt7__cxx1112basic_stringIcSt11char_traitsIcESaIcEEEiELb0ELb1EEC1EPNS_10_Hash_nodeIS9_Lb1EEE, symObjAddr: 0x7B80, symBinAddr: 0x10000A09C, symSize: 0x28 }
  - { offsetInCU: 0x43FAF, offset: 0x43FAF, size: 0x8, addend: 0x0, symName: __ZNKSt10_HashtableIiSt4pairIKiiESaIS2_ENSt8__detail10_Select1stESt8equal_toIiESt4hashIiENS4_18_Mod_range_hashingENS4_20_Default_ranged_hashENS4_20_Prime_rehash_policyENS4_17_Hashtable_traitsILb0ELb0ELb1EEEE4sizeEv, symObjAddr: 0x7BA8, symBinAddr: 0x10000A0C4, symSize: 0x18 }
  - { offsetInCU: 0x43F5F, offset: 0x43F5F, size: 0x8, addend: 0x0, symName: __ZNKSt10_HashtableINSt7__cxx1112basic_stringIcSt11char_traitsIcESaIcEEESt4pairIKS5_iESaIS8_ENSt8__detail10_Select1stESt8equal_toIS5_ESt4hashIS5_ENSA_18_Mod_range_hashingENSA_20_Default_ranged_hashENSA_20_Prime_rehash_policyENSA_17_Hashtable_traitsILb1ELb0ELb1EEEE12_M_find_nodeEmRS7_m, symObjAddr: 0x7B2C, symBinAddr: 0x10000A048, symSize: 0x54 }
  - { offsetInCU: 0x43F67, offset: 0x43F67, size: 0x8, addend: 0x0, symName: __ZNSt8__detail14_Node_iteratorISt4pairIKNSt7__cxx1112basic_stringIcSt11char_traitsIcESaIcEEEiELb0ELb1EEC1EPNS_10_Hash_nodeIS9_Lb1EEE, symObjAddr: 0x7B80, symBinAddr: 0x10000A09C, symSize: 0x28 }
  - { offsetInCU: 0x43FE2, offset: 0x43FE2, size: 0x8, addend: 0x0, symName: __ZNKSt10_HashtableINSt7__cxx1112basic_stringIcSt11char_traitsIcESaIcEEESt4pairIKS5_iESaIS8_ENSt8__detail10_Select1stESt8equal_toIS5_ESt4hashIS5_ENSA_18_Mod_range_hashingENSA_20_Default_ranged_hashENSA_20_Prime_rehash_policyENSA_17_Hashtable_traitsILb1ELb0ELb1EEEE15_M_bucket_indexEm, symObjAddr: 0x7AFC, symBinAddr: 0x10000A018, symSize: 0x30 }
  - { offsetInCU: 0x43FEA, offset: 0x43FEA, size: 0x8, addend: 0x0, symName: __ZNKSt10_HashtableINSt7__cxx1112basic_stringIcSt11char_traitsIcESaIcEEESt4pairIKS5_iESaIS8_ENSt8__detail10_Select1stESt8equal_toIS5_ESt4hashIS5_ENSA_18_Mod_range_hashingENSA_20_Default_ranged_hashENSA_20_Prime_rehash_policyENSA_17_Hashtable_traitsILb1ELb0ELb1EEEE12_M_find_nodeEmRS7_m, symObjAddr: 0x7B2C, symBinAddr: 0x10000A048, symSize: 0x54 }
  - { offsetInCU: 0x44026, offset: 0x44026, size: 0x8, addend: 0x0, symName: __ZNKSt8__detail15_Hash_code_baseINSt7__cxx1112basic_stringIcSt11char_traitsIcESaIcEEESt4pairIKS6_iENS_10_Select1stESt4hashIS6_ENS_18_Mod_range_hashingENS_20_Default_ranged_hashELb1EE12_M_hash_codeERS8_, symObjAddr: 0x7AD4, symBinAddr: 0x100009FF0, symSize: 0x28 }
  - { offsetInCU: 0x4402E, offset: 0x4402E, size: 0x8, addend: 0x0, symName: __ZNKSt10_HashtableINSt7__cxx1112basic_stringIcSt11char_traitsIcESaIcEEESt4pairIKS5_iESaIS8_ENSt8__detail10_Select1stESt8equal_toIS5_ESt4hashIS5_ENSA_18_Mod_range_hashingENSA_20_Default_ranged_hashENSA_20_Prime_rehash_policyENSA_17_Hashtable_traitsILb1ELb0ELb1EEEE15_M_bucket_indexEm, symObjAddr: 0x7AFC, symBinAddr: 0x10000A018, symSize: 0x30 }
  - { offsetInCU: 0x4406A, offset: 0x4406A, size: 0x8, addend: 0x0, symName: __ZNKSt8__detail15_Hashtable_baseINSt7__cxx1112basic_stringIcSt11char_traitsIcESaIcEEESt4pairIKS6_iENS_10_Select1stESt8equal_toIS6_ESt4hashIS6_ENS_18_Mod_range_hashingENS_20_Default_ranged_hashENS_17_Hashtable_traitsILb1ELb0ELb1EEEE13_M_key_equalsERS8_RKNS_16_Hash_node_valueIS9_Lb1EEE, symObjAddr: 0x7A7C, symBinAddr: 0x100009F98, symSize: 0x58 }
  - { offsetInCU: 0x44072, offset: 0x44072, size: 0x8, addend: 0x0, symName: __ZNKSt8__detail15_Hash_code_baseINSt7__cxx1112basic_stringIcSt11char_traitsIcESaIcEEESt4pairIKS6_iENS_10_Select1stESt4hashIS6_ENS_18_Mod_range_hashingENS_20_Default_ranged_hashELb1EE12_M_hash_codeERS8_, symObjAddr: 0x7AD4, symBinAddr: 0x100009FF0, symSize: 0x28 }
  - { offsetInCU: 0x44123, offset: 0x44123, size: 0x8, addend: 0x0, symName: __ZSt18uninitialized_copyIP8BookItemS1_ET0_T_S3_S2_, symObjAddr: 0x7A48, symBinAddr: 0x100009F64, symSize: 0x34 }
  - { offsetInCU: 0x4412B, offset: 0x4412B, size: 0x8, addend: 0x0, symName: __ZNKSt8__detail15_Hashtable_baseINSt7__cxx1112basic_stringIcSt11char_traitsIcESaIcEEESt4pairIKS6_iENS_10_Select1stESt8equal_toIS6_ESt4hashIS6_ENS_18_Mod_range_hashingENS_20_Default_ranged_hashENS_17_Hashtable_traitsILb1ELb0ELb1EEEE13_M_key_equalsERS8_RKNS_16_Hash_node_valueIS9_Lb1EEE, symObjAddr: 0x7A7C, symBinAddr: 0x100009F98, symSize: 0x58 }
  - { offsetInCU: 0x441C9, offset: 0x441C9, size: 0x8, addend: 0x0, symName: __ZSt13__copy_move_aILb0EP8BookItemS1_ET1_T0_S3_S2_, symObjAddr: 0x79E8, symBinAddr: 0x100009F04, symSize: 0x60 }
  - { offsetInCU: 0x441D1, offset: 0x441D1, size: 0x8, addend: 0x0, symName: __ZSt18uninitialized_copyIP8BookItemS1_ET0_T_S3_S2_, symObjAddr: 0x7A48, symBinAddr: 0x100009F64, symSize: 0x34 }
  - { offsetInCU: 0x4423A, offset: 0x4423A, size: 0x8, addend: 0x0, symName: __ZSt12__miter_baseIP8BookItemET_S2_, symObjAddr: 0x79D4, symBinAddr: 0x100009EF0, symSize: 0x14 }
  - { offsetInCU: 0x44242, offset: 0x44242, size: 0x8, addend: 0x0, symName: __ZSt13__copy_move_aILb0EP8BookItemS1_ET1_T0_S3_S2_, symObjAddr: 0x79E8, symBinAddr: 0x100009F04, symSize: 0x60 }
  - { offsetInCU: 0x442E8, offset: 0x442E8, size: 0x8, addend: 0x0, symName: __ZSt8_DestroyIN9__gnu_cxx17__normal_iteratorIP8BookItemSt6vectorIS2_SaIS2_EEEEEvT_S8_, symObjAddr: 0x79AC, symBinAddr: 0x100009EC8, symSize: 0x28 }
  - { offsetInCU: 0x442F0, offset: 0x442F0, size: 0x8, addend: 0x0, symName: __ZSt12__miter_baseIP8BookItemET_S2_, symObjAddr: 0x79D4, symBinAddr: 0x100009EF0, symSize: 0x14 }
  - { offsetInCU: 0x443B4, offset: 0x443B4, size: 0x8, addend: 0x0, symName: __ZSt13__copy_move_aILb0EN9__gnu_cxx17__normal_iteratorIPK8BookItemSt6vectorIS2_SaIS2_EEEENS1_IPS2_S7_EEET1_T0_SC_SB_, symObjAddr: 0x794C, symBinAddr: 0x100009E68, symSize: 0x60 }
  - { offsetInCU: 0x443BC, offset: 0x443BC, size: 0x8, addend: 0x0, symName: __ZSt8_DestroyIN9__gnu_cxx17__normal_iteratorIP8BookItemSt6vectorIS2_SaIS2_EEEEEvT_S8_, symObjAddr: 0x79AC, symBinAddr: 0x100009EC8, symSize: 0x28 }
  - { offsetInCU: 0x443E4, offset: 0x443E4, size: 0x8, addend: 0x0, symName: __ZSt12__miter_baseIN9__gnu_cxx17__normal_iteratorIPK8BookItemSt6vectorIS2_SaIS2_EEEEET_S9_, symObjAddr: 0x7938, symBinAddr: 0x100009E54, symSize: 0x14 }
  - { offsetInCU: 0x443EC, offset: 0x443EC, size: 0x8, addend: 0x0, symName: __ZSt13__copy_move_aILb0EN9__gnu_cxx17__normal_iteratorIPK8BookItemSt6vectorIS2_SaIS2_EEEENS1_IPS2_S7_EEET1_T0_SC_SB_, symObjAddr: 0x794C, symBinAddr: 0x100009E68, symSize: 0x60 }
  - { offsetInCU: 0x4446F, offset: 0x4446F, size: 0x8, addend: 0x0, symName: __ZSt22__uninitialized_copy_aIN9__gnu_cxx17__normal_iteratorIPK8BookItemSt6vectorIS2_SaIS2_EEEEPS2_S2_ET0_T_SB_SA_RSaIT1_E, symObjAddr: 0x7908, symBinAddr: 0x100009E24, symSize: 0x30 }
  - { offsetInCU: 0x44477, offset: 0x44477, size: 0x8, addend: 0x0, symName: __ZSt12__miter_baseIN9__gnu_cxx17__normal_iteratorIPK8BookItemSt6vectorIS2_SaIS2_EEEEET_S9_, symObjAddr: 0x7938, symBinAddr: 0x100009E54, symSize: 0x14 }
  - { offsetInCU: 0x44493, offset: 0x44493, size: 0x8, addend: 0x0, symName: __ZN9__gnu_cxx17__normal_iteratorIPK8BookItemSt6vectorIS1_SaIS1_EEEC1ERKS3_, symObjAddr: 0x78E0, symBinAddr: 0x100009DFC, symSize: 0x28 }
  - { offsetInCU: 0x4449B, offset: 0x4449B, size: 0x8, addend: 0x0, symName: __ZSt22__uninitialized_copy_aIN9__gnu_cxx17__normal_iteratorIPK8BookItemSt6vectorIS2_SaIS2_EEEEPS2_S2_ET0_T_SB_SA_RSaIT1_E, symObjAddr: 0x7908, symBinAddr: 0x100009E24, symSize: 0x30 }
  - { offsetInCU: 0x44485, offset: 0x44485, size: 0x8, addend: 0x0, symName: __ZNSt6vectorI4RackSaIS0_EE11_S_relocateEPS0_S3_S3_RS1_, symObjAddr: 0x78AC, symBinAddr: 0x100009DC8, symSize: 0x34 }
  - { offsetInCU: 0x4448D, offset: 0x4448D, size: 0x8, addend: 0x0, symName: __ZN9__gnu_cxx17__normal_iteratorIPK8BookItemSt6vectorIS1_SaIS1_EEEC1ERKS3_, symObjAddr: 0x78E0, symBinAddr: 0x100009DFC, symSize: 0x28 }
  - { offsetInCU: 0x444F7, offset: 0x444F7, size: 0x8, addend: 0x0, symName: __ZNSt12_Vector_baseI4RackSaIS0_EE11_M_allocateEm, symObjAddr: 0x785C, symBinAddr: 0x100009D78, symSize: 0x50 }
  - { offsetInCU: 0x444FF, offset: 0x444FF, size: 0x8, addend: 0x0, symName: __ZNSt6vectorI4RackSaIS0_EE11_S_relocateEPS0_S3_S3_RS1_, symObjAddr: 0x78AC, symBinAddr: 0x100009DC8, symSize: 0x34 }
  - { offsetInCU: 0x44570, offset: 0x44570, size: 0x8, addend: 0x0, symName: __ZNKSt6vectorI4RackSaIS0_EE12_M_check_lenEmPKc, symObjAddr: 0x778C, symBinAddr: 0x100009CA8, symSize: 0xD0 }
  - { offsetInCU: 0x44578, offset: 0x44578, size: 0x8, addend: 0x0, symName: __ZNSt12_Vector_baseI4RackSaIS0_EE11_M_allocateEm, symObjAddr: 0x785C, symBinAddr: 0x100009D78, symSize: 0x50 }
  - { offsetInCU: 0x4465D, offset: 0x4465D, size: 0x8, addend: 0x0, symName: __ZSt27__uninitialized_default_n_aIP4RackmS0_ET_S2_T0_RSaIT1_E, symObjAddr: 0x7764, symBinAddr: 0x100009C80, symSize: 0x28 }
  - { offsetInCU: 0x44665, offset: 0x44665, size: 0x8, addend: 0x0, symName: __ZNKSt6vectorI4RackSaIS0_EE12_M_check_lenEmPKc, symObjAddr: 0x778C, symBinAddr: 0x100009CA8, symSize: 0xD0 }
  - { offsetInCU: 0x44667, offset: 0x44667, size: 0x8, addend: 0x0, symName: __ZNKSt6vectorI4RackSaIS0_EE8max_sizeEv, symObjAddr: 0x7744, symBinAddr: 0x100009C60, symSize: 0x20 }
  - { offsetInCU: 0x4466F, offset: 0x4466F, size: 0x8, addend: 0x0, symName: __ZSt27__uninitialized_default_n_aIP4RackmS0_ET_S2_T0_RSaIT1_E, symObjAddr: 0x7764, symBinAddr: 0x100009C80, symSize: 0x28 }
  - { offsetInCU: 0x44696, offset: 0x44696, size: 0x8, addend: 0x0, symName: __ZNSt10_HashtableIiSt4pairIKiiESaIS2_ENSt8__detail10_Select1stESt8equal_toIiESt4hashIiENS4_18_Mod_range_hashingENS4_20_Default_ranged_hashENS4_20_Prime_rehash_policyENS4_17_Hashtable_traitsILb0ELb0ELb1EEEE21_M_deallocate_bucketsEPPNS4_15_Hash_node_baseEm, symObjAddr: 0x76F4, symBinAddr: 0x100009C10, symSize: 0x50 }
  - { offsetInCU: 0x4469E, offset: 0x4469E, size: 0x8, addend: 0x0, symName: __ZNKSt6vectorI4RackSaIS0_EE8max_sizeEv, symObjAddr: 0x7744, symBinAddr: 0x100009C60, symSize: 0x20 }
  - { offsetInCU: 0x446EF, offset: 0x446EF, size: 0x8, addend: 0x0, symName: __ZNSt8__detail16_Hashtable_allocISaINS_10_Hash_nodeISt4pairIKiiELb0EEEEE19_M_deallocate_nodesEPS5_, symObjAddr: 0x76A4, symBinAddr: 0x100009BC0, symSize: 0x50 }
  - { offsetInCU: 0x446F7, offset: 0x446F7, size: 0x8, addend: 0x0, symName: __ZNSt10_HashtableIiSt4pairIKiiESaIS2_ENSt8__detail10_Select1stESt8equal_toIiESt4hashIiENS4_18_Mod_range_hashingENS4_20_Default_ranged_hashENS4_20_Prime_rehash_policyENS4_17_Hashtable_traitsILb0ELb0ELb1EEEE21_M_deallocate_bucketsEPPNS4_15_Hash_node_baseEm, symObjAddr: 0x76F4, symBinAddr: 0x100009C10, symSize: 0x50 }
  - { offsetInCU: 0x4475B, offset: 0x4475B, size: 0x8, addend: 0x0, symName: __ZNKSt10_HashtableIiSt4pairIKiiESaIS2_ENSt8__detail10_Select1stESt8equal_toIiESt4hashIiENS4_18_Mod_range_hashingENS4_20_Default_ranged_hashENS4_20_Prime_rehash_policyENS4_17_Hashtable_traitsILb0ELb0ELb1EEEE8_M_beginEv, symObjAddr: 0x768C, symBinAddr: 0x100009BA8, symSize: 0x18 }
  - { offsetInCU: 0x44763, offset: 0x44763, size: 0x8, addend: 0x0, symName: __ZNSt8__detail16_Hashtable_allocISaINS_10_Hash_nodeISt4pairIKiiELb0EEEEE19_M_deallocate_nodesEPS5_, symObjAddr: 0x76A4, symBinAddr: 0x100009BC0, symSize: 0x50 }
  - { offsetInCU: 0x447A5, offset: 0x447A5, size: 0x8, addend: 0x0, symName: __ZNSt10_HashtableINSt7__cxx1112basic_stringIcSt11char_traitsIcESaIcEEESt4pairIKS5_iESaIS8_ENSt8__detail10_Select1stESt8equal_toIS5_ESt4hashIS5_ENSA_18_Mod_range_hashingENSA_20_Default_ranged_hashENSA_20_Prime_rehash_policyENSA_17_Hashtable_traitsILb1ELb0ELb1EEEE21_M_deallocate_bucketsEPPNSA_15_Hash_node_baseEm, symObjAddr: 0x763C, symBinAddr: 0x100009B58, symSize: 0x50 }
  - { offsetInCU: 0x447AD, offset: 0x447AD, size: 0x8, addend: 0x0, symName: __ZNKSt10_HashtableIiSt4pairIKiiESaIS2_ENSt8__detail10_Select1stESt8equal_toIiESt4hashIiENS4_18_Mod_range_hashingENS4_20_Default_ranged_hashENS4_20_Prime_rehash_policyENS4_17_Hashtable_traitsILb0ELb0ELb1EEEE8_M_beginEv, symObjAddr: 0x768C, symBinAddr: 0x100009BA8, symSize: 0x18 }
  - { offsetInCU: 0x447FE, offset: 0x447FE, size: 0x8, addend: 0x0, symName: __ZNSt8__detail16_Hashtable_allocISaINS_10_Hash_nodeISt4pairIKNSt7__cxx1112basic_stringIcSt11char_traitsIcESaIcEEEiELb1EEEEE19_M_deallocate_nodesEPSB_, symObjAddr: 0x75EC, symBinAddr: 0x100009B08, symSize: 0x50 }
  - { offsetInCU: 0x44806, offset: 0x44806, size: 0x8, addend: 0x0, symName: __ZNSt10_HashtableINSt7__cxx1112basic_stringIcSt11char_traitsIcESaIcEEESt4pairIKS5_iESaIS8_ENSt8__detail10_Select1stESt8equal_toIS5_ESt4hashIS5_ENSA_18_Mod_range_hashingENSA_20_Default_ranged_hashENSA_20_Prime_rehash_policyENSA_17_Hashtable_traitsILb1ELb0ELb1EEEE21_M_deallocate_bucketsEPPNSA_15_Hash_node_baseEm, symObjAddr: 0x763C, symBinAddr: 0x100009B58, symSize: 0x50 }
  - { offsetInCU: 0x4486A, offset: 0x4486A, size: 0x8, addend: 0x0, symName: __ZNKSt10_HashtableINSt7__cxx1112basic_stringIcSt11char_traitsIcESaIcEEESt4pairIKS5_iESaIS8_ENSt8__detail10_Select1stESt8equal_toIS5_ESt4hashIS5_ENSA_18_Mod_range_hashingENSA_20_Default_ranged_hashENSA_20_Prime_rehash_policyENSA_17_Hashtable_traitsILb1ELb0ELb1EEEE8_M_beginEv, symObjAddr: 0x75D4, symBinAddr: 0x100009AF0, symSize: 0x18 }
  - { offsetInCU: 0x44872, offset: 0x44872, size: 0x8, addend: 0x0, symName: __ZNSt8__detail16_Hashtable_allocISaINS_10_Hash_nodeISt4pairIKNSt7__cxx1112basic_stringIcSt11char_traitsIcESaIcEEEiELb1EEEEE19_M_deallocate_nodesEPSB_, symObjAddr: 0x75EC, symBinAddr: 0x100009B08, symSize: 0x50 }
  - { offsetInCU: 0x448B4, offset: 0x448B4, size: 0x8, addend: 0x0, symName: __ZNSt7__cxx1110_List_baseI11BookLendingSaIS1_EE11_M_put_nodeEPSt10_List_nodeIS1_E, symObjAddr: 0x758C, symBinAddr: 0x100009AA8, symSize: 0x48 }
  - { offsetInCU: 0x448BC, offset: 0x448BC, size: 0x8, addend: 0x0, symName: __ZNKSt10_HashtableINSt7__cxx1112basic_stringIcSt11char_traitsIcESaIcEEESt4pairIKS5_iESaIS8_ENSt8__detail10_Select1stESt8equal_toIS5_ESt4hashIS5_ENSA_18_Mod_range_hashingENSA_20_Default_ranged_hashENSA_20_Prime_rehash_policyENSA_17_Hashtable_traitsILb1ELb0ELb1EEEE8_M_beginEv, symObjAddr: 0x75D4, symBinAddr: 0x100009AF0, symSize: 0x18 }
  - { offsetInCU: 0x44977, offset: 0x44977, size: 0x8, addend: 0x0, symName: __ZNSt7__cxx1110_List_baseI11BookLendingSaIS1_EE21_M_get_Node_allocatorEv, symObjAddr: 0x7578, symBinAddr: 0x100009A94, symSize: 0x14 }
  - { offsetInCU: 0x4497F, offset: 0x4497F, size: 0x8, addend: 0x0, symName: __ZNSt7__cxx1110_List_baseI11BookLendingSaIS1_EE11_M_put_nodeEPSt10_List_nodeIS1_E, symObjAddr: 0x758C, symBinAddr: 0x100009AA8, symSize: 0x48 }
  - { offsetInCU: 0x449ED, offset: 0x449ED, size: 0x8, addend: 0x0, symName: __ZSt8_DestroyIP4RackEvT_S2_, symObjAddr: 0x7550, symBinAddr: 0x100009A6C, symSize: 0x28 }
  - { offsetInCU: 0x449F5, offset: 0x449F5, size: 0x8, addend: 0x0, symName: __ZNSt7__cxx1110_List_baseI11BookLendingSaIS1_EE21_M_get_Node_allocatorEv, symObjAddr: 0x7578, symBinAddr: 0x100009A94, symSize: 0x14 }
  - { offsetInCU: 0x44A73, offset: 0x44A73, size: 0x8, addend: 0x0, symName: __ZNSt6vectorISt4pairI8BookItemNSt7__cxx1112basic_stringIcSt11char_traitsIcESaIcEEEESaIS8_EE4backEv, symObjAddr: 0x7518, symBinAddr: 0x100009A34, symSize: 0x38 }
  - { offsetInCU: 0x44A7B, offset: 0x44A7B, size: 0x8, addend: 0x0, symName: __ZSt8_DestroyIP4RackEvT_S2_, symObjAddr: 0x7550, symBinAddr: 0x100009A6C, symSize: 0x28 }
  - { offsetInCU: 0x44AA2, offset: 0x44AA2, size: 0x8, addend: 0x0, symName: __ZNSt6vectorISt4pairI8BookItemNSt7__cxx1112basic_stringIcSt11char_traitsIcESaIcEEEESaIS8_EE17_M_realloc_insertIJS8_EEEvN9__gnu_cxx17__normal_iteratorIPS8_SA_EEDpOT_, symObjAddr: 0x7310, symBinAddr: 0x10000982C, symSize: 0x208 }
  - { offsetInCU: 0x44AAA, offset: 0x44AAA, size: 0x8, addend: 0x0, symName: __ZNSt6vectorISt4pairI8BookItemNSt7__cxx1112basic_stringIcSt11char_traitsIcESaIcEEEESaIS8_EE4backEv, symObjAddr: 0x7518, symBinAddr: 0x100009A34, symSize: 0x38 }
  - { offsetInCU: 0x44C11, offset: 0x44C11, size: 0x8, addend: 0x0, symName: __ZNSt6vectorISt4pairI8BookItemNSt7__cxx1112basic_stringIcSt11char_traitsIcESaIcEEEESaIS8_EE3endEv, symObjAddr: 0x72E8, symBinAddr: 0x100009804, symSize: 0x28 }
  - { offsetInCU: 0x44C19, offset: 0x44C19, size: 0x8, addend: 0x0, symName: __ZNSt6vectorISt4pairI8BookItemNSt7__cxx1112basic_stringIcSt11char_traitsIcESaIcEEEESaIS8_EE17_M_realloc_insertIJS8_EEEvN9__gnu_cxx17__normal_iteratorIPS8_SA_EEDpOT_, symObjAddr: 0x7310, symBinAddr: 0x10000982C, symSize: 0x208 }
  - { offsetInCU: 0x44D5A, offset: 0x44D5A, size: 0x8, addend: 0x0, symName: __ZSt7forwardISt4pairI8BookItemNSt7__cxx1112basic_stringIcSt11char_traitsIcESaIcEEEEEOT_RNSt16remove_referenceIS9_E4typeE, symObjAddr: 0x72D4, symBinAddr: 0x1000097F0, symSize: 0x14 }
  - { offsetInCU: 0x44D62, offset: 0x44D62, size: 0x8, addend: 0x0, symName: __ZNSt6vectorISt4pairI8BookItemNSt7__cxx1112basic_stringIcSt11char_traitsIcESaIcEEEESaIS8_EE3endEv, symObjAddr: 0x72E8, symBinAddr: 0x100009804, symSize: 0x28 }
  - { offsetInCU: 0x44D8F, offset: 0x44D8F, size: 0x8, addend: 0x0, symName: __ZSt8_DestroyIPSt4pairI8BookItemNSt7__cxx1112basic_stringIcSt11char_traitsIcESaIcEEEEEvT_SA_, symObjAddr: 0x72AC, symBinAddr: 0x1000097C8, symSize: 0x28 }
  - { offsetInCU: 0x44D97, offset: 0x44D97, size: 0x8, addend: 0x0, symName: __ZSt7forwardISt4pairI8BookItemNSt7__cxx1112basic_stringIcSt11char_traitsIcESaIcEEEEEOT_RNSt16remove_referenceIS9_E4typeE, symObjAddr: 0x72D4, symBinAddr: 0x1000097F0, symSize: 0x14 }
  - { offsetInCU: 0x44DDF, offset: 0x44DDF, size: 0x8, addend: 0x0, symName: __ZNK9__gnu_cxx17__normal_iteratorIP8BookItemSt6vectorIS1_SaIS1_EEE4baseEv, symObjAddr: 0x7298, symBinAddr: 0x1000097B4, symSize: 0x14 }
  - { offsetInCU: 0x44DE7, offset: 0x44DE7, size: 0x8, addend: 0x0, symName: __ZSt8_DestroyIPSt4pairI8BookItemNSt7__cxx1112basic_stringIcSt11char_traitsIcESaIcEEEEEvT_SA_, symObjAddr: 0x72AC, symBinAddr: 0x1000097C8, symSize: 0x28 }
  - { offsetInCU: 0x44E0E, offset: 0x44E0E, size: 0x8, addend: 0x0, symName: __ZNSt6vectorI8BookItemSaIS0_EE11_S_relocateEPS0_S3_S3_RS1_, symObjAddr: 0x7264, symBinAddr: 0x100009780, symSize: 0x34 }
  - { offsetInCU: 0x44E16, offset: 0x44E16, size: 0x8, addend: 0x0, symName: __ZNK9__gnu_cxx17__normal_iteratorIP8BookItemSt6vectorIS1_SaIS1_EEE4baseEv, symObjAddr: 0x7298, symBinAddr: 0x1000097B4, symSize: 0x14 }
  - { offsetInCU: 0x44E80, offset: 0x44E80, size: 0x8, addend: 0x0, symName: __ZNSt12_Vector_baseI8BookItemSaIS0_EE11_M_allocateEm, symObjAddr: 0x7214, symBinAddr: 0x100009730, symSize: 0x50 }
  - { offsetInCU: 0x44E88, offset: 0x44E88, size: 0x8, addend: 0x0, symName: __ZNSt6vectorI8BookItemSaIS0_EE11_S_relocateEPS0_S3_S3_RS1_, symObjAddr: 0x7264, symBinAddr: 0x100009780, symSize: 0x34 }
  - { offsetInCU: 0x44F94, offset: 0x44F94, size: 0x8, addend: 0x0, symName: __ZN9__gnu_cxxmiIP8BookItemSt6vectorIS1_SaIS1_EEEENS_17__normal_iteratorIT_T0_E15difference_typeERKS9_SC_, symObjAddr: 0x71C8, symBinAddr: 0x1000096E4, symSize: 0x4C }
  - { offsetInCU: 0x44F9C, offset: 0x44F9C, size: 0x8, addend: 0x0, symName: __ZNSt12_Vector_baseI8BookItemSaIS0_EE11_M_allocateEm, symObjAddr: 0x7214, symBinAddr: 0x100009730, symSize: 0x50 }
  - { offsetInCU: 0x44F69, offset: 0x44F69, size: 0x8, addend: 0x0, symName: __ZNKSt6vectorI8BookItemSaIS0_EE12_M_check_lenEmPKc, symObjAddr: 0x70F8, symBinAddr: 0x100009614, symSize: 0xD0 }
  - { offsetInCU: 0x44F71, offset: 0x44F71, size: 0x8, addend: 0x0, symName: __ZN9__gnu_cxxmiIP8BookItemSt6vectorIS1_SaIS1_EEEENS_17__normal_iteratorIT_T0_E15difference_typeERKS9_SC_, symObjAddr: 0x71C8, symBinAddr: 0x1000096E4, symSize: 0x4C }
  - { offsetInCU: 0x4504E, offset: 0x4504E, size: 0x8, addend: 0x0, symName: __ZN9__gnu_cxx17__normal_iteratorIP8BookItemSt6vectorIS1_SaIS1_EEEC1ERKS2_, symObjAddr: 0x70D0, symBinAddr: 0x1000095EC, symSize: 0x28 }
  - { offsetInCU: 0x45056, offset: 0x45056, size: 0x8, addend: 0x0, symName: __ZNKSt6vectorI8BookItemSaIS0_EE12_M_check_lenEmPKc, symObjAddr: 0x70F8, symBinAddr: 0x100009614, symSize: 0xD0 }
  - { offsetInCU: 0x450F2, offset: 0x450F2, size: 0x8, addend: 0x0, symName: __ZSt7forwardIRK8BookItemEOT_RNSt16remove_referenceIS3_E4typeE, symObjAddr: 0x70BC, symBinAddr: 0x1000095D8, symSize: 0x14 }
  - { offsetInCU: 0x450FA, offset: 0x450FA, size: 0x8, addend: 0x0, symName: __ZN9__gnu_cxx17__normal_iteratorIP8BookItemSt6vectorIS1_SaIS1_EEEC1ERKS2_, symObjAddr: 0x70D0, symBinAddr: 0x1000095EC, symSize: 0x28 }
  - { offsetInCU: 0x4511F, offset: 0x4511F, size: 0x8, addend: 0x0, symName: __ZSt8_DestroyIP8BookItemEvT_S2_, symObjAddr: 0x7094, symBinAddr: 0x1000095B0, symSize: 0x28 }
  - { offsetInCU: 0x45127, offset: 0x45127, size: 0x8, addend: 0x0, symName: __ZSt7forwardIRK8BookItemEOT_RNSt16remove_referenceIS3_E4typeE, symObjAddr: 0x70BC, symBinAddr: 0x1000095D8, symSize: 0x14 }
  - { offsetInCU: 0x452E5, offset: 0x452E5, size: 0x8, addend: 0x0, symName: __ZSt18uninitialized_copyIN9__gnu_cxx17__normal_iteratorIPKNSt7__cxx1112basic_stringIcSt11char_traitsIcESaIcEEESt6vectorIS7_SaIS7_EEEEPS7_ET0_T_SG_SF_, symObjAddr: 0x7060, symBinAddr: 0x10000957C, symSize: 0x34 }
  - { offsetInCU: 0x452ED, offset: 0x452ED, size: 0x8, addend: 0x0, symName: __ZSt8_DestroyIP8BookItemEvT_S2_, symObjAddr: 0x7094, symBinAddr: 0x1000095B0, symSize: 0x28 }
  - { offsetInCU: 0x45240, offset: 0x45240, size: 0x8, addend: 0x0, symName: __ZNSt12_Vector_baseINSt7__cxx1112basic_stringIcSt11char_traitsIcESaIcEEESaIS5_EE17_M_create_storageEm, symObjAddr: 0x7000, symBinAddr: 0x10000951C, symSize: 0x60 }
  - { offsetInCU: 0x45248, offset: 0x45248, size: 0x8, addend: 0x0, symName: __ZSt18uninitialized_copyIN9__gnu_cxx17__normal_iteratorIPKNSt7__cxx1112basic_stringIcSt11char_traitsIcESaIcEEESt6vectorIS7_SaIS7_EEEEPS7_ET0_T_SG_SF_, symObjAddr: 0x7060, symBinAddr: 0x10000957C, symSize: 0x34 }
  - { offsetInCU: 0x45317, offset: 0x45317, size: 0x8, addend: 0x0, symName: __ZNSt12_Vector_baseINSt7__cxx1112basic_stringIcSt11char_traitsIcESaIcEEESaIS5_EE12_Vector_implC1ERKS6_, symObjAddr: 0x6FB4, symBinAddr: 0x1000094D0, symSize: 0x4C }
  - { offsetInCU: 0x4531F, offset: 0x4531F, size: 0x8, addend: 0x0, symName: __ZNSt12_Vector_baseINSt7__cxx1112basic_stringIcSt11char_traitsIcESaIcEEESaIS5_EE17_M_create_storageEm, symObjAddr: 0x7000, symBinAddr: 0x10000951C, symSize: 0x60 }
  - { offsetInCU: 0x45430, offset: 0x45430, size: 0x8, addend: 0x0, symName: __ZSt18uninitialized_copyIPNSt7__cxx1112basic_stringIcSt11char_traitsIcESaIcEEES6_ET0_T_S8_S7_, symObjAddr: 0x6F80, symBinAddr: 0x10000949C, symSize: 0x34 }
  - { offsetInCU: 0x45438, offset: 0x45438, size: 0x8, addend: 0x0, symName: __ZNSt12_Vector_baseINSt7__cxx1112basic_stringIcSt11char_traitsIcESaIcEEESaIS5_EE12_Vector_implC1ERKS6_, symObjAddr: 0x6FB4, symBinAddr: 0x1000094D0, symSize: 0x4C }
  - { offsetInCU: 0x454D6, offset: 0x454D6, size: 0x8, addend: 0x0, symName: __ZSt13__copy_move_aILb0EPNSt7__cxx1112basic_stringIcSt11char_traitsIcESaIcEEES6_ET1_T0_S8_S7_, symObjAddr: 0x6F20, symBinAddr: 0x10000943C, symSize: 0x60 }
  - { offsetInCU: 0x454DE, offset: 0x454DE, size: 0x8, addend: 0x0, symName: __ZSt18uninitialized_copyIPNSt7__cxx1112basic_stringIcSt11char_traitsIcESaIcEEES6_ET0_T_S8_S7_, symObjAddr: 0x6F80, symBinAddr: 0x10000949C, symSize: 0x34 }
  - { offsetInCU: 0x4552F, offset: 0x4552F, size: 0x8, addend: 0x0, symName: __ZSt12__miter_baseIPNSt7__cxx1112basic_stringIcSt11char_traitsIcESaIcEEEET_S7_, symObjAddr: 0x6F0C, symBinAddr: 0x100009428, symSize: 0x14 }
  - { offsetInCU: 0x45537, offset: 0x45537, size: 0x8, addend: 0x0, symName: __ZSt13__copy_move_aILb0EPNSt7__cxx1112basic_stringIcSt11char_traitsIcESaIcEEES6_ET1_T0_S8_S7_, symObjAddr: 0x6F20, symBinAddr: 0x10000943C, symSize: 0x60 }
  - { offsetInCU: 0x455F6, offset: 0x455F6, size: 0x8, addend: 0x0, symName: __ZSt8_DestroyIN9__gnu_cxx17__normal_iteratorIPNSt7__cxx1112basic_stringIcSt11char_traitsIcESaIcEEESt6vectorIS7_SaIS7_EEEEEvT_SD_, symObjAddr: 0x6EE4, symBinAddr: 0x100009400, symSize: 0x28 }
  - { offsetInCU: 0x455FE, offset: 0x455FE, size: 0x8, addend: 0x0, symName: __ZSt12__miter_baseIPNSt7__cxx1112basic_stringIcSt11char_traitsIcESaIcEEEET_S7_, symObjAddr: 0x6F0C, symBinAddr: 0x100009428, symSize: 0x14 }
  - { offsetInCU: 0x456F3, offset: 0x456F3, size: 0x8, addend: 0x0, symName: __ZSt13__copy_move_aILb0EN9__gnu_cxx17__normal_iteratorIPKNSt7__cxx1112basic_stringIcSt11char_traitsIcESaIcEEESt6vectorIS7_SaIS7_EEEENS1_IPS7_SC_EEET1_T0_SH_SG_, symObjAddr: 0x6E84, symBinAddr: 0x1000093A0, symSize: 0x60 }
  - { offsetInCU: 0x456FB, offset: 0x456FB, size: 0x8, addend: 0x0, symName: __ZSt8_DestroyIN9__gnu_cxx17__normal_iteratorIPNSt7__cxx1112basic_stringIcSt11char_traitsIcESaIcEEESt6vectorIS7_SaIS7_EEEEEvT_SD_, symObjAddr: 0x6EE4, symBinAddr: 0x100009400, symSize: 0x28 }
  - { offsetInCU: 0x456F2, offset: 0x456F2, size: 0x8, addend: 0x0, symName: __ZSt12__miter_baseIN9__gnu_cxx17__normal_iteratorIPKNSt7__cxx1112basic_stringIcSt11char_traitsIcESaIcEEESt6vectorIS7_SaIS7_EEEEET_SE_, symObjAddr: 0x6E70, symBinAddr: 0x10000938C, symSize: 0x14 }
  - { offsetInCU: 0x456FA, offset: 0x456FA, size: 0x8, addend: 0x0, symName: __ZSt13__copy_move_aILb0EN9__gnu_cxx17__normal_iteratorIPKNSt7__cxx1112basic_stringIcSt11char_traitsIcESaIcEEESt6vectorIS7_SaIS7_EEEENS1_IPS7_SC_EEET1_T0_SH_SG_, symObjAddr: 0x6E84, symBinAddr: 0x1000093A0, symSize: 0x60 }
  - { offsetInCU: 0x456D2, offset: 0x456D2, size: 0x8, addend: 0x0, symName: __ZN9__gnu_cxx17__normal_iteratorIPKNSt7__cxx1112basic_stringIcSt11char_traitsIcESaIcEEESt6vectorIS6_SaIS6_EEEC1ERKS8_, symObjAddr: 0x6E48, symBinAddr: 0x100009364, symSize: 0x28 }
  - { offsetInCU: 0x456DA, offset: 0x456DA, size: 0x8, addend: 0x0, symName: __ZSt12__miter_baseIN9__gnu_cxx17__normal_iteratorIPKNSt7__cxx1112basic_stringIcSt11char_traitsIcESaIcEEESt6vectorIS7_SaIS7_EEEEET_SE_, symObjAddr: 0x6E70, symBinAddr: 0x10000938C, symSize: 0x14 }
  - { offsetInCU: 0x45699, offset: 0x45699, size: 0x8, addend: 0x0, symName: __ZNSt6vectorINSt7__cxx1112basic_stringIcSt11char_traitsIcESaIcEEESaIS5_EE15_M_erase_at_endEPS5_, symObjAddr: 0x6DC0, symBinAddr: 0x1000092DC, symSize: 0x88 }
  - { offsetInCU: 0x456A1, offset: 0x456A1, size: 0x8, addend: 0x0, symName: __ZN9__gnu_cxx17__normal_iteratorIPKNSt7__cxx1112basic_stringIcSt11char_traitsIcESaIcEEESt6vectorIS6_SaIS6_EEEC1ERKS8_, symObjAddr: 0x6E48, symBinAddr: 0x100009364, symSize: 0x28 }
  - { offsetInCU: 0x457A8, offset: 0x457A8, size: 0x8, addend: 0x0, symName: __ZNK9__gnu_cxx17__normal_iteratorIPNSt7__cxx1112basic_stringIcSt11char_traitsIcESaIcEEESt6vectorIS6_SaIS6_EEE4baseEv, symObjAddr: 0x6DAC, symBinAddr: 0x1000092C8, symSize: 0x14 }
  - { offsetInCU: 0x457B0, offset: 0x457B0, size: 0x8, addend: 0x0, symName: __ZNSt6vectorINSt7__cxx1112basic_stringIcSt11char_traitsIcESaIcEEESaIS5_EE15_M_erase_at_endEPS5_, symObjAddr: 0x6DC0, symBinAddr: 0x1000092DC, symSize: 0x88 }
  - { offsetInCU: 0x457D7, offset: 0x457D7, size: 0x8, addend: 0x0, symName: __ZNSt6vectorINSt7__cxx1112basic_stringIcSt11char_traitsIcESaIcEEESaIS5_EE11_S_relocateEPS5_S8_S8_RS6_, symObjAddr: 0x6D78, symBinAddr: 0x100009294, symSize: 0x34 }
  - { offsetInCU: 0x457DF, offset: 0x457DF, size: 0x8, addend: 0x0, symName: __ZNK9__gnu_cxx17__normal_iteratorIPNSt7__cxx1112basic_stringIcSt11char_traitsIcESaIcEEESt6vectorIS6_SaIS6_EEE4baseEv, symObjAddr: 0x6DAC, symBinAddr: 0x1000092C8, symSize: 0x14 }
  - { offsetInCU: 0x45849, offset: 0x45849, size: 0x8, addend: 0x0, symName: __ZNSt12_Vector_baseINSt7__cxx1112basic_stringIcSt11char_traitsIcESaIcEEESaIS5_EE11_M_allocateEm, symObjAddr: 0x6D28, symBinAddr: 0x100009244, symSize: 0x50 }
  - { offsetInCU: 0x45851, offset: 0x45851, size: 0x8, addend: 0x0, symName: __ZNSt6vectorINSt7__cxx1112basic_stringIcSt11char_traitsIcESaIcEEESaIS5_EE11_S_relocateEPS5_S8_S8_RS6_, symObjAddr: 0x6D78, symBinAddr: 0x100009294, symSize: 0x34 }
  - { offsetInCU: 0x459B9, offset: 0x459B9, size: 0x8, addend: 0x0, symName: __ZN9__gnu_cxxmiIPNSt7__cxx1112basic_stringIcSt11char_traitsIcESaIcEEESt6vectorIS6_SaIS6_EEEENS_17__normal_iteratorIT_T0_E15difference_typeERKSE_SH_, symObjAddr: 0x6CE8, symBinAddr: 0x100009204, symSize: 0x40 }
  - { offsetInCU: 0x459C1, offset: 0x459C1, size: 0x8, addend: 0x0, symName: __ZNSt12_Vector_baseINSt7__cxx1112basic_stringIcSt11char_traitsIcESaIcEEESaIS5_EE11_M_allocateEm, symObjAddr: 0x6D28, symBinAddr: 0x100009244, symSize: 0x50 }
  - { offsetInCU: 0x45932, offset: 0x45932, size: 0x8, addend: 0x0, symName: __ZNKSt6vectorINSt7__cxx1112basic_stringIcSt11char_traitsIcESaIcEEESaIS5_EE12_M_check_lenEmPKc, symObjAddr: 0x6C18, symBinAddr: 0x100009134, symSize: 0xD0 }
  - { offsetInCU: 0x4593A, offset: 0x4593A, size: 0x8, addend: 0x0, symName: __ZN9__gnu_cxxmiIPNSt7__cxx1112basic_stringIcSt11char_traitsIcESaIcEEESt6vectorIS6_SaIS6_EEEENS_17__normal_iteratorIT_T0_E15difference_typeERKSE_SH_, symObjAddr: 0x6CE8, symBinAddr: 0x100009204, symSize: 0x40 }
  - { offsetInCU: 0x45A42, offset: 0x45A42, size: 0x8, addend: 0x0, symName: __ZN9__gnu_cxx17__normal_iteratorIPNSt7__cxx1112basic_stringIcSt11char_traitsIcESaIcEEESt6vectorIS6_SaIS6_EEEC1ERKS7_, symObjAddr: 0x6BF0, symBinAddr: 0x10000910C, symSize: 0x28 }
  - { offsetInCU: 0x45A4A, offset: 0x45A4A, size: 0x8, addend: 0x0, symName: __ZNKSt6vectorINSt7__cxx1112basic_stringIcSt11char_traitsIcESaIcEEESaIS5_EE12_M_check_lenEmPKc, symObjAddr: 0x6C18, symBinAddr: 0x100009134, symSize: 0xD0 }
  - { offsetInCU: 0x45AFE, offset: 0x45AFE, size: 0x8, addend: 0x0, symName: __ZSt7forwardIRKNSt7__cxx1112basic_stringIcSt11char_traitsIcESaIcEEEEOT_RNSt16remove_referenceIS8_E4typeE, symObjAddr: 0x6BDC, symBinAddr: 0x1000090F8, symSize: 0x14 }
  - { offsetInCU: 0x45B06, offset: 0x45B06, size: 0x8, addend: 0x0, symName: __ZN9__gnu_cxx17__normal_iteratorIPNSt7__cxx1112basic_stringIcSt11char_traitsIcESaIcEEESt6vectorIS6_SaIS6_EEEC1ERKS7_, symObjAddr: 0x6BF0, symBinAddr: 0x10000910C, symSize: 0x28 }
  - { offsetInCU: 0x45B2B, offset: 0x45B2B, size: 0x8, addend: 0x0, symName: __ZSt8_DestroyIPNSt7__cxx1112basic_stringIcSt11char_traitsIcESaIcEEEEvT_S7_, symObjAddr: 0x6BB4, symBinAddr: 0x1000090D0, symSize: 0x28 }
  - { offsetInCU: 0x45B33, offset: 0x45B33, size: 0x8, addend: 0x0, symName: __ZSt7forwardIRKNSt7__cxx1112basic_stringIcSt11char_traitsIcESaIcEEEEOT_RNSt16remove_referenceIS8_E4typeE, symObjAddr: 0x6BDC, symBinAddr: 0x1000090F8, symSize: 0x14 }
  - { offsetInCU: 0x45BBE, offset: 0x45BBE, size: 0x8, addend: 0x0, symName: __ZNSt12_Vector_baseISt6vectorINSt7__cxx1112basic_stringIcSt11char_traitsIcESaIcEEESaIS6_EESaIS8_EE19_M_get_Tp_allocatorEv, symObjAddr: 0x6BA0, symBinAddr: 0x1000090BC, symSize: 0x14 }
  - { offsetInCU: 0x45BC6, offset: 0x45BC6, size: 0x8, addend: 0x0, symName: __ZSt8_DestroyIPNSt7__cxx1112basic_stringIcSt11char_traitsIcESaIcEEEEvT_S7_, symObjAddr: 0x6BB4, symBinAddr: 0x1000090D0, symSize: 0x28 }
  - { offsetInCU: 0x45BED, offset: 0x45BED, size: 0x8, addend: 0x0, symName: __ZNSt12_Vector_baseISt6vectorINSt7__cxx1112basic_stringIcSt11char_traitsIcESaIcEEESaIS6_EESaIS8_EE13_M_deallocateEPS8_m, symObjAddr: 0x6B48, symBinAddr: 0x100009064, symSize: 0x58 }
  - { offsetInCU: 0x45BF5, offset: 0x45BF5, size: 0x8, addend: 0x0, symName: __ZNSt12_Vector_baseISt6vectorINSt7__cxx1112basic_stringIcSt11char_traitsIcESaIcEEESaIS6_EESaIS8_EE19_M_get_Tp_allocatorEv, symObjAddr: 0x6BA0, symBinAddr: 0x1000090BC, symSize: 0x14 }
  - { offsetInCU: 0x45D15, offset: 0x45D15, size: 0x8, addend: 0x0, symName: __ZNSt15__new_allocatorISt6vectorINSt7__cxx1112basic_stringIcSt11char_traitsIcESaIcEEESaIS6_EEED2Ev, symObjAddr: 0x6B34, symBinAddr: 0x100009050, symSize: 0x14 }
  - { offsetInCU: 0x45D1D, offset: 0x45D1D, size: 0x8, addend: 0x0, symName: __ZNSt12_Vector_baseISt6vectorINSt7__cxx1112basic_stringIcSt11char_traitsIcESaIcEEESaIS6_EESaIS8_EE13_M_deallocateEPS8_m, symObjAddr: 0x6B48, symBinAddr: 0x100009064, symSize: 0x58 }
  - { offsetInCU: 0x45D77, offset: 0x45D77, size: 0x8, addend: 0x0, symName: __ZNSt12_Vector_baseISt6vectorINSt7__cxx1112basic_stringIcSt11char_traitsIcESaIcEEESaIS6_EESaIS8_EE17_Vector_impl_dataC2Ev, symObjAddr: 0x6B08, symBinAddr: 0x100009024, symSize: 0x2C }
  - { offsetInCU: 0x45D7F, offset: 0x45D7F, size: 0x8, addend: 0x0, symName: __ZNSt15__new_allocatorISt6vectorINSt7__cxx1112basic_stringIcSt11char_traitsIcESaIcEEESaIS6_EEED2Ev, symObjAddr: 0x6B34, symBinAddr: 0x100009050, symSize: 0x14 }
  - { offsetInCU: 0x45D48, offset: 0x45D48, size: 0x8, addend: 0x0, symName: __ZNSt6vectorIiSaIiEE14_M_move_assignEOS1_St17integral_constantIbLb1EE, symObjAddr: 0x6A74, symBinAddr: 0x100008F90, symSize: 0x94 }
  - { offsetInCU: 0x45D50, offset: 0x45D50, size: 0x8, addend: 0x0, symName: __ZNSt12_Vector_baseISt6vectorINSt7__cxx1112basic_stringIcSt11char_traitsIcESaIcEEESaIS6_EESaIS8_EE17_Vector_impl_dataC2Ev, symObjAddr: 0x6B08, symBinAddr: 0x100009024, symSize: 0x2C }
  - { offsetInCU: 0x45E66, offset: 0x45E66, size: 0x8, addend: 0x0, symName: __ZSt4moveIRSt6vectorIiSaIiEEEONSt16remove_referenceIT_E4typeEOS5_, symObjAddr: 0x6A60, symBinAddr: 0x100008F7C, symSize: 0x14 }
  - { offsetInCU: 0x45E6E, offset: 0x45E6E, size: 0x8, addend: 0x0, symName: __ZNSt6vectorIiSaIiEE14_M_move_assignEOS1_St17integral_constantIbLb1EE, symObjAddr: 0x6A74, symBinAddr: 0x100008F90, symSize: 0x94 }
  - { offsetInCU: 0x45E5C, offset: 0x45E5C, size: 0x8, addend: 0x0, symName: __ZNSt7__cxx114listI11BookLendingSaIS1_EE9_M_insertIJRKS1_EEEvSt14_List_iteratorIS1_EDpOT_, symObjAddr: 0x6A10, symBinAddr: 0x100008F2C, symSize: 0x50 }
  - { offsetInCU: 0x45E64, offset: 0x45E64, size: 0x8, addend: 0x0, symName: __ZSt4moveIRSt6vectorIiSaIiEEEONSt16remove_referenceIT_E4typeEOS5_, symObjAddr: 0x6A60, symBinAddr: 0x100008F7C, symSize: 0x14 }
  - { offsetInCU: 0x45ED7, offset: 0x45ED7, size: 0x8, addend: 0x0, symName: __ZNSt10_List_nodeI11BookLendingE9_M_valptrEv, symObjAddr: 0x69F0, symBinAddr: 0x100008F0C, symSize: 0x20 }
  - { offsetInCU: 0x45EDF, offset: 0x45EDF, size: 0x8, addend: 0x0, symName: __ZNSt7__cxx114listI11BookLendingSaIS1_EE9_M_insertIJRKS1_EEEvSt14_List_iteratorIS1_EDpOT_, symObjAddr: 0x6A10, symBinAddr: 0x100008F2C, symSize: 0x50 }
  - { offsetInCU: 0x45F7A, offset: 0x45F7A, size: 0x8, addend: 0x0, symName: __ZNSt14_List_iteratorI11BookLendingEC1EPNSt8__detail15_List_node_baseE, symObjAddr: 0x69CC, symBinAddr: 0x100008EE8, symSize: 0x24 }
  - { offsetInCU: 0x45F82, offset: 0x45F82, size: 0x8, addend: 0x0, symName: __ZNSt10_List_nodeI11BookLendingE9_M_valptrEv, symObjAddr: 0x69F0, symBinAddr: 0x100008F0C, symSize: 0x20 }
  - { offsetInCU: 0x45F70, offset: 0x45F70, size: 0x8, addend: 0x0, symName: __ZNSt6vectorIS_INSt7__cxx1112basic_stringIcSt11char_traitsIcESaIcEEESaIS5_EESaIS7_EE12emplace_backIJS7_EEERS7_DpOT_, symObjAddr: 0x68E0, symBinAddr: 0x100008DFC, symSize: 0xEC }
  - { offsetInCU: 0x45F78, offset: 0x45F78, size: 0x8, addend: 0x0, symName: __ZNSt14_List_iteratorI11BookLendingEC1EPNSt8__detail15_List_node_baseE, symObjAddr: 0x69CC, symBinAddr: 0x100008EE8, symSize: 0x24 }
  - { offsetInCU: 0x46043, offset: 0x46043, size: 0x8, addend: 0x0, symName: __ZNSt6vectorINSt7__cxx1112basic_stringIcSt11char_traitsIcESaIcEEESaIS5_EE12emplace_backIJS5_EEERS5_DpOT_, symObjAddr: 0x67F4, symBinAddr: 0x100008D10, symSize: 0xEC }
  - { offsetInCU: 0x4604B, offset: 0x4604B, size: 0x8, addend: 0x0, symName: __ZNSt6vectorIS_INSt7__cxx1112basic_stringIcSt11char_traitsIcESaIcEEESaIS5_EESaIS7_EE12emplace_backIJS7_EEERS7_DpOT_, symObjAddr: 0x68E0, symBinAddr: 0x100008DFC, symSize: 0xEC }
  - { offsetInCU: 0x46116, offset: 0x46116, size: 0x8, addend: 0x0, symName: __ZNSt6vectorINSt7__cxx1112basic_stringIcSt11char_traitsIcESaIcEEESaIS5_EE14_M_move_assignEOS7_St17integral_constantIbLb1EE, symObjAddr: 0x6760, symBinAddr: 0x100008C7C, symSize: 0x94 }
  - { offsetInCU: 0x4611E, offset: 0x4611E, size: 0x8, addend: 0x0, symName: __ZNSt6vectorINSt7__cxx1112basic_stringIcSt11char_traitsIcESaIcEEESaIS5_EE12emplace_backIJS5_EEERS5_DpOT_, symObjAddr: 0x67F4, symBinAddr: 0x100008D10, symSize: 0xEC }
  - { offsetInCU: 0x46287, offset: 0x46287, size: 0x8, addend: 0x0, symName: __ZSt4moveIRSt6vectorINSt7__cxx1112basic_stringIcSt11char_traitsIcESaIcEEESaIS6_EEEONSt16remove_referenceIT_E4typeEOSB_, symObjAddr: 0x674C, symBinAddr: 0x100008C68, symSize: 0x14 }
  - { offsetInCU: 0x4628F, offset: 0x4628F, size: 0x8, addend: 0x0, symName: __ZNSt6vectorINSt7__cxx1112basic_stringIcSt11char_traitsIcESaIcEEESaIS5_EE14_M_move_assignEOS7_St17integral_constantIbLb1EE, symObjAddr: 0x6760, symBinAddr: 0x100008C7C, symSize: 0x94 }
  - { offsetInCU: 0x4622A, offset: 0x4622A, size: 0x8, addend: 0x0, symName: __ZNSt6vectorIiSaIiEE12emplace_backIJiEEERiDpOT_, symObjAddr: 0x6664, symBinAddr: 0x100008B80, symSize: 0xE8 }
  - { offsetInCU: 0x46232, offset: 0x46232, size: 0x8, addend: 0x0, symName: __ZSt4moveIRSt6vectorINSt7__cxx1112basic_stringIcSt11char_traitsIcESaIcEEESaIS6_EEEONSt16remove_referenceIT_E4typeEOSB_, symObjAddr: 0x674C, symBinAddr: 0x100008C68, symSize: 0x14 }
  - { offsetInCU: 0x4633E, offset: 0x4633E, size: 0x8, addend: 0x0, symName: __ZSt4moveIRiEONSt16remove_referenceIT_E4typeEOS2_, symObjAddr: 0x6650, symBinAddr: 0x100008B6C, symSize: 0x14 }
  - { offsetInCU: 0x46346, offset: 0x46346, size: 0x8, addend: 0x0, symName: __ZNSt6vectorIiSaIiEE12emplace_backIJiEEERiDpOT_, symObjAddr: 0x6664, symBinAddr: 0x100008B80, symSize: 0xE8 }
  - { offsetInCU: 0x46351, offset: 0x46351, size: 0x8, addend: 0x0, symName: __ZNSt8__detail9_Map_baseIiSt4pairIKiiESaIS3_ENS_10_Select1stESt8equal_toIiESt4hashIiENS_18_Mod_range_hashingENS_20_Default_ranged_hashENS_20_Prime_rehash_policyENS_17_Hashtable_traitsILb0ELb0ELb1EEELb1EEixERS2_, symObjAddr: 0x6548, symBinAddr: 0x100008A64, symSize: 0x108 }
  - { offsetInCU: 0x46359, offset: 0x46359, size: 0x8, addend: 0x0, symName: __ZSt4moveIRiEONSt16remove_referenceIT_E4typeEOS2_, symObjAddr: 0x6650, symBinAddr: 0x100008B6C, symSize: 0x14 }
  - { offsetInCU: 0x46433, offset: 0x46433, size: 0x8, addend: 0x0, symName: __ZNSt8__detail9_Map_baseINSt7__cxx1112basic_stringIcSt11char_traitsIcESaIcEEESt4pairIKS6_iESaIS9_ENS_10_Select1stESt8equal_toIS6_ESt4hashIS6_ENS_18_Mod_range_hashingENS_20_Default_ranged_hashENS_20_Prime_rehash_policyENS_17_Hashtable_traitsILb1ELb0ELb1EEELb1EEixERS8_, symObjAddr: 0x6440, symBinAddr: 0x10000895C, symSize: 0x108 }
  - { offsetInCU: 0x4643B, offset: 0x4643B, size: 0x8, addend: 0x0, symName: __ZNSt8__detail9_Map_baseIiSt4pairIKiiESaIS3_ENS_10_Select1stESt8equal_toIiESt4hashIiENS_18_Mod_range_hashingENS_20_Default_ranged_hashENS_20_Prime_rehash_policyENS_17_Hashtable_traitsILb0ELb0ELb1EEELb1EEixERS2_, symObjAddr: 0x6548, symBinAddr: 0x100008A64, symSize: 0x108 }
  - { offsetInCU: 0x46599, offset: 0x46599, size: 0x8, addend: 0x0, symName: __ZNSt12_Vector_baseIiSaIiEE19_M_get_Tp_allocatorEv, symObjAddr: 0x642C, symBinAddr: 0x100008948, symSize: 0x14 }
  - { offsetInCU: 0x465A1, offset: 0x465A1, size: 0x8, addend: 0x0, symName: __ZNSt8__detail9_Map_baseINSt7__cxx1112basic_stringIcSt11char_traitsIcESaIcEEESt4pairIKS6_iESaIS9_ENS_10_Select1stESt8equal_toIS6_ESt4hashIS6_ENS_18_Mod_range_hashingENS_20_Default_ranged_hashENS_20_Prime_rehash_policyENS_17_Hashtable_traitsILb1ELb0ELb1EEELb1EEixERS8_, symObjAddr: 0x6440, symBinAddr: 0x10000895C, symSize: 0x108 }
  - { offsetInCU: 0x465C8, offset: 0x465C8, size: 0x8, addend: 0x0, symName: __ZNSt12_Vector_baseIiSaIiEE13_M_deallocateEPim, symObjAddr: 0x63D4, symBinAddr: 0x1000088F0, symSize: 0x58 }
  - { offsetInCU: 0x465D0, offset: 0x465D0, size: 0x8, addend: 0x0, symName: __ZNSt12_Vector_baseIiSaIiEE19_M_get_Tp_allocatorEv, symObjAddr: 0x642C, symBinAddr: 0x100008948, symSize: 0x14 }
  - { offsetInCU: 0x466AB, offset: 0x466AB, size: 0x8, addend: 0x0, symName: __ZNSt15__new_allocatorIiED2Ev, symObjAddr: 0x63C0, symBinAddr: 0x1000088DC, symSize: 0x14 }
  - { offsetInCU: 0x466B3, offset: 0x466B3, size: 0x8, addend: 0x0, symName: __ZNSt12_Vector_baseIiSaIiEE13_M_deallocateEPim, symObjAddr: 0x63D4, symBinAddr: 0x1000088F0, symSize: 0x58 }
  - { offsetInCU: 0x4670B, offset: 0x4670B, size: 0x8, addend: 0x0, symName: __ZNSt12_Vector_baseIiSaIiEE17_Vector_impl_dataC1Ev, symObjAddr: 0x6394, symBinAddr: 0x1000088B0, symSize: 0x2C }
  - { offsetInCU: 0x46713, offset: 0x46713, size: 0x8, addend: 0x0, symName: __ZNSt15__new_allocatorIiED2Ev, symObjAddr: 0x63C0, symBinAddr: 0x1000088DC, symSize: 0x14 }
  - { offsetInCU: 0x4673B, offset: 0x4673B, size: 0x8, addend: 0x0, symName: __ZNSt12_Vector_baseIiSaIiEE17_Vector_impl_dataC2Ev, symObjAddr: 0x6368, symBinAddr: 0x100008884, symSize: 0x2C }
  - { offsetInCU: 0x46743, offset: 0x46743, size: 0x8, addend: 0x0, symName: __ZNSt12_Vector_baseIiSaIiEE17_Vector_impl_dataC1Ev, symObjAddr: 0x6394, symBinAddr: 0x1000088B0, symSize: 0x2C }
  - { offsetInCU: 0x46753, offset: 0x46753, size: 0x8, addend: 0x0, symName: __ZNSt10_HashtableIiSt4pairIKiiESaIS2_ENSt8__detail10_Select1stESt8equal_toIiESt4hashIiENS4_18_Mod_range_hashingENS4_20_Default_ranged_hashENS4_20_Prime_rehash_policyENS4_17_Hashtable_traitsILb0ELb0ELb1EEEE3endEv, symObjAddr: 0x6344, symBinAddr: 0x100008860, symSize: 0x24 }
  - { offsetInCU: 0x4675B, offset: 0x4675B, size: 0x8, addend: 0x0, symName: __ZNSt12_Vector_baseIiSaIiEE17_Vector_impl_dataC2Ev, symObjAddr: 0x6368, symBinAddr: 0x100008884, symSize: 0x2C }
  - { offsetInCU: 0x46782, offset: 0x46782, size: 0x8, addend: 0x0, symName: __ZNSt10_HashtableIiSt4pairIKiiESaIS2_ENSt8__detail10_Select1stESt8equal_toIiESt4hashIiENS4_18_Mod_range_hashingENS4_20_Default_ranged_hashENS4_20_Prime_rehash_policyENS4_17_Hashtable_traitsILb0ELb0ELb1EEEE4findERS1_, symObjAddr: 0x623C, symBinAddr: 0x100008758, symSize: 0x108 }
  - { offsetInCU: 0x4678A, offset: 0x4678A, size: 0x8, addend: 0x0, symName: __ZNSt10_HashtableIiSt4pairIKiiESaIS2_ENSt8__detail10_Select1stESt8equal_toIiESt4hashIiENS4_18_Mod_range_hashingENS4_20_Default_ranged_hashENS4_20_Prime_rehash_policyENS4_17_Hashtable_traitsILb0ELb0ELb1EEEE3endEv, symObjAddr: 0x6344, symBinAddr: 0x100008860, symSize: 0x24 }
  - { offsetInCU: 0x46896, offset: 0x46896, size: 0x8, addend: 0x0, symName: __ZSt22__uninitialized_copy_aIP8BookItemS1_S0_ET0_T_S3_S2_RSaIT1_E, symObjAddr: 0x620C, symBinAddr: 0x100008728, symSize: 0x30 }
  - { offsetInCU: 0x4689E, offset: 0x4689E, size: 0x8, addend: 0x0, symName: __ZNSt10_HashtableIiSt4pairIKiiESaIS2_ENSt8__detail10_Select1stESt8equal_toIiESt4hashIiENS4_18_Mod_range_hashingENS4_20_Default_ranged_hashENS4_20_Prime_rehash_policyENS4_17_Hashtable_traitsILb0ELb0ELb1EEEE4findERS1_, symObjAddr: 0x623C, symBinAddr: 0x100008758, symSize: 0x108 }
  - { offsetInCU: 0x468FA, offset: 0x468FA, size: 0x8, addend: 0x0, symName: __ZSt4copyIP8BookItemS1_ET0_T_S3_S2_, symObjAddr: 0x61C4, symBinAddr: 0x1000086E0, symSize: 0x48 }
  - { offsetInCU: 0x46902, offset: 0x46902, size: 0x8, addend: 0x0, symName: __ZSt22__uninitialized_copy_aIP8BookItemS1_S0_ET0_T_S3_S2_RSaIT1_E, symObjAddr: 0x620C, symBinAddr: 0x100008728, symSize: 0x30 }
  - { offsetInCU: 0x46A8C, offset: 0x46A8C, size: 0x8, addend: 0x0, symName: __ZSt4copyIN9__gnu_cxx17__normal_iteratorIPK8BookItemSt6vectorIS2_SaIS2_EEEENS1_IPS2_S7_EEET0_T_SC_SB_, symObjAddr: 0x617C, symBinAddr: 0x100008698, symSize: 0x48 }
  - { offsetInCU: 0x46A94, offset: 0x46A94, size: 0x8, addend: 0x0, symName: __ZSt4copyIP8BookItemS1_ET0_T_S3_S2_, symObjAddr: 0x61C4, symBinAddr: 0x1000086E0, symSize: 0x48 }
  - { offsetInCU: 0x46A18, offset: 0x46A18, size: 0x8, addend: 0x0, symName: __ZNSt6vectorI8BookItemSaIS0_EE5beginEv, symObjAddr: 0x6158, symBinAddr: 0x100008674, symSize: 0x24 }
  - { offsetInCU: 0x46A20, offset: 0x46A20, size: 0x8, addend: 0x0, symName: __ZSt4copyIN9__gnu_cxx17__normal_iteratorIPK8BookItemSt6vectorIS2_SaIS2_EEEENS1_IPS2_S7_EEET0_T_SC_SB_, symObjAddr: 0x617C, symBinAddr: 0x100008698, symSize: 0x48 }
  - { offsetInCU: 0x46A47, offset: 0x46A47, size: 0x8, addend: 0x0, symName: __ZNSt6vectorI8BookItemSaIS0_EE20_M_allocate_and_copyIN9__gnu_cxx17__normal_iteratorIPKS0_S2_EEEEPS0_mT_SA_, symObjAddr: 0x60D4, symBinAddr: 0x1000085F0, symSize: 0x84 }
  - { offsetInCU: 0x46A4F, offset: 0x46A4F, size: 0x8, addend: 0x0, symName: __ZNSt6vectorI8BookItemSaIS0_EE5beginEv, symObjAddr: 0x6158, symBinAddr: 0x100008674, symSize: 0x24 }
  - { offsetInCU: 0x46AD7, offset: 0x46AD7, size: 0x8, addend: 0x0, symName: __ZNKSt6vectorI8BookItemSaIS0_EE3endEv, symObjAddr: 0x60AC, symBinAddr: 0x1000085C8, symSize: 0x28 }
  - { offsetInCU: 0x46ADF, offset: 0x46ADF, size: 0x8, addend: 0x0, symName: __ZNSt6vectorI8BookItemSaIS0_EE20_M_allocate_and_copyIN9__gnu_cxx17__normal_iteratorIPKS0_S2_EEEEPS0_mT_SA_, symObjAddr: 0x60D4, symBinAddr: 0x1000085F0, symSize: 0x84 }
  - { offsetInCU: 0x46B06, offset: 0x46B06, size: 0x8, addend: 0x0, symName: __ZNKSt6vectorI8BookItemSaIS0_EE5beginEv, symObjAddr: 0x6088, symBinAddr: 0x1000085A4, symSize: 0x24 }
  - { offsetInCU: 0x46B0E, offset: 0x46B0E, size: 0x8, addend: 0x0, symName: __ZNKSt6vectorI8BookItemSaIS0_EE3endEv, symObjAddr: 0x60AC, symBinAddr: 0x1000085C8, symSize: 0x28 }
  - { offsetInCU: 0x46B35, offset: 0x46B35, size: 0x8, addend: 0x0, symName: __ZNKSt6vectorI8BookItemSaIS0_EE8capacityEv, symObjAddr: 0x6054, symBinAddr: 0x100008570, symSize: 0x34 }
  - { offsetInCU: 0x46B3D, offset: 0x46B3D, size: 0x8, addend: 0x0, symName: __ZNKSt6vectorI8BookItemSaIS0_EE5beginEv, symObjAddr: 0x6088, symBinAddr: 0x1000085A4, symSize: 0x24 }
  - { offsetInCU: 0x46BD0, offset: 0x46BD0, size: 0x8, addend: 0x0, symName: __ZNKSt12_Vector_baseI8BookItemSaIS0_EE19_M_get_Tp_allocatorEv, symObjAddr: 0x6040, symBinAddr: 0x10000855C, symSize: 0x14 }
  - { offsetInCU: 0x46BD8, offset: 0x46BD8, size: 0x8, addend: 0x0, symName: __ZNKSt6vectorI8BookItemSaIS0_EE8capacityEv, symObjAddr: 0x6054, symBinAddr: 0x100008570, symSize: 0x34 }
  - { offsetInCU: 0x46C64, offset: 0x46C64, size: 0x8, addend: 0x0, symName: __ZSt11__addressofIKSt6vectorI8BookItemSaIS1_EEEPT_RS5_, symObjAddr: 0x602C, symBinAddr: 0x100008548, symSize: 0x14 }
  - { offsetInCU: 0x46C6C, offset: 0x46C6C, size: 0x8, addend: 0x0, symName: __ZNKSt12_Vector_baseI8BookItemSaIS0_EE19_M_get_Tp_allocatorEv, symObjAddr: 0x6040, symBinAddr: 0x10000855C, symSize: 0x14 }
  - { offsetInCU: 0x46C49, offset: 0x46C49, size: 0x8, addend: 0x0, symName: __ZNSt6vectorI4RackSaIS0_EE15_M_erase_at_endEPS0_, symObjAddr: 0x5F98, symBinAddr: 0x1000084B4, symSize: 0x94 }
  - { offsetInCU: 0x46C51, offset: 0x46C51, size: 0x8, addend: 0x0, symName: __ZSt11__addressofIKSt6vectorI8BookItemSaIS1_EEEPT_RS5_, symObjAddr: 0x602C, symBinAddr: 0x100008548, symSize: 0x14 }
  - { offsetInCU: 0x46CF7, offset: 0x46CF7, size: 0x8, addend: 0x0, symName: __ZNSt6vectorI4RackSaIS0_EE17_M_default_appendEm, symObjAddr: 0x5D50, symBinAddr: 0x10000826C, symSize: 0x248 }
  - { offsetInCU: 0x46CFF, offset: 0x46CFF, size: 0x8, addend: 0x0, symName: __ZNSt6vectorI4RackSaIS0_EE15_M_erase_at_endEPS0_, symObjAddr: 0x5F98, symBinAddr: 0x1000084B4, symSize: 0x94 }
  - { offsetInCU: 0x46DDF, offset: 0x46DDF, size: 0x8, addend: 0x0, symName: __ZNKSt6vectorI4RackSaIS0_EE4sizeEv, symObjAddr: 0x5D1C, symBinAddr: 0x100008238, symSize: 0x34 }
  - { offsetInCU: 0x46DE7, offset: 0x46DE7, size: 0x8, addend: 0x0, symName: __ZNSt6vectorI4RackSaIS0_EE17_M_default_appendEm, symObjAddr: 0x5D50, symBinAddr: 0x10000826C, symSize: 0x248 }
  - { offsetInCU: 0x46E0E, offset: 0x46E0E, size: 0x8, addend: 0x0, symName: __ZNSt10_HashtableIiSt4pairIKiiESaIS2_ENSt8__detail10_Select1stESt8equal_toIiESt4hashIiENS4_18_Mod_range_hashingENS4_20_Default_ranged_hashENS4_20_Prime_rehash_policyENS4_17_Hashtable_traitsILb0ELb0ELb1EEEE21_M_deallocate_bucketsEv, symObjAddr: 0x5CE8, symBinAddr: 0x100008204, symSize: 0x34 }
  - { offsetInCU: 0x46E16, offset: 0x46E16, size: 0x8, addend: 0x0, symName: __ZNKSt6vectorI4RackSaIS0_EE4sizeEv, symObjAddr: 0x5D1C, symBinAddr: 0x100008238, symSize: 0x34 }
  - { offsetInCU: 0x46E3D, offset: 0x46E3D, size: 0x8, addend: 0x0, symName: __ZNSt10_HashtableIiSt4pairIKiiESaIS2_ENSt8__detail10_Select1stESt8equal_toIiESt4hashIiENS4_18_Mod_range_hashingENS4_20_Default_ranged_hashENS4_20_Prime_rehash_policyENS4_17_Hashtable_traitsILb0ELb0ELb1EEEE5clearEv, symObjAddr: 0x5C84, symBinAddr: 0x1000081A0, symSize: 0x64 }
  - { offsetInCU: 0x46E45, offset: 0x46E45, size: 0x8, addend: 0x0, symName: __ZNSt10_HashtableIiSt4pairIKiiESaIS2_ENSt8__detail10_Select1stESt8equal_toIiESt4hashIiENS4_18_Mod_range_hashingENS4_20_Default_ranged_hashENS4_20_Prime_rehash_policyENS4_17_Hashtable_traitsILb0ELb0ELb1EEEE21_M_deallocate_bucketsEv, symObjAddr: 0x5CE8, symBinAddr: 0x100008204, symSize: 0x34 }
  - { offsetInCU: 0x46EDE, offset: 0x46EDE, size: 0x8, addend: 0x0, symName: __ZNSt15__new_allocatorINSt8__detail10_Hash_nodeISt4pairIKiiELb0EEEED2Ev, symObjAddr: 0x5C70, symBinAddr: 0x10000818C, symSize: 0x14 }
  - { offsetInCU: 0x46EE6, offset: 0x46EE6, size: 0x8, addend: 0x0, symName: __ZNSt10_HashtableIiSt4pairIKiiESaIS2_ENSt8__detail10_Select1stESt8equal_toIiESt4hashIiENS4_18_Mod_range_hashingENS4_20_Default_ranged_hashENS4_20_Prime_rehash_policyENS4_17_Hashtable_traitsILb0ELb0ELb1EEEE5clearEv, symObjAddr: 0x5C84, symBinAddr: 0x1000081A0, symSize: 0x64 }
  - { offsetInCU: 0x46EE1, offset: 0x46EE1, size: 0x8, addend: 0x0, symName: __ZNSt10_HashtableINSt7__cxx1112basic_stringIcSt11char_traitsIcESaIcEEESt4pairIKS5_iESaIS8_ENSt8__detail10_Select1stESt8equal_toIS5_ESt4hashIS5_ENSA_18_Mod_range_hashingENSA_20_Default_ranged_hashENSA_20_Prime_rehash_policyENSA_17_Hashtable_traitsILb1ELb0ELb1EEEE21_M_deallocate_bucketsEv, symObjAddr: 0x5C3C, symBinAddr: 0x100008158, symSize: 0x34 }
  - { offsetInCU: 0x46EE9, offset: 0x46EE9, size: 0x8, addend: 0x0, symName: __ZNSt15__new_allocatorINSt8__detail10_Hash_nodeISt4pairIKiiELb0EEEED2Ev, symObjAddr: 0x5C70, symBinAddr: 0x10000818C, symSize: 0x14 }
  - { offsetInCU: 0x46F10, offset: 0x46F10, size: 0x8, addend: 0x0, symName: __ZNSt10_HashtableINSt7__cxx1112basic_stringIcSt11char_traitsIcESaIcEEESt4pairIKS5_iESaIS8_ENSt8__detail10_Select1stESt8equal_toIS5_ESt4hashIS5_ENSA_18_Mod_range_hashingENSA_20_Default_ranged_hashENSA_20_Prime_rehash_policyENSA_17_Hashtable_traitsILb1ELb0ELb1EEEE5clearEv, symObjAddr: 0x5BD8, symBinAddr: 0x1000080F4, symSize: 0x64 }
  - { offsetInCU: 0x46F18, offset: 0x46F18, size: 0x8, addend: 0x0, symName: __ZNSt10_HashtableINSt7__cxx1112basic_stringIcSt11char_traitsIcESaIcEEESt4pairIKS5_iESaIS8_ENSt8__detail10_Select1stESt8equal_toIS5_ESt4hashIS5_ENSA_18_Mod_range_hashingENSA_20_Default_ranged_hashENSA_20_Prime_rehash_policyENSA_17_Hashtable_traitsILb1ELb0ELb1EEEE21_M_deallocate_bucketsEv, symObjAddr: 0x5C3C, symBinAddr: 0x100008158, symSize: 0x34 }
  - { offsetInCU: 0x46FE4, offset: 0x46FE4, size: 0x8, addend: 0x0, symName: __ZNSt15__new_allocatorINSt8__detail10_Hash_nodeISt4pairIKNSt7__cxx1112basic_stringIcSt11char_traitsIcESaIcEEEiELb1EEEED2Ev, symObjAddr: 0x5BC4, symBinAddr: 0x1000080E0, symSize: 0x14 }
  - { offsetInCU: 0x46FEC, offset: 0x46FEC, size: 0x8, addend: 0x0, symName: __ZNSt10_HashtableINSt7__cxx1112basic_stringIcSt11char_traitsIcESaIcEEESt4pairIKS5_iESaIS8_ENSt8__detail10_Select1stESt8equal_toIS5_ESt4hashIS5_ENSA_18_Mod_range_hashingENSA_20_Default_ranged_hashENSA_20_Prime_rehash_policyENSA_17_Hashtable_traitsILb1ELb0ELb1EEEE5clearEv, symObjAddr: 0x5BD8, symBinAddr: 0x1000080F4, symSize: 0x64 }
  - { offsetInCU: 0x46FB4, offset: 0x46FB4, size: 0x8, addend: 0x0, symName: __ZNSt7__cxx1110_List_baseI11BookLendingSaIS1_EE8_M_clearEv, symObjAddr: 0x5B28, symBinAddr: 0x100008044, symSize: 0x9C }
  - { offsetInCU: 0x46FBC, offset: 0x46FBC, size: 0x8, addend: 0x0, symName: __ZNSt15__new_allocatorINSt8__detail10_Hash_nodeISt4pairIKNSt7__cxx1112basic_stringIcSt11char_traitsIcESaIcEEEiELb1EEEED2Ev, symObjAddr: 0x5BC4, symBinAddr: 0x1000080E0, symSize: 0x14 }
  - { offsetInCU: 0x47118, offset: 0x47118, size: 0x8, addend: 0x0, symName: __ZNSt15__new_allocatorISt10_List_nodeI11BookLendingEED2Ev, symObjAddr: 0x5B14, symBinAddr: 0x100008030, symSize: 0x14 }
  - { offsetInCU: 0x47120, offset: 0x47120, size: 0x8, addend: 0x0, symName: __ZNSt7__cxx1110_List_baseI11BookLendingSaIS1_EE8_M_clearEv, symObjAddr: 0x5B28, symBinAddr: 0x100008044, symSize: 0x9C }
  - { offsetInCU: 0x47181, offset: 0x47181, size: 0x8, addend: 0x0, symName: __ZNSt12_Vector_baseI4RackSaIS0_EE19_M_get_Tp_allocatorEv, symObjAddr: 0x5B00, symBinAddr: 0x10000801C, symSize: 0x14 }
  - { offsetInCU: 0x47189, offset: 0x47189, size: 0x8, addend: 0x0, symName: __ZNSt15__new_allocatorISt10_List_nodeI11BookLendingEED2Ev, symObjAddr: 0x5B14, symBinAddr: 0x100008030, symSize: 0x14 }
  - { offsetInCU: 0x471B0, offset: 0x471B0, size: 0x8, addend: 0x0, symName: __ZNSt12_Vector_baseI4RackSaIS0_EE13_M_deallocateEPS0_m, symObjAddr: 0x5AA8, symBinAddr: 0x100007FC4, symSize: 0x58 }
  - { offsetInCU: 0x471B8, offset: 0x471B8, size: 0x8, addend: 0x0, symName: __ZNSt12_Vector_baseI4RackSaIS0_EE19_M_get_Tp_allocatorEv, symObjAddr: 0x5B00, symBinAddr: 0x10000801C, symSize: 0x14 }
  - { offsetInCU: 0x47297, offset: 0x47297, size: 0x8, addend: 0x0, symName: __ZNSt15__new_allocatorI4RackED2Ev, symObjAddr: 0x5A94, symBinAddr: 0x100007FB0, symSize: 0x14 }
  - { offsetInCU: 0x4729F, offset: 0x4729F, size: 0x8, addend: 0x0, symName: __ZNSt12_Vector_baseI4RackSaIS0_EE13_M_deallocateEPS0_m, symObjAddr: 0x5AA8, symBinAddr: 0x100007FC4, symSize: 0x58 }
  - { offsetInCU: 0x472F9, offset: 0x472F9, size: 0x8, addend: 0x0, symName: __ZNSt12_Vector_baseI4RackSaIS0_EE17_Vector_impl_dataC2Ev, symObjAddr: 0x5A68, symBinAddr: 0x100007F84, symSize: 0x2C }
  - { offsetInCU: 0x47301, offset: 0x47301, size: 0x8, addend: 0x0, symName: __ZNSt15__new_allocatorI4RackED2Ev, symObjAddr: 0x5A94, symBinAddr: 0x100007FB0, symSize: 0x14 }
  - { offsetInCU: 0x4730B, offset: 0x4730B, size: 0x8, addend: 0x0, symName: __ZNSt6vectorISt4pairI8BookItemNSt7__cxx1112basic_stringIcSt11char_traitsIcESaIcEEEESaIS8_EE12emplace_backIJS8_EEERS8_DpOT_, symObjAddr: 0x597C, symBinAddr: 0x100007E98, symSize: 0xEC }
  - { offsetInCU: 0x47313, offset: 0x47313, size: 0x8, addend: 0x0, symName: __ZNSt12_Vector_baseI4RackSaIS0_EE17_Vector_impl_dataC2Ev, symObjAddr: 0x5A68, symBinAddr: 0x100007F84, symSize: 0x2C }
  - { offsetInCU: 0x47497, offset: 0x47497, size: 0x8, addend: 0x0, symName: __ZSt4moveIRSt4pairI8BookItemNSt7__cxx1112basic_stringIcSt11char_traitsIcESaIcEEEEEONSt16remove_referenceIT_E4typeEOSB_, symObjAddr: 0x5968, symBinAddr: 0x100007E84, symSize: 0x14 }
  - { offsetInCU: 0x4749F, offset: 0x4749F, size: 0x8, addend: 0x0, symName: __ZNSt6vectorISt4pairI8BookItemNSt7__cxx1112basic_stringIcSt11char_traitsIcESaIcEEEESaIS8_EE12emplace_backIJS8_EEERS8_DpOT_, symObjAddr: 0x597C, symBinAddr: 0x100007E98, symSize: 0xEC }
  - { offsetInCU: 0x474C9, offset: 0x474C9, size: 0x8, addend: 0x0, symName: __ZSt7forwardIRNSt7__cxx1112basic_stringIcSt11char_traitsIcESaIcEEEEOT_RNSt16remove_referenceIS7_E4typeE, symObjAddr: 0x5954, symBinAddr: 0x100007E70, symSize: 0x14 }
  - { offsetInCU: 0x474D1, offset: 0x474D1, size: 0x8, addend: 0x0, symName: __ZSt4moveIRSt4pairI8BookItemNSt7__cxx1112basic_stringIcSt11char_traitsIcESaIcEEEEEONSt16remove_referenceIT_E4typeEOSB_, symObjAddr: 0x5968, symBinAddr: 0x100007E84, symSize: 0x14 }
  - { offsetInCU: 0x474DA, offset: 0x474DA, size: 0x8, addend: 0x0, symName: __ZSt7forwardIR8BookItemEOT_RNSt16remove_referenceIS2_E4typeE, symObjAddr: 0x5940, symBinAddr: 0x100007E5C, symSize: 0x14 }
  - { offsetInCU: 0x474E2, offset: 0x474E2, size: 0x8, addend: 0x0, symName: __ZSt7forwardIRNSt7__cxx1112basic_stringIcSt11char_traitsIcESaIcEEEEOT_RNSt16remove_referenceIS7_E4typeE, symObjAddr: 0x5954, symBinAddr: 0x100007E70, symSize: 0x14 }
  - { offsetInCU: 0x47532, offset: 0x47532, size: 0x8, addend: 0x0, symName: __ZNSt12_Vector_baseISt4pairI8BookItemNSt7__cxx1112basic_stringIcSt11char_traitsIcESaIcEEEESaIS8_EE19_M_get_Tp_allocatorEv, symObjAddr: 0x592C, symBinAddr: 0x100007E48, symSize: 0x14 }
  - { offsetInCU: 0x4753A, offset: 0x4753A, size: 0x8, addend: 0x0, symName: __ZSt7forwardIR8BookItemEOT_RNSt16remove_referenceIS2_E4typeE, symObjAddr: 0x5940, symBinAddr: 0x100007E5C, symSize: 0x14 }
  - { offsetInCU: 0x47561, offset: 0x47561, size: 0x8, addend: 0x0, symName: __ZNSt12_Vector_baseISt4pairI8BookItemNSt7__cxx1112basic_stringIcSt11char_traitsIcESaIcEEEESaIS8_EE13_M_deallocateEPS8_m, symObjAddr: 0x58D4, symBinAddr: 0x100007DF0, symSize: 0x58 }
  - { offsetInCU: 0x47569, offset: 0x47569, size: 0x8, addend: 0x0, symName: __ZNSt12_Vector_baseISt4pairI8BookItemNSt7__cxx1112basic_stringIcSt11char_traitsIcESaIcEEEESaIS8_EE19_M_get_Tp_allocatorEv, symObjAddr: 0x592C, symBinAddr: 0x100007E48, symSize: 0x14 }
  - { offsetInCU: 0x47689, offset: 0x47689, size: 0x8, addend: 0x0, symName: __ZNSt15__new_allocatorISt4pairI8BookItemNSt7__cxx1112basic_stringIcSt11char_traitsIcESaIcEEEEED2Ev, symObjAddr: 0x58C0, symBinAddr: 0x100007DDC, symSize: 0x14 }
  - { offsetInCU: 0x47691, offset: 0x47691, size: 0x8, addend: 0x0, symName: __ZNSt12_Vector_baseISt4pairI8BookItemNSt7__cxx1112basic_stringIcSt11char_traitsIcESaIcEEEESaIS8_EE13_M_deallocateEPS8_m, symObjAddr: 0x58D4, symBinAddr: 0x100007DF0, symSize: 0x58 }
  - { offsetInCU: 0x476EB, offset: 0x476EB, size: 0x8, addend: 0x0, symName: __ZNSt12_Vector_baseISt4pairI8BookItemNSt7__cxx1112basic_stringIcSt11char_traitsIcESaIcEEEESaIS8_EE17_Vector_impl_dataC2Ev, symObjAddr: 0x5894, symBinAddr: 0x100007DB0, symSize: 0x2C }
  - { offsetInCU: 0x476F3, offset: 0x476F3, size: 0x8, addend: 0x0, symName: __ZNSt15__new_allocatorISt4pairI8BookItemNSt7__cxx1112basic_stringIcSt11char_traitsIcESaIcEEEEED2Ev, symObjAddr: 0x58C0, symBinAddr: 0x100007DDC, symSize: 0x14 }
  - { offsetInCU: 0x476BC, offset: 0x476BC, size: 0x8, addend: 0x0, symName: __ZNSt6vectorI8BookItemSaIS0_EE17_M_realloc_insertIJRKS0_EEEvN9__gnu_cxx17__normal_iteratorIPS0_S2_EEDpOT_, symObjAddr: 0x55C8, symBinAddr: 0x100007AE4, symSize: 0x2CC }
  - { offsetInCU: 0x476C4, offset: 0x476C4, size: 0x8, addend: 0x0, symName: __ZNSt12_Vector_baseISt4pairI8BookItemNSt7__cxx1112basic_stringIcSt11char_traitsIcESaIcEEEESaIS8_EE17_Vector_impl_dataC2Ev, symObjAddr: 0x5894, symBinAddr: 0x100007DB0, symSize: 0x2C }
  - { offsetInCU: 0x478DE, offset: 0x478DE, size: 0x8, addend: 0x0, symName: __ZNSt6vectorI8BookItemSaIS0_EE3endEv, symObjAddr: 0x55A0, symBinAddr: 0x100007ABC, symSize: 0x28 }
  - { offsetInCU: 0x478E6, offset: 0x478E6, size: 0x8, addend: 0x0, symName: __ZNSt6vectorI8BookItemSaIS0_EE17_M_realloc_insertIJRKS0_EEEvN9__gnu_cxx17__normal_iteratorIPS0_S2_EEDpOT_, symObjAddr: 0x55C8, symBinAddr: 0x100007AE4, symSize: 0x2CC }
  - { offsetInCU: 0x47969, offset: 0x47969, size: 0x8, addend: 0x0, symName: __ZNSt6vectorI8BookItemSaIS0_EE15_M_erase_at_endEPS0_, symObjAddr: 0x550C, symBinAddr: 0x100007A28, symSize: 0x94 }
  - { offsetInCU: 0x47971, offset: 0x47971, size: 0x8, addend: 0x0, symName: __ZNSt6vectorI8BookItemSaIS0_EE3endEv, symObjAddr: 0x55A0, symBinAddr: 0x100007ABC, symSize: 0x28 }
  - { offsetInCU: 0x47A6F, offset: 0x47A6F, size: 0x8, addend: 0x0, symName: __ZNSt12_Vector_baseI8BookItemSaIS0_EE19_M_get_Tp_allocatorEv, symObjAddr: 0x54F8, symBinAddr: 0x100007A14, symSize: 0x14 }
  - { offsetInCU: 0x47A77, offset: 0x47A77, size: 0x8, addend: 0x0, symName: __ZNSt6vectorI8BookItemSaIS0_EE15_M_erase_at_endEPS0_, symObjAddr: 0x550C, symBinAddr: 0x100007A28, symSize: 0x94 }
  - { offsetInCU: 0x47A9E, offset: 0x47A9E, size: 0x8, addend: 0x0, symName: __ZNSt12_Vector_baseI8BookItemSaIS0_EE13_M_deallocateEPS0_m, symObjAddr: 0x54A0, symBinAddr: 0x1000079BC, symSize: 0x58 }
  - { offsetInCU: 0x47AA6, offset: 0x47AA6, size: 0x8, addend: 0x0, symName: __ZNSt12_Vector_baseI8BookItemSaIS0_EE19_M_get_Tp_allocatorEv, symObjAddr: 0x54F8, symBinAddr: 0x100007A14, symSize: 0x14 }
  - { offsetInCU: 0x47B89, offset: 0x47B89, size: 0x8, addend: 0x0, symName: __ZNSt15__new_allocatorI8BookItemED2Ev, symObjAddr: 0x548C, symBinAddr: 0x1000079A8, symSize: 0x14 }
  - { offsetInCU: 0x47B91, offset: 0x47B91, size: 0x8, addend: 0x0, symName: __ZNSt12_Vector_baseI8BookItemSaIS0_EE13_M_deallocateEPS0_m, symObjAddr: 0x54A0, symBinAddr: 0x1000079BC, symSize: 0x58 }
  - { offsetInCU: 0x47BEB, offset: 0x47BEB, size: 0x8, addend: 0x0, symName: __ZNSt12_Vector_baseI8BookItemSaIS0_EE17_Vector_impl_dataC2Ev, symObjAddr: 0x5460, symBinAddr: 0x10000797C, symSize: 0x2C }
  - { offsetInCU: 0x47BF3, offset: 0x47BF3, size: 0x8, addend: 0x0, symName: __ZNSt15__new_allocatorI8BookItemED2Ev, symObjAddr: 0x548C, symBinAddr: 0x1000079A8, symSize: 0x14 }
  - { offsetInCU: 0x47D78, offset: 0x47D78, size: 0x8, addend: 0x0, symName: __ZSt22__uninitialized_copy_aIN9__gnu_cxx17__normal_iteratorIPKNSt7__cxx1112basic_stringIcSt11char_traitsIcESaIcEEESt6vectorIS7_SaIS7_EEEEPS7_S7_ET0_T_SG_SF_RSaIT1_E, symObjAddr: 0x5430, symBinAddr: 0x10000794C, symSize: 0x30 }
  - { offsetInCU: 0x47D80, offset: 0x47D80, size: 0x8, addend: 0x0, symName: __ZNSt12_Vector_baseI8BookItemSaIS0_EE17_Vector_impl_dataC2Ev, symObjAddr: 0x5460, symBinAddr: 0x10000797C, symSize: 0x2C }
  - { offsetInCU: 0x47D30, offset: 0x47D30, size: 0x8, addend: 0x0, symName: __ZNSt12_Vector_baseINSt7__cxx1112basic_stringIcSt11char_traitsIcESaIcEEESaIS5_EEC2EmRKS6_, symObjAddr: 0x53DC, symBinAddr: 0x1000078F8, symSize: 0x54 }
  - { offsetInCU: 0x47D38, offset: 0x47D38, size: 0x8, addend: 0x0, symName: __ZSt22__uninitialized_copy_aIN9__gnu_cxx17__normal_iteratorIPKNSt7__cxx1112basic_stringIcSt11char_traitsIcESaIcEEESt6vectorIS7_SaIS7_EEEEPS7_S7_ET0_T_SG_SF_RSaIT1_E, symObjAddr: 0x5430, symBinAddr: 0x10000794C, symSize: 0x30 }
  - { offsetInCU: 0x47E2F, offset: 0x47E2F, size: 0x8, addend: 0x0, symName: __ZSt22__uninitialized_copy_aIPNSt7__cxx1112basic_stringIcSt11char_traitsIcESaIcEEES6_S5_ET0_T_S8_S7_RSaIT1_E, symObjAddr: 0x53AC, symBinAddr: 0x1000078C8, symSize: 0x30 }
  - { offsetInCU: 0x47E37, offset: 0x47E37, size: 0x8, addend: 0x0, symName: __ZNSt12_Vector_baseINSt7__cxx1112basic_stringIcSt11char_traitsIcESaIcEEESaIS5_EEC2EmRKS6_, symObjAddr: 0x53DC, symBinAddr: 0x1000078F8, symSize: 0x54 }
  - { offsetInCU: 0x47E7A, offset: 0x47E7A, size: 0x8, addend: 0x0, symName: __ZSt4copyIPNSt7__cxx1112basic_stringIcSt11char_traitsIcESaIcEEES6_ET0_T_S8_S7_, symObjAddr: 0x5364, symBinAddr: 0x100007880, symSize: 0x48 }
  - { offsetInCU: 0x47E82, offset: 0x47E82, size: 0x8, addend: 0x0, symName: __ZSt22__uninitialized_copy_aIPNSt7__cxx1112basic_stringIcSt11char_traitsIcESaIcEEES6_S5_ET0_T_S8_S7_RSaIT1_E, symObjAddr: 0x53AC, symBinAddr: 0x1000078C8, symSize: 0x30 }
  - { offsetInCU: 0x4803E, offset: 0x4803E, size: 0x8, addend: 0x0, symName: __ZSt4copyIN9__gnu_cxx17__normal_iteratorIPKNSt7__cxx1112basic_stringIcSt11char_traitsIcESaIcEEESt6vectorIS7_SaIS7_EEEENS1_IPS7_SC_EEET0_T_SH_SG_, symObjAddr: 0x531C, symBinAddr: 0x100007838, symSize: 0x48 }
  - { offsetInCU: 0x48046, offset: 0x48046, size: 0x8, addend: 0x0, symName: __ZSt4copyIPNSt7__cxx1112basic_stringIcSt11char_traitsIcESaIcEEES6_ET0_T_S8_S7_, symObjAddr: 0x5364, symBinAddr: 0x100007880, symSize: 0x48 }
  - { offsetInCU: 0x47F3D, offset: 0x47F3D, size: 0x8, addend: 0x0, symName: __ZNSt6vectorINSt7__cxx1112basic_stringIcSt11char_traitsIcESaIcEEESaIS5_EE5beginEv, symObjAddr: 0x52F8, symBinAddr: 0x100007814, symSize: 0x24 }
  - { offsetInCU: 0x47F45, offset: 0x47F45, size: 0x8, addend: 0x0, symName: __ZSt4copyIN9__gnu_cxx17__normal_iteratorIPKNSt7__cxx1112basic_stringIcSt11char_traitsIcESaIcEEESt6vectorIS7_SaIS7_EEEENS1_IPS7_SC_EEET0_T_SH_SG_, symObjAddr: 0x531C, symBinAddr: 0x100007838, symSize: 0x48 }
  - { offsetInCU: 0x47F6C, offset: 0x47F6C, size: 0x8, addend: 0x0, symName: __ZNSt6vectorINSt7__cxx1112basic_stringIcSt11char_traitsIcESaIcEEESaIS5_EE20_M_allocate_and_copyIN9__gnu_cxx17__normal_iteratorIPKS5_S7_EEEEPS5_mT_SF_, symObjAddr: 0x5274, symBinAddr: 0x100007790, symSize: 0x84 }
  - { offsetInCU: 0x47F74, offset: 0x47F74, size: 0x8, addend: 0x0, symName: __ZNSt6vectorINSt7__cxx1112basic_stringIcSt11char_traitsIcESaIcEEESaIS5_EE5beginEv, symObjAddr: 0x52F8, symBinAddr: 0x100007814, symSize: 0x24 }
  - { offsetInCU: 0x47FFC, offset: 0x47FFC, size: 0x8, addend: 0x0, symName: __ZNKSt6vectorINSt7__cxx1112basic_stringIcSt11char_traitsIcESaIcEEESaIS5_EE3endEv, symObjAddr: 0x524C, symBinAddr: 0x100007768, symSize: 0x28 }
  - { offsetInCU: 0x48004, offset: 0x48004, size: 0x8, addend: 0x0, symName: __ZNSt6vectorINSt7__cxx1112basic_stringIcSt11char_traitsIcESaIcEEESaIS5_EE20_M_allocate_and_copyIN9__gnu_cxx17__normal_iteratorIPKS5_S7_EEEEPS5_mT_SF_, symObjAddr: 0x5274, symBinAddr: 0x100007790, symSize: 0x84 }
  - { offsetInCU: 0x4802B, offset: 0x4802B, size: 0x8, addend: 0x0, symName: __ZNKSt6vectorINSt7__cxx1112basic_stringIcSt11char_traitsIcESaIcEEESaIS5_EE5beginEv, symObjAddr: 0x5228, symBinAddr: 0x100007744, symSize: 0x24 }
  - { offsetInCU: 0x48033, offset: 0x48033, size: 0x8, addend: 0x0, symName: __ZNKSt6vectorINSt7__cxx1112basic_stringIcSt11char_traitsIcESaIcEEESaIS5_EE3endEv, symObjAddr: 0x524C, symBinAddr: 0x100007768, symSize: 0x28 }
  - { offsetInCU: 0x4805A, offset: 0x4805A, size: 0x8, addend: 0x0, symName: __ZNKSt6vectorINSt7__cxx1112basic_stringIcSt11char_traitsIcESaIcEEESaIS5_EE8capacityEv, symObjAddr: 0x5200, symBinAddr: 0x10000771C, symSize: 0x28 }
  - { offsetInCU: 0x48062, offset: 0x48062, size: 0x8, addend: 0x0, symName: __ZNKSt6vectorINSt7__cxx1112basic_stringIcSt11char_traitsIcESaIcEEESaIS5_EE5beginEv, symObjAddr: 0x5228, symBinAddr: 0x100007744, symSize: 0x24 }
  - { offsetInCU: 0x480CB, offset: 0x480CB, size: 0x8, addend: 0x0, symName: __ZNSt6vectorINSt7__cxx1112basic_stringIcSt11char_traitsIcESaIcEEESaIS5_EE5clearEv, symObjAddr: 0x51D4, symBinAddr: 0x1000076F0, symSize: 0x2C }
  - { offsetInCU: 0x480D3, offset: 0x480D3, size: 0x8, addend: 0x0, symName: __ZNKSt6vectorINSt7__cxx1112basic_stringIcSt11char_traitsIcESaIcEEESaIS5_EE8capacityEv, symObjAddr: 0x5200, symBinAddr: 0x10000771C, symSize: 0x28 }
  - { offsetInCU: 0x48124, offset: 0x48124, size: 0x8, addend: 0x0, symName: __ZNKSt12_Vector_baseINSt7__cxx1112basic_stringIcSt11char_traitsIcESaIcEEESaIS5_EE19_M_get_Tp_allocatorEv, symObjAddr: 0x51C0, symBinAddr: 0x1000076DC, symSize: 0x14 }
  - { offsetInCU: 0x4812C, offset: 0x4812C, size: 0x8, addend: 0x0, symName: __ZNSt6vectorINSt7__cxx1112basic_stringIcSt11char_traitsIcESaIcEEESaIS5_EE5clearEv, symObjAddr: 0x51D4, symBinAddr: 0x1000076F0, symSize: 0x2C }
  - { offsetInCU: 0x481FC, offset: 0x481FC, size: 0x8, addend: 0x0, symName: __ZSt11__addressofIKSt6vectorINSt7__cxx1112basic_stringIcSt11char_traitsIcESaIcEEESaIS6_EEEPT_RSA_, symObjAddr: 0x51AC, symBinAddr: 0x1000076C8, symSize: 0x14 }
  - { offsetInCU: 0x48204, offset: 0x48204, size: 0x8, addend: 0x0, symName: __ZNKSt12_Vector_baseINSt7__cxx1112basic_stringIcSt11char_traitsIcESaIcEEESaIS5_EE19_M_get_Tp_allocatorEv, symObjAddr: 0x51C0, symBinAddr: 0x1000076DC, symSize: 0x14 }
  - { offsetInCU: 0x48234, offset: 0x48234, size: 0x8, addend: 0x0, symName: __ZNSt12_Vector_baseINSt7__cxx1112basic_stringIcSt11char_traitsIcESaIcEEESaIS5_EE17_Vector_impl_dataC2EOS8_, symObjAddr: 0x513C, symBinAddr: 0x100007658, symSize: 0x70 }
  - { offsetInCU: 0x4823C, offset: 0x4823C, size: 0x8, addend: 0x0, symName: __ZSt11__addressofIKSt6vectorINSt7__cxx1112basic_stringIcSt11char_traitsIcESaIcEEESaIS6_EEEPT_RSA_, symObjAddr: 0x51AC, symBinAddr: 0x1000076C8, symSize: 0x14 }
  - { offsetInCU: 0x48341, offset: 0x48341, size: 0x8, addend: 0x0, symName: __ZSt4moveIRNSt12_Vector_baseINSt7__cxx1112basic_stringIcSt11char_traitsIcESaIcEEESaIS6_EE12_Vector_implEEONSt16remove_referenceIT_E4typeEOSC_, symObjAddr: 0x5128, symBinAddr: 0x100007644, symSize: 0x14 }
  - { offsetInCU: 0x48349, offset: 0x48349, size: 0x8, addend: 0x0, symName: __ZNSt12_Vector_baseINSt7__cxx1112basic_stringIcSt11char_traitsIcESaIcEEESaIS5_EE17_Vector_impl_dataC2EOS8_, symObjAddr: 0x513C, symBinAddr: 0x100007658, symSize: 0x70 }
  - { offsetInCU: 0x48290, offset: 0x48290, size: 0x8, addend: 0x0, symName: __ZNSt6vectorINSt7__cxx1112basic_stringIcSt11char_traitsIcESaIcEEESaIS5_EE17_M_realloc_insertIJRKS5_EEEvN9__gnu_cxx17__normal_iteratorIPS5_S7_EEDpOT_, symObjAddr: 0x4E98, symBinAddr: 0x1000073B4, symSize: 0x290 }
  - { offsetInCU: 0x48298, offset: 0x48298, size: 0x8, addend: 0x0, symName: __ZSt4moveIRNSt12_Vector_baseINSt7__cxx1112basic_stringIcSt11char_traitsIcESaIcEEESaIS6_EE12_Vector_implEEONSt16remove_referenceIT_E4typeEOSC_, symObjAddr: 0x5128, symBinAddr: 0x100007644, symSize: 0x14 }
  - { offsetInCU: 0x484B2, offset: 0x484B2, size: 0x8, addend: 0x0, symName: __ZNSt6vectorINSt7__cxx1112basic_stringIcSt11char_traitsIcESaIcEEESaIS5_EE3endEv, symObjAddr: 0x4E70, symBinAddr: 0x10000738C, symSize: 0x28 }
  - { offsetInCU: 0x484BA, offset: 0x484BA, size: 0x8, addend: 0x0, symName: __ZNSt6vectorINSt7__cxx1112basic_stringIcSt11char_traitsIcESaIcEEESaIS5_EE17_M_realloc_insertIJRKS5_EEEvN9__gnu_cxx17__normal_iteratorIPS5_S7_EEDpOT_, symObjAddr: 0x4E98, symBinAddr: 0x1000073B4, symSize: 0x290 }
  - { offsetInCU: 0x48595, offset: 0x48595, size: 0x8, addend: 0x0, symName: __ZNSt12_Vector_baseINSt7__cxx1112basic_stringIcSt11char_traitsIcESaIcEEESaIS5_EE19_M_get_Tp_allocatorEv, symObjAddr: 0x4E5C, symBinAddr: 0x100007378, symSize: 0x14 }
  - { offsetInCU: 0x4859D, offset: 0x4859D, size: 0x8, addend: 0x0, symName: __ZNSt6vectorINSt7__cxx1112basic_stringIcSt11char_traitsIcESaIcEEESaIS5_EE3endEv, symObjAddr: 0x4E70, symBinAddr: 0x10000738C, symSize: 0x28 }
  - { offsetInCU: 0x485C4, offset: 0x485C4, size: 0x8, addend: 0x0, symName: __ZNSt12_Vector_baseINSt7__cxx1112basic_stringIcSt11char_traitsIcESaIcEEESaIS5_EE13_M_deallocateEPS5_m, symObjAddr: 0x4E04, symBinAddr: 0x100007320, symSize: 0x58 }
  - { offsetInCU: 0x485CC, offset: 0x485CC, size: 0x8, addend: 0x0, symName: __ZNSt12_Vector_baseINSt7__cxx1112basic_stringIcSt11char_traitsIcESaIcEEESaIS5_EE19_M_get_Tp_allocatorEv, symObjAddr: 0x4E5C, symBinAddr: 0x100007378, symSize: 0x14 }
  - { offsetInCU: 0x486DA, offset: 0x486DA, size: 0x8, addend: 0x0, symName: __ZNSt15__new_allocatorINSt7__cxx1112basic_stringIcSt11char_traitsIcESaIcEEEED2Ev, symObjAddr: 0x4DF0, symBinAddr: 0x10000730C, symSize: 0x14 }
  - { offsetInCU: 0x486E2, offset: 0x486E2, size: 0x8, addend: 0x0, symName: __ZNSt12_Vector_baseINSt7__cxx1112basic_stringIcSt11char_traitsIcESaIcEEESaIS5_EE13_M_deallocateEPS5_m, symObjAddr: 0x4E04, symBinAddr: 0x100007320, symSize: 0x58 }
  - { offsetInCU: 0x4873C, offset: 0x4873C, size: 0x8, addend: 0x0, symName: __ZNSt12_Vector_baseINSt7__cxx1112basic_stringIcSt11char_traitsIcESaIcEEESaIS5_EE17_Vector_impl_dataC1Ev, symObjAddr: 0x4DC4, symBinAddr: 0x1000072E0, symSize: 0x2C }
  - { offsetInCU: 0x48744, offset: 0x48744, size: 0x8, addend: 0x0, symName: __ZNSt15__new_allocatorINSt7__cxx1112basic_stringIcSt11char_traitsIcESaIcEEEED2Ev, symObjAddr: 0x4DF0, symBinAddr: 0x10000730C, symSize: 0x14 }
  - { offsetInCU: 0x4876C, offset: 0x4876C, size: 0x8, addend: 0x0, symName: __ZNSt12_Vector_baseINSt7__cxx1112basic_stringIcSt11char_traitsIcESaIcEEESaIS5_EE17_Vector_impl_dataC2Ev, symObjAddr: 0x4D98, symBinAddr: 0x1000072B4, symSize: 0x2C }
  - { offsetInCU: 0x48774, offset: 0x48774, size: 0x8, addend: 0x0, symName: __ZNSt12_Vector_baseINSt7__cxx1112basic_stringIcSt11char_traitsIcESaIcEEESaIS5_EE17_Vector_impl_dataC1Ev, symObjAddr: 0x4DC4, symBinAddr: 0x1000072E0, symSize: 0x2C }
  - { offsetInCU: 0x487D1, offset: 0x487D1, size: 0x8, addend: 0x0, symName: __ZSt11__addressofINSt7__cxx1112basic_stringIcSt11char_traitsIcESaIcEEEEPT_RS6_, symObjAddr: 0x4D84, symBinAddr: 0x1000072A0, symSize: 0x14 }
  - { offsetInCU: 0x487D9, offset: 0x487D9, size: 0x8, addend: 0x0, symName: __ZNSt12_Vector_baseINSt7__cxx1112basic_stringIcSt11char_traitsIcESaIcEEESaIS5_EE17_Vector_impl_dataC2Ev, symObjAddr: 0x4D98, symBinAddr: 0x1000072B4, symSize: 0x2C }
  - { offsetInCU: 0x487DE, offset: 0x487DE, size: 0x8, addend: 0x0, symName: __ZSt7forwardIiEOT_RNSt16remove_referenceIS0_E4typeE, symObjAddr: 0x4D70, symBinAddr: 0x10000728C, symSize: 0x14 }
  - { offsetInCU: 0x487E6, offset: 0x487E6, size: 0x8, addend: 0x0, symName: __ZSt11__addressofINSt7__cxx1112basic_stringIcSt11char_traitsIcESaIcEEEEPT_RS6_, symObjAddr: 0x4D84, symBinAddr: 0x1000072A0, symSize: 0x14 }
  - { offsetInCU: 0x487ED, offset: 0x487ED, size: 0x8, addend: 0x0, symName: __ZN9__gnu_cxx11char_traitsIcE2eqERKcS3_, symObjAddr: 0x4D40, symBinAddr: 0x10000725C, symSize: 0x30 }
  - { offsetInCU: 0x487F5, offset: 0x487F5, size: 0x8, addend: 0x0, symName: __ZSt7forwardIiEOT_RNSt16remove_referenceIS0_E4typeE, symObjAddr: 0x4D70, symBinAddr: 0x10000728C, symSize: 0x14 }
  - { offsetInCU: 0x48831, offset: 0x48831, size: 0x8, addend: 0x0, symName: __ZNSt6vectorIS_INSt7__cxx1112basic_stringIcSt11char_traitsIcESaIcEEESaIS5_EESaIS7_EEixEm, symObjAddr: 0x4D0C, symBinAddr: 0x100007228, symSize: 0x34 }
  - { offsetInCU: 0x48839, offset: 0x48839, size: 0x8, addend: 0x0, symName: __ZN9__gnu_cxx11char_traitsIcE2eqERKcS3_, symObjAddr: 0x4D40, symBinAddr: 0x10000725C, symSize: 0x30 }
  - { offsetInCU: 0x488F8, offset: 0x488F8, size: 0x8, addend: 0x0, symName: __ZNSt6vectorIS_INSt7__cxx1112basic_stringIcSt11char_traitsIcESaIcEEESaIS5_EESaIS7_EED1Ev, symObjAddr: 0x4CB0, symBinAddr: 0x1000071CC, symSize: 0x5C }
  - { offsetInCU: 0x48900, offset: 0x48900, size: 0x8, addend: 0x0, symName: __ZNSt6vectorIS_INSt7__cxx1112basic_stringIcSt11char_traitsIcESaIcEEESaIS5_EESaIS7_EEixEm, symObjAddr: 0x4D0C, symBinAddr: 0x100007228, symSize: 0x34 }
  - { offsetInCU: 0x489A2, offset: 0x489A2, size: 0x8, addend: 0x0, symName: __ZNSt12_Vector_baseISt6vectorINSt7__cxx1112basic_stringIcSt11char_traitsIcESaIcEEESaIS6_EESaIS8_EED2Ev, symObjAddr: 0x4C54, symBinAddr: 0x100007170, symSize: 0x5C }
  - { offsetInCU: 0x489AA, offset: 0x489AA, size: 0x8, addend: 0x0, symName: __ZNSt6vectorIS_INSt7__cxx1112basic_stringIcSt11char_traitsIcESaIcEEESaIS5_EESaIS7_EED1Ev, symObjAddr: 0x4CB0, symBinAddr: 0x1000071CC, symSize: 0x5C }
  - { offsetInCU: 0x48A25, offset: 0x48A25, size: 0x8, addend: 0x0, symName: __ZNSt12_Vector_baseISt6vectorINSt7__cxx1112basic_stringIcSt11char_traitsIcESaIcEEESaIS6_EESaIS8_EE12_Vector_implC1Ev, symObjAddr: 0x4C1C, symBinAddr: 0x100007138, symSize: 0x38 }
  - { offsetInCU: 0x48A2D, offset: 0x48A2D, size: 0x8, addend: 0x0, symName: __ZNSt12_Vector_baseISt6vectorINSt7__cxx1112basic_stringIcSt11char_traitsIcESaIcEEESaIS6_EESaIS8_EED2Ev, symObjAddr: 0x4C54, symBinAddr: 0x100007170, symSize: 0x5C }
  - { offsetInCU: 0x48A30, offset: 0x48A30, size: 0x8, addend: 0x0, symName: __ZNSt6vectorIiSaIiEEaSEOS1_, symObjAddr: 0x4BD8, symBinAddr: 0x1000070F4, symSize: 0x44 }
  - { offsetInCU: 0x48A38, offset: 0x48A38, size: 0x8, addend: 0x0, symName: __ZNSt12_Vector_baseISt6vectorINSt7__cxx1112basic_stringIcSt11char_traitsIcESaIcEEESaIS6_EESaIS8_EE12_Vector_implC1Ev, symObjAddr: 0x4C1C, symBinAddr: 0x100007138, symSize: 0x38 }
  - { offsetInCU: 0x48A89, offset: 0x48A89, size: 0x8, addend: 0x0, symName: __ZNSt6vectorIiSaIiEEixEm, symObjAddr: 0x4BB0, symBinAddr: 0x1000070CC, symSize: 0x28 }
  - { offsetInCU: 0x48A91, offset: 0x48A91, size: 0x8, addend: 0x0, symName: __ZNSt6vectorIiSaIiEEaSEOS1_, symObjAddr: 0x4BD8, symBinAddr: 0x1000070F4, symSize: 0x44 }
  - { offsetInCU: 0x48ACD, offset: 0x48ACD, size: 0x8, addend: 0x0, symName: __ZNKSt6vectorIiSaIiEE4sizeEv, symObjAddr: 0x4B88, symBinAddr: 0x1000070A4, symSize: 0x28 }
  - { offsetInCU: 0x48AD5, offset: 0x48AD5, size: 0x8, addend: 0x0, symName: __ZNSt6vectorIiSaIiEEixEm, symObjAddr: 0x4BB0, symBinAddr: 0x1000070CC, symSize: 0x28 }
  - { offsetInCU: 0x48B53, offset: 0x48B53, size: 0x8, addend: 0x0, symName: __ZSteqIcSt11char_traitsIcESaIcEEbRKNSt7__cxx1112basic_stringIT_T0_T1_EEPKS5_, symObjAddr: 0x4B14, symBinAddr: 0x100007030, symSize: 0x74 }
  - { offsetInCU: 0x48B5B, offset: 0x48B5B, size: 0x8, addend: 0x0, symName: __ZNKSt6vectorIiSaIiEE4sizeEv, symObjAddr: 0x4B88, symBinAddr: 0x1000070A4, symSize: 0x28 }
  - { offsetInCU: 0x48B79, offset: 0x48B79, size: 0x8, addend: 0x0, symName: __ZNSt7__cxx114listI11BookLendingSaIS1_EE9push_backERKS1_, symObjAddr: 0x4AE0, symBinAddr: 0x100006FFC, symSize: 0x34 }
  - { offsetInCU: 0x48B81, offset: 0x48B81, size: 0x8, addend: 0x0, symName: __ZSteqIcSt11char_traitsIcESaIcEEbRKNSt7__cxx1112basic_stringIT_T0_T1_EEPKS5_, symObjAddr: 0x4B14, symBinAddr: 0x100007030, symSize: 0x74 }
  - { offsetInCU: 0x48BBD, offset: 0x48BBD, size: 0x8, addend: 0x0, symName: __ZNKSt14_List_iteratorI11BookLendingEptEv, symObjAddr: 0x4AC0, symBinAddr: 0x100006FDC, symSize: 0x20 }
  - { offsetInCU: 0x48BC5, offset: 0x48BC5, size: 0x8, addend: 0x0, symName: __ZNSt7__cxx114listI11BookLendingSaIS1_EE9push_backERKS1_, symObjAddr: 0x4AE0, symBinAddr: 0x100006FFC, symSize: 0x34 }
  - { offsetInCU: 0x48BEC, offset: 0x48BEC, size: 0x8, addend: 0x0, symName: __ZNSt14_List_iteratorI11BookLendingEppEv, symObjAddr: 0x4A98, symBinAddr: 0x100006FB4, symSize: 0x28 }
  - { offsetInCU: 0x48BF4, offset: 0x48BF4, size: 0x8, addend: 0x0, symName: __ZNKSt14_List_iteratorI11BookLendingEptEv, symObjAddr: 0x4AC0, symBinAddr: 0x100006FDC, symSize: 0x20 }
  - { offsetInCU: 0x48C52, offset: 0x48C52, size: 0x8, addend: 0x0, symName: __ZStneRKSt14_List_iteratorI11BookLendingES3_, symObjAddr: 0x4A68, symBinAddr: 0x100006F84, symSize: 0x30 }
  - { offsetInCU: 0x48C5A, offset: 0x48C5A, size: 0x8, addend: 0x0, symName: __ZNSt14_List_iteratorI11BookLendingEppEv, symObjAddr: 0x4A98, symBinAddr: 0x100006FB4, symSize: 0x28 }
  - { offsetInCU: 0x48C7B, offset: 0x48C7B, size: 0x8, addend: 0x0, symName: __ZNSt7__cxx114listI11BookLendingSaIS1_EE3endEv, symObjAddr: 0x4A44, symBinAddr: 0x100006F60, symSize: 0x24 }
  - { offsetInCU: 0x48C83, offset: 0x48C83, size: 0x8, addend: 0x0, symName: __ZStneRKSt14_List_iteratorI11BookLendingES3_, symObjAddr: 0x4A68, symBinAddr: 0x100006F84, symSize: 0x30 }
  - { offsetInCU: 0x48CAA, offset: 0x48CAA, size: 0x8, addend: 0x0, symName: __ZNSt7__cxx114listI11BookLendingSaIS1_EE5beginEv, symObjAddr: 0x4A1C, symBinAddr: 0x100006F38, symSize: 0x28 }
  - { offsetInCU: 0x48CB2, offset: 0x48CB2, size: 0x8, addend: 0x0, symName: __ZNSt7__cxx114listI11BookLendingSaIS1_EE3endEv, symObjAddr: 0x4A44, symBinAddr: 0x100006F60, symSize: 0x24 }
  - { offsetInCU: 0x48CD9, offset: 0x48CD9, size: 0x8, addend: 0x0, symName: __ZNSt6vectorIS_INSt7__cxx1112basic_stringIcSt11char_traitsIcESaIcEEESaIS5_EESaIS7_EE9push_backEOS7_, symObjAddr: 0x49EC, symBinAddr: 0x100006F08, symSize: 0x30 }
  - { offsetInCU: 0x48CE1, offset: 0x48CE1, size: 0x8, addend: 0x0, symName: __ZNSt7__cxx114listI11BookLendingSaIS1_EE5beginEv, symObjAddr: 0x4A1C, symBinAddr: 0x100006F38, symSize: 0x28 }
  - { offsetInCU: 0x48D1D, offset: 0x48D1D, size: 0x8, addend: 0x0, symName: __ZNSt6vectorINSt7__cxx1112basic_stringIcSt11char_traitsIcESaIcEEESaIS5_EE9push_backEOS5_, symObjAddr: 0x49BC, symBinAddr: 0x100006ED8, symSize: 0x30 }
  - { offsetInCU: 0x48D25, offset: 0x48D25, size: 0x8, addend: 0x0, symName: __ZNSt6vectorIS_INSt7__cxx1112basic_stringIcSt11char_traitsIcESaIcEEESaIS5_EESaIS7_EE9push_backEOS7_, symObjAddr: 0x49EC, symBinAddr: 0x100006F08, symSize: 0x30 }
  - { offsetInCU: 0x48D61, offset: 0x48D61, size: 0x8, addend: 0x0, symName: __ZNSt6vectorINSt7__cxx1112basic_stringIcSt11char_traitsIcESaIcEEESaIS5_EEaSEOS7_, symObjAddr: 0x4978, symBinAddr: 0x100006E94, symSize: 0x44 }
  - { offsetInCU: 0x48D69, offset: 0x48D69, size: 0x8, addend: 0x0, symName: __ZNSt6vectorINSt7__cxx1112basic_stringIcSt11char_traitsIcESaIcEEESaIS5_EE9push_backEOS5_, symObjAddr: 0x49BC, symBinAddr: 0x100006ED8, symSize: 0x30 }
  - { offsetInCU: 0x48DBA, offset: 0x48DBA, size: 0x8, addend: 0x0, symName: __ZNSt6vectorIiSaIiEE9push_backEOi, symObjAddr: 0x4948, symBinAddr: 0x100006E64, symSize: 0x30 }
  - { offsetInCU: 0x48DC2, offset: 0x48DC2, size: 0x8, addend: 0x0, symName: __ZNSt6vectorINSt7__cxx1112basic_stringIcSt11char_traitsIcESaIcEEESaIS5_EEaSEOS7_, symObjAddr: 0x4978, symBinAddr: 0x100006E94, symSize: 0x44 }
  - { offsetInCU: 0x48DFE, offset: 0x48DFE, size: 0x8, addend: 0x0, symName: __ZNSt13unordered_mapIiiSt4hashIiESt8equal_toIiESaISt4pairIKiiEEEixERS5_, symObjAddr: 0x4924, symBinAddr: 0x100006E40, symSize: 0x24 }
  - { offsetInCU: 0x48E06, offset: 0x48E06, size: 0x8, addend: 0x0, symName: __ZNSt6vectorIiSaIiEE9push_backEOi, symObjAddr: 0x4948, symBinAddr: 0x100006E64, symSize: 0x30 }
  - { offsetInCU: 0x48E42, offset: 0x48E42, size: 0x8, addend: 0x0, symName: __ZNSt13unordered_mapINSt7__cxx1112basic_stringIcSt11char_traitsIcESaIcEEEiSt4hashIS5_ESt8equal_toIS5_ESaISt4pairIKS5_iEEEixERSB_, symObjAddr: 0x4900, symBinAddr: 0x100006E1C, symSize: 0x24 }
  - { offsetInCU: 0x48E4A, offset: 0x48E4A, size: 0x8, addend: 0x0, symName: __ZNSt13unordered_mapIiiSt4hashIiESt8equal_toIiESaISt4pairIKiiEEEixERS5_, symObjAddr: 0x4924, symBinAddr: 0x100006E40, symSize: 0x24 }
  - { offsetInCU: 0x48EC9, offset: 0x48EC9, size: 0x8, addend: 0x0, symName: __ZNSt6vectorIiSaIiEED1Ev, symObjAddr: 0x48A4, symBinAddr: 0x100006DC0, symSize: 0x5C }
  - { offsetInCU: 0x48ED1, offset: 0x48ED1, size: 0x8, addend: 0x0, symName: __ZNSt13unordered_mapINSt7__cxx1112basic_stringIcSt11char_traitsIcESaIcEEEiSt4hashIS5_ESt8equal_toIS5_ESaISt4pairIKS5_iEEEixERSB_, symObjAddr: 0x4900, symBinAddr: 0x100006E1C, symSize: 0x24 }
  - { offsetInCU: 0x48F6C, offset: 0x48F6C, size: 0x8, addend: 0x0, symName: __ZNSt12_Vector_baseIiSaIiEED2Ev, symObjAddr: 0x4854, symBinAddr: 0x100006D70, symSize: 0x50 }
  - { offsetInCU: 0x48F74, offset: 0x48F74, size: 0x8, addend: 0x0, symName: __ZNSt6vectorIiSaIiEED1Ev, symObjAddr: 0x48A4, symBinAddr: 0x100006DC0, symSize: 0x5C }
  - { offsetInCU: 0x48FEF, offset: 0x48FEF, size: 0x8, addend: 0x0, symName: __ZNSt12_Vector_baseIiSaIiEE12_Vector_implC1Ev, symObjAddr: 0x481C, symBinAddr: 0x100006D38, symSize: 0x38 }
  - { offsetInCU: 0x48FF7, offset: 0x48FF7, size: 0x8, addend: 0x0, symName: __ZNSt12_Vector_baseIiSaIiEED2Ev, symObjAddr: 0x4854, symBinAddr: 0x100006D70, symSize: 0x50 }
  - { offsetInCU: 0x4908D, offset: 0x4908D, size: 0x8, addend: 0x0, symName: __ZNSt8__detailneERKNS_19_Node_iterator_baseISt4pairIKiiELb0EEES6_, symObjAddr: 0x47EC, symBinAddr: 0x100006D08, symSize: 0x30 }
  - { offsetInCU: 0x49095, offset: 0x49095, size: 0x8, addend: 0x0, symName: __ZNSt12_Vector_baseIiSaIiEE12_Vector_implC1Ev, symObjAddr: 0x481C, symBinAddr: 0x100006D38, symSize: 0x38 }
  - { offsetInCU: 0x490A1, offset: 0x490A1, size: 0x8, addend: 0x0, symName: __ZNSt13unordered_mapIiiSt4hashIiESt8equal_toIiESaISt4pairIKiiEEE3endEv, symObjAddr: 0x47D0, symBinAddr: 0x100006CEC, symSize: 0x1C }
  - { offsetInCU: 0x490A9, offset: 0x490A9, size: 0x8, addend: 0x0, symName: __ZNSt8__detailneERKNS_19_Node_iterator_baseISt4pairIKiiELb0EEES6_, symObjAddr: 0x47EC, symBinAddr: 0x100006D08, symSize: 0x30 }
  - { offsetInCU: 0x490D0, offset: 0x490D0, size: 0x8, addend: 0x0, symName: __ZNSt13unordered_mapIiiSt4hashIiESt8equal_toIiESaISt4pairIKiiEEE4findERS5_, symObjAddr: 0x47AC, symBinAddr: 0x100006CC8, symSize: 0x24 }
  - { offsetInCU: 0x490D8, offset: 0x490D8, size: 0x8, addend: 0x0, symName: __ZNSt13unordered_mapIiiSt4hashIiESt8equal_toIiESaISt4pairIKiiEEE3endEv, symObjAddr: 0x47D0, symBinAddr: 0x100006CEC, symSize: 0x1C }
  - { offsetInCU: 0x49114, offset: 0x49114, size: 0x8, addend: 0x0, symName: __ZNSt6vectorI8BookItemSaIS0_EEaSERKS2_, symObjAddr: 0x4414, symBinAddr: 0x100006930, symSize: 0x398 }
  - { offsetInCU: 0x4911C, offset: 0x4911C, size: 0x8, addend: 0x0, symName: __ZNSt13unordered_mapIiiSt4hashIiESt8equal_toIiESaISt4pairIKiiEEE4findERS5_, symObjAddr: 0x47AC, symBinAddr: 0x100006CC8, symSize: 0x24 }
  - { offsetInCU: 0x492E0, offset: 0x492E0, size: 0x8, addend: 0x0, symName: __ZNSt6vectorI4RackSaIS0_EEixEm, symObjAddr: 0x43E0, symBinAddr: 0x1000068FC, symSize: 0x34 }
  - { offsetInCU: 0x492E8, offset: 0x492E8, size: 0x8, addend: 0x0, symName: __ZNSt6vectorI8BookItemSaIS0_EEaSERKS2_, symObjAddr: 0x4414, symBinAddr: 0x100006930, symSize: 0x398 }
  - { offsetInCU: 0x49324, offset: 0x49324, size: 0x8, addend: 0x0, symName: __ZNSt6vectorI4RackSaIS0_EE6resizeEm, symObjAddr: 0x4324, symBinAddr: 0x100006840, symSize: 0xBC }
  - { offsetInCU: 0x4932C, offset: 0x4932C, size: 0x8, addend: 0x0, symName: __ZNSt6vectorI4RackSaIS0_EEixEm, symObjAddr: 0x43E0, symBinAddr: 0x1000068FC, symSize: 0x34 }
  - { offsetInCU: 0x49464, offset: 0x49464, size: 0x8, addend: 0x0, symName: __ZNSt10_HashtableIiSt4pairIKiiESaIS2_ENSt8__detail10_Select1stESt8equal_toIiESt4hashIiENS4_18_Mod_range_hashingENS4_20_Default_ranged_hashENS4_20_Prime_rehash_policyENS4_17_Hashtable_traitsILb0ELb0ELb1EEEED1Ev, symObjAddr: 0x42F4, symBinAddr: 0x100006810, symSize: 0x30 }
  - { offsetInCU: 0x4946C, offset: 0x4946C, size: 0x8, addend: 0x0, symName: __ZNSt6vectorI4RackSaIS0_EE6resizeEm, symObjAddr: 0x4324, symBinAddr: 0x100006840, symSize: 0xBC }
  - { offsetInCU: 0x49461, offset: 0x49461, size: 0x8, addend: 0x0, symName: __ZNSt8__detail21_Hashtable_ebo_helperILi0ESaINS_10_Hash_nodeISt4pairIKiiELb0EEEELb1EEC2Ev, symObjAddr: 0x42C8, symBinAddr: 0x1000067E4, symSize: 0x2C }
  - { offsetInCU: 0x49469, offset: 0x49469, size: 0x8, addend: 0x0, symName: __ZNSt10_HashtableIiSt4pairIKiiESaIS2_ENSt8__detail10_Select1stESt8equal_toIiESt4hashIiENS4_18_Mod_range_hashingENS4_20_Default_ranged_hashENS4_20_Prime_rehash_policyENS4_17_Hashtable_traitsILb0ELb0ELb1EEEED1Ev, symObjAddr: 0x42F4, symBinAddr: 0x100006810, symSize: 0x30 }
  - { offsetInCU: 0x494E4, offset: 0x494E4, size: 0x8, addend: 0x0, symName: __ZNSt8__detail21_Hashtable_ebo_helperILi0ESt8equal_toIiELb1EEC2Ev, symObjAddr: 0x42B4, symBinAddr: 0x1000067D0, symSize: 0x14 }
  - { offsetInCU: 0x494EC, offset: 0x494EC, size: 0x8, addend: 0x0, symName: __ZNSt8__detail21_Hashtable_ebo_helperILi0ESaINS_10_Hash_nodeISt4pairIKiiELb0EEEELb1EEC2Ev, symObjAddr: 0x42C8, symBinAddr: 0x1000067E4, symSize: 0x2C }
  - { offsetInCU: 0x4952B, offset: 0x4952B, size: 0x8, addend: 0x0, symName: __ZNSt8__detail21_Hashtable_ebo_helperILi1ESt4hashIiELb1EEC2Ev, symObjAddr: 0x42A0, symBinAddr: 0x1000067BC, symSize: 0x14 }
  - { offsetInCU: 0x49533, offset: 0x49533, size: 0x8, addend: 0x0, symName: __ZNSt8__detail21_Hashtable_ebo_helperILi0ESt8equal_toIiELb1EEC2Ev, symObjAddr: 0x42B4, symBinAddr: 0x1000067D0, symSize: 0x14 }
  - { offsetInCU: 0x49652, offset: 0x49652, size: 0x8, addend: 0x0, symName: __ZNSt10_HashtableINSt7__cxx1112basic_stringIcSt11char_traitsIcESaIcEEESt4pairIKS5_iESaIS8_ENSt8__detail10_Select1stESt8equal_toIS5_ESt4hashIS5_ENSA_18_Mod_range_hashingENSA_20_Default_ranged_hashENSA_20_Prime_rehash_policyENSA_17_Hashtable_traitsILb1ELb0ELb1EEEED1Ev, symObjAddr: 0x4270, symBinAddr: 0x10000678C, symSize: 0x30 }
  - { offsetInCU: 0x4965A, offset: 0x4965A, size: 0x8, addend: 0x0, symName: __ZNSt8__detail21_Hashtable_ebo_helperILi1ESt4hashIiELb1EEC2Ev, symObjAddr: 0x42A0, symBinAddr: 0x1000067BC, symSize: 0x14 }
  - { offsetInCU: 0x49649, offset: 0x49649, size: 0x8, addend: 0x0, symName: __ZNSt8__detail21_Hashtable_ebo_helperILi0ESaINS_10_Hash_nodeISt4pairIKNSt7__cxx1112basic_stringIcSt11char_traitsIcESaIcEEEiELb1EEEELb1EEC2Ev, symObjAddr: 0x4244, symBinAddr: 0x100006760, symSize: 0x2C }
  - { offsetInCU: 0x49651, offset: 0x49651, size: 0x8, addend: 0x0, symName: __ZNSt10_HashtableINSt7__cxx1112basic_stringIcSt11char_traitsIcESaIcEEESt4pairIKS5_iESaIS8_ENSt8__detail10_Select1stESt8equal_toIS5_ESt4hashIS5_ENSA_18_Mod_range_hashingENSA_20_Default_ranged_hashENSA_20_Prime_rehash_policyENSA_17_Hashtable_traitsILb1ELb0ELb1EEEED1Ev, symObjAddr: 0x4270, symBinAddr: 0x10000678C, symSize: 0x30 }
  - { offsetInCU: 0x496CC, offset: 0x496CC, size: 0x8, addend: 0x0, symName: __ZNSt8__detail21_Hashtable_ebo_helperILi0ESt8equal_toINSt7__cxx1112basic_stringIcSt11char_traitsIcESaIcEEEELb1EEC2Ev, symObjAddr: 0x4230, symBinAddr: 0x10000674C, symSize: 0x14 }
  - { offsetInCU: 0x496D4, offset: 0x496D4, size: 0x8, addend: 0x0, symName: __ZNSt8__detail21_Hashtable_ebo_helperILi0ESaINS_10_Hash_nodeISt4pairIKNSt7__cxx1112basic_stringIcSt11char_traitsIcESaIcEEEiELb1EEEELb1EEC2Ev, symObjAddr: 0x4244, symBinAddr: 0x100006760, symSize: 0x2C }
  - { offsetInCU: 0x49713, offset: 0x49713, size: 0x8, addend: 0x0, symName: __ZNSt8__detail21_Hashtable_ebo_helperILi1ESt4hashINSt7__cxx1112basic_stringIcSt11char_traitsIcESaIcEEEELb1EEC2Ev, symObjAddr: 0x421C, symBinAddr: 0x100006738, symSize: 0x14 }
  - { offsetInCU: 0x4971B, offset: 0x4971B, size: 0x8, addend: 0x0, symName: __ZNSt8__detail21_Hashtable_ebo_helperILi0ESt8equal_toINSt7__cxx1112basic_stringIcSt11char_traitsIcESaIcEEEELb1EEC2Ev, symObjAddr: 0x4230, symBinAddr: 0x10000674C, symSize: 0x14 }
  - { offsetInCU: 0x49730, offset: 0x49730, size: 0x8, addend: 0x0, symName: __ZNSt7__cxx1110_List_baseI11BookLendingSaIS1_EED2Ev, symObjAddr: 0x41F4, symBinAddr: 0x100006710, symSize: 0x28 }
  - { offsetInCU: 0x49738, offset: 0x49738, size: 0x8, addend: 0x0, symName: __ZNSt8__detail21_Hashtable_ebo_helperILi1ESt4hashINSt7__cxx1112basic_stringIcSt11char_traitsIcESaIcEEEELb1EEC2Ev, symObjAddr: 0x421C, symBinAddr: 0x100006738, symSize: 0x14 }
  - { offsetInCU: 0x497B1, offset: 0x497B1, size: 0x8, addend: 0x0, symName: __ZNSt7__cxx1110_List_baseI11BookLendingSaIS1_EE10_List_implC1Ev, symObjAddr: 0x41BC, symBinAddr: 0x1000066D8, symSize: 0x38 }
  - { offsetInCU: 0x497B9, offset: 0x497B9, size: 0x8, addend: 0x0, symName: __ZNSt7__cxx1110_List_baseI11BookLendingSaIS1_EED2Ev, symObjAddr: 0x41F4, symBinAddr: 0x100006710, symSize: 0x28 }
  - { offsetInCU: 0x4983A, offset: 0x4983A, size: 0x8, addend: 0x0, symName: __ZNSt6vectorI4RackSaIS0_EED1Ev, symObjAddr: 0x4160, symBinAddr: 0x10000667C, symSize: 0x5C }
  - { offsetInCU: 0x49842, offset: 0x49842, size: 0x8, addend: 0x0, symName: __ZNSt7__cxx1110_List_baseI11BookLendingSaIS1_EE10_List_implC1Ev, symObjAddr: 0x41BC, symBinAddr: 0x1000066D8, symSize: 0x38 }
  - { offsetInCU: 0x498DD, offset: 0x498DD, size: 0x8, addend: 0x0, symName: __ZNSt12_Vector_baseI4RackSaIS0_EED2Ev, symObjAddr: 0x4104, symBinAddr: 0x100006620, symSize: 0x5C }
  - { offsetInCU: 0x498E5, offset: 0x498E5, size: 0x8, addend: 0x0, symName: __ZNSt6vectorI4RackSaIS0_EED1Ev, symObjAddr: 0x4160, symBinAddr: 0x10000667C, symSize: 0x5C }
  - { offsetInCU: 0x49960, offset: 0x49960, size: 0x8, addend: 0x0, symName: __ZNSt12_Vector_baseI4RackSaIS0_EE12_Vector_implC1Ev, symObjAddr: 0x40CC, symBinAddr: 0x1000065E8, symSize: 0x38 }
  - { offsetInCU: 0x49968, offset: 0x49968, size: 0x8, addend: 0x0, symName: __ZNSt12_Vector_baseI4RackSaIS0_EED2Ev, symObjAddr: 0x4104, symBinAddr: 0x100006620, symSize: 0x5C }
  - { offsetInCU: 0x499AC, offset: 0x499AC, size: 0x8, addend: 0x0, symName: __ZNSt6vectorISt4pairI8BookItemNSt7__cxx1112basic_stringIcSt11char_traitsIcESaIcEEEESaIS8_EE9push_backEOS8_, symObjAddr: 0x409C, symBinAddr: 0x1000065B8, symSize: 0x30 }
  - { offsetInCU: 0x499B4, offset: 0x499B4, size: 0x8, addend: 0x0, symName: __ZNSt12_Vector_baseI4RackSaIS0_EE12_Vector_implC1Ev, symObjAddr: 0x40CC, symBinAddr: 0x1000065E8, symSize: 0x38 }
  - { offsetInCU: 0x49AAB, offset: 0x49AAB, size: 0x8, addend: 0x0, symName: __ZNSt4pairI8BookItemNSt7__cxx1112basic_stringIcSt11char_traitsIcESaIcEEEEC1IRS0_RS6_Lb1EEEOT_OT0_, symObjAddr: 0x402C, symBinAddr: 0x100006548, symSize: 0x70 }
  - { offsetInCU: 0x49AB3, offset: 0x49AB3, size: 0x8, addend: 0x0, symName: __ZNSt6vectorISt4pairI8BookItemNSt7__cxx1112basic_stringIcSt11char_traitsIcESaIcEEEESaIS8_EE9push_backEOS8_, symObjAddr: 0x409C, symBinAddr: 0x1000065B8, symSize: 0x30 }
  - { offsetInCU: 0x49B37, offset: 0x49B37, size: 0x8, addend: 0x0, symName: __ZNSt6vectorISt4pairI8BookItemNSt7__cxx1112basic_stringIcSt11char_traitsIcESaIcEEEESaIS8_EED1Ev, symObjAddr: 0x3FD0, symBinAddr: 0x1000064EC, symSize: 0x5C }
  - { offsetInCU: 0x49B3F, offset: 0x49B3F, size: 0x8, addend: 0x0, symName: __ZNSt4pairI8BookItemNSt7__cxx1112basic_stringIcSt11char_traitsIcESaIcEEEEC1IRS0_RS6_Lb1EEEOT_OT0_, symObjAddr: 0x402C, symBinAddr: 0x100006548, symSize: 0x70 }
  - { offsetInCU: 0x49BDA, offset: 0x49BDA, size: 0x8, addend: 0x0, symName: __ZNSt12_Vector_baseISt4pairI8BookItemNSt7__cxx1112basic_stringIcSt11char_traitsIcESaIcEEEESaIS8_EED2Ev, symObjAddr: 0x3F6C, symBinAddr: 0x100006488, symSize: 0x64 }
  - { offsetInCU: 0x49BE2, offset: 0x49BE2, size: 0x8, addend: 0x0, symName: __ZNSt6vectorISt4pairI8BookItemNSt7__cxx1112basic_stringIcSt11char_traitsIcESaIcEEEESaIS8_EED1Ev, symObjAddr: 0x3FD0, symBinAddr: 0x1000064EC, symSize: 0x5C }
  - { offsetInCU: 0x49C5D, offset: 0x49C5D, size: 0x8, addend: 0x0, symName: __ZNSt12_Vector_baseISt4pairI8BookItemNSt7__cxx1112basic_stringIcSt11char_traitsIcESaIcEEEESaIS8_EE12_Vector_implC1Ev, symObjAddr: 0x3F34, symBinAddr: 0x100006450, symSize: 0x38 }
  - { offsetInCU: 0x49C65, offset: 0x49C65, size: 0x8, addend: 0x0, symName: __ZNSt12_Vector_baseISt4pairI8BookItemNSt7__cxx1112basic_stringIcSt11char_traitsIcESaIcEEEESaIS8_EED2Ev, symObjAddr: 0x3F6C, symBinAddr: 0x100006488, symSize: 0x64 }
  - { offsetInCU: 0x49CBD, offset: 0x49CBD, size: 0x8, addend: 0x0, symName: __ZSteqIcSt11char_traitsIcESaIcEEbRKNSt7__cxx1112basic_stringIT_T0_T1_EESA_, symObjAddr: 0x3EB4, symBinAddr: 0x1000063D0, symSize: 0x80 }
  - { offsetInCU: 0x49CC5, offset: 0x49CC5, size: 0x8, addend: 0x0, symName: __ZNSt12_Vector_baseISt4pairI8BookItemNSt7__cxx1112basic_stringIcSt11char_traitsIcESaIcEEEESaIS8_EE12_Vector_implC1Ev, symObjAddr: 0x3F34, symBinAddr: 0x100006450, symSize: 0x38 }
  - { offsetInCU: 0x49CE5, offset: 0x49CE5, size: 0x8, addend: 0x0, symName: __ZNSt6vectorINSt7__cxx1112basic_stringIcSt11char_traitsIcESaIcEEESaIS5_EEixEm, symObjAddr: 0x3E8C, symBinAddr: 0x1000063A8, symSize: 0x28 }
  - { offsetInCU: 0x49CED, offset: 0x49CED, size: 0x8, addend: 0x0, symName: __ZSteqIcSt11char_traitsIcESaIcEEbRKNSt7__cxx1112basic_stringIT_T0_T1_EESA_, symObjAddr: 0x3EB4, symBinAddr: 0x1000063D0, symSize: 0x80 }
  - { offsetInCU: 0x49D29, offset: 0x49D29, size: 0x8, addend: 0x0, symName: __ZNKSt6vectorINSt7__cxx1112basic_stringIcSt11char_traitsIcESaIcEEESaIS5_EE4sizeEv, symObjAddr: 0x3E64, symBinAddr: 0x100006380, symSize: 0x28 }
  - { offsetInCU: 0x49D31, offset: 0x49D31, size: 0x8, addend: 0x0, symName: __ZNSt6vectorINSt7__cxx1112basic_stringIcSt11char_traitsIcESaIcEEESaIS5_EEixEm, symObjAddr: 0x3E8C, symBinAddr: 0x1000063A8, symSize: 0x28 }
  - { offsetInCU: 0x49D58, offset: 0x49D58, size: 0x8, addend: 0x0, symName: __ZNSt6vectorI8BookItemSaIS0_EEixEm, symObjAddr: 0x3E30, symBinAddr: 0x10000634C, symSize: 0x34 }
  - { offsetInCU: 0x49D60, offset: 0x49D60, size: 0x8, addend: 0x0, symName: __ZNKSt6vectorINSt7__cxx1112basic_stringIcSt11char_traitsIcESaIcEEESaIS5_EE4sizeEv, symObjAddr: 0x3E64, symBinAddr: 0x100006380, symSize: 0x28 }
  - { offsetInCU: 0x49D9C, offset: 0x49D9C, size: 0x8, addend: 0x0, symName: __ZNKSt6vectorI8BookItemSaIS0_EE4sizeEv, symObjAddr: 0x3DFC, symBinAddr: 0x100006318, symSize: 0x34 }
  - { offsetInCU: 0x49DA4, offset: 0x49DA4, size: 0x8, addend: 0x0, symName: __ZNSt6vectorI8BookItemSaIS0_EEixEm, symObjAddr: 0x3E30, symBinAddr: 0x10000634C, symSize: 0x34 }
  - { offsetInCU: 0x49DCB, offset: 0x49DCB, size: 0x8, addend: 0x0, symName: __ZNSt6vectorI8BookItemSaIS0_EE9push_backERKS0_, symObjAddr: 0x3CF4, symBinAddr: 0x100006210, symSize: 0x108 }
  - { offsetInCU: 0x49DD3, offset: 0x49DD3, size: 0x8, addend: 0x0, symName: __ZNKSt6vectorI8BookItemSaIS0_EE4sizeEv, symObjAddr: 0x3DFC, symBinAddr: 0x100006318, symSize: 0x34 }
  - { offsetInCU: 0x49E93, offset: 0x49E93, size: 0x8, addend: 0x0, symName: __ZNSt6vectorI8BookItemSaIS0_EE5clearEv, symObjAddr: 0x3CC8, symBinAddr: 0x1000061E4, symSize: 0x2C }
  - { offsetInCU: 0x49E9B, offset: 0x49E9B, size: 0x8, addend: 0x0, symName: __ZNSt6vectorI8BookItemSaIS0_EE9push_backERKS0_, symObjAddr: 0x3CF4, symBinAddr: 0x100006210, symSize: 0x108 }
  - { offsetInCU: 0x49F0F, offset: 0x49F0F, size: 0x8, addend: 0x0, symName: __ZNSt6vectorI8BookItemSaIS0_EED1Ev, symObjAddr: 0x3C6C, symBinAddr: 0x100006188, symSize: 0x5C }
  - { offsetInCU: 0x49F17, offset: 0x49F17, size: 0x8, addend: 0x0, symName: __ZNSt6vectorI8BookItemSaIS0_EE5clearEv, symObjAddr: 0x3CC8, symBinAddr: 0x1000061E4, symSize: 0x2C }
  - { offsetInCU: 0x49FB2, offset: 0x49FB2, size: 0x8, addend: 0x0, symName: __ZNSt12_Vector_baseI8BookItemSaIS0_EED2Ev, symObjAddr: 0x3C10, symBinAddr: 0x10000612C, symSize: 0x5C }
  - { offsetInCU: 0x49FBA, offset: 0x49FBA, size: 0x8, addend: 0x0, symName: __ZNSt6vectorI8BookItemSaIS0_EED1Ev, symObjAddr: 0x3C6C, symBinAddr: 0x100006188, symSize: 0x5C }
  - { offsetInCU: 0x4A035, offset: 0x4A035, size: 0x8, addend: 0x0, symName: __ZNSt12_Vector_baseI8BookItemSaIS0_EE12_Vector_implC1Ev, symObjAddr: 0x3BD8, symBinAddr: 0x1000060F4, symSize: 0x38 }
  - { offsetInCU: 0x4A03D, offset: 0x4A03D, size: 0x8, addend: 0x0, symName: __ZNSt12_Vector_baseI8BookItemSaIS0_EED2Ev, symObjAddr: 0x3C10, symBinAddr: 0x10000612C, symSize: 0x5C }
  - { offsetInCU: 0x4A0FC, offset: 0x4A0FC, size: 0x8, addend: 0x0, symName: __ZNSt6vectorINSt7__cxx1112basic_stringIcSt11char_traitsIcESaIcEEESaIS5_EEC1ERKS7_, symObjAddr: 0x3AC4, symBinAddr: 0x100005FE0, symSize: 0x114 }
  - { offsetInCU: 0x4A104, offset: 0x4A104, size: 0x8, addend: 0x0, symName: __ZNSt12_Vector_baseI8BookItemSaIS0_EE12_Vector_implC1Ev, symObjAddr: 0x3BD8, symBinAddr: 0x1000060F4, symSize: 0x38 }
  - { offsetInCU: 0x4A1ED, offset: 0x4A1ED, size: 0x8, addend: 0x0, symName: __ZNSt6vectorINSt7__cxx1112basic_stringIcSt11char_traitsIcESaIcEEESaIS5_EEaSERKS7_, symObjAddr: 0x377C, symBinAddr: 0x100005C98, symSize: 0x348 }
  - { offsetInCU: 0x4A1F5, offset: 0x4A1F5, size: 0x8, addend: 0x0, symName: __ZNSt6vectorINSt7__cxx1112basic_stringIcSt11char_traitsIcESaIcEEESaIS5_EEC1ERKS7_, symObjAddr: 0x3AC4, symBinAddr: 0x100005FE0, symSize: 0x114 }
  - { offsetInCU: 0x4A440, offset: 0x4A440, size: 0x8, addend: 0x0, symName: __ZNSt12_Vector_baseINSt7__cxx1112basic_stringIcSt11char_traitsIcESaIcEEESaIS5_EE12_Vector_implC1EOS8_, symObjAddr: 0x3710, symBinAddr: 0x100005C2C, symSize: 0x6C }
  - { offsetInCU: 0x4A448, offset: 0x4A448, size: 0x8, addend: 0x0, symName: __ZNSt6vectorINSt7__cxx1112basic_stringIcSt11char_traitsIcESaIcEEESaIS5_EEaSERKS7_, symObjAddr: 0x377C, symBinAddr: 0x100005C98, symSize: 0x348 }
  - { offsetInCU: 0x4A481, offset: 0x4A481, size: 0x8, addend: 0x0, symName: __ZNSt6vectorINSt7__cxx1112basic_stringIcSt11char_traitsIcESaIcEEESaIS5_EE9push_backERKS5_, symObjAddr: 0x3608, symBinAddr: 0x100005B24, symSize: 0x108 }
  - { offsetInCU: 0x4A489, offset: 0x4A489, size: 0x8, addend: 0x0, symName: __ZNSt12_Vector_baseINSt7__cxx1112basic_stringIcSt11char_traitsIcESaIcEEESaIS5_EE12_Vector_implC1EOS8_, symObjAddr: 0x3710, symBinAddr: 0x100005C2C, symSize: 0x6C }
  - { offsetInCU: 0x4A5D5, offset: 0x4A5D5, size: 0x8, addend: 0x0, symName: __ZNSt6vectorINSt7__cxx1112basic_stringIcSt11char_traitsIcESaIcEEESaIS5_EED1Ev, symObjAddr: 0x35AC, symBinAddr: 0x100005AC8, symSize: 0x5C }
  - { offsetInCU: 0x4A5DD, offset: 0x4A5DD, size: 0x8, addend: 0x0, symName: __ZNSt6vectorINSt7__cxx1112basic_stringIcSt11char_traitsIcESaIcEEESaIS5_EE9push_backERKS5_, symObjAddr: 0x3608, symBinAddr: 0x100005B24, symSize: 0x108 }
  - { offsetInCU: 0x4A678, offset: 0x4A678, size: 0x8, addend: 0x0, symName: __ZNSt12_Vector_baseINSt7__cxx1112basic_stringIcSt11char_traitsIcESaIcEEESaIS5_EED2Ev, symObjAddr: 0x355C, symBinAddr: 0x100005A78, symSize: 0x50 }
  - { offsetInCU: 0x4A680, offset: 0x4A680, size: 0x8, addend: 0x0, symName: __ZNSt6vectorINSt7__cxx1112basic_stringIcSt11char_traitsIcESaIcEEESaIS5_EED1Ev, symObjAddr: 0x35AC, symBinAddr: 0x100005AC8, symSize: 0x5C }
  - { offsetInCU: 0x4A6FB, offset: 0x4A6FB, size: 0x8, addend: 0x0, symName: __ZNSt12_Vector_baseINSt7__cxx1112basic_stringIcSt11char_traitsIcESaIcEEESaIS5_EE12_Vector_implC1Ev, symObjAddr: 0x3524, symBinAddr: 0x100005A40, symSize: 0x38 }
  - { offsetInCU: 0x4A703, offset: 0x4A703, size: 0x8, addend: 0x0, symName: __ZNSt12_Vector_baseINSt7__cxx1112basic_stringIcSt11char_traitsIcESaIcEEESaIS5_EED2Ev, symObjAddr: 0x355C, symBinAddr: 0x100005A78, symSize: 0x50 }
  - { offsetInCU: 0x4A7A9, offset: 0x4A7A9, size: 0x8, addend: 0x0, symName: __ZSt4moveIRNSt7__cxx1112basic_stringIcSt11char_traitsIcESaIcEEEEONSt16remove_referenceIT_E4typeEOS8_, symObjAddr: 0x3510, symBinAddr: 0x100005A2C, symSize: 0x14 }
  - { offsetInCU: 0x4A7B1, offset: 0x4A7B1, size: 0x8, addend: 0x0, symName: __ZNSt12_Vector_baseINSt7__cxx1112basic_stringIcSt11char_traitsIcESaIcEEESaIS5_EE12_Vector_implC1Ev, symObjAddr: 0x3524, symBinAddr: 0x100005A40, symSize: 0x38 }
  - { offsetInCU: 0x4A79E, offset: 0x4A79E, size: 0x8, addend: 0x0, symName: __ZSt3maxImERKT_S2_S2_, symObjAddr: 0x34D8, symBinAddr: 0x1000059F4, symSize: 0x38 }
  - { offsetInCU: 0x4A7A6, offset: 0x4A7A6, size: 0x8, addend: 0x0, symName: __ZSt4moveIRNSt7__cxx1112basic_stringIcSt11char_traitsIcESaIcEEEEONSt16remove_referenceIT_E4typeEOS8_, symObjAddr: 0x3510, symBinAddr: 0x100005A2C, symSize: 0x14 }
  - { offsetInCU: 0x4A834, offset: 0x4A834, size: 0x8, addend: 0x0, symName: __ZN9__gnu_cxx6__stoaIlicJiEEET0_PFT_PKT1_PPS3_DpT2_EPKcS5_PmS9_, symObjAddr: 0x33D0, symBinAddr: 0x1000058EC, symSize: 0x108 }
  - { offsetInCU: 0x4A83C, offset: 0x4A83C, size: 0x8, addend: 0x0, symName: __ZSt3maxImERKT_S2_S2_, symObjAddr: 0x34D8, symBinAddr: 0x1000059F4, symSize: 0x38 }
  - { offsetInCU: 0x4A9B5, offset: 0x4A9B5, size: 0x8, addend: 0x0, symName: __ZZN9__gnu_cxx6__stoaIlicJiEEET0_PFT_PKT1_PPS3_DpT2_EPKcS5_PmS9_EN11_Save_errnoC1Ev, symObjAddr: 0x3310, symBinAddr: 0x10000582C, symSize: 0x30 }
  - { offsetInCU: 0x4A9BD, offset: 0x4A9BD, size: 0x8, addend: 0x0, symName: __ZZN9__gnu_cxx6__stoaIlicJiEEET0_PFT_PKT1_PPS3_DpT2_EPKcS5_PmS9_EN11_Save_errnoD1Ev, symObjAddr: 0x3340, symBinAddr: 0x10000585C, symSize: 0x50 }
  - { offsetInCU: 0x4A9E6, offset: 0x4A9E6, size: 0x8, addend: 0x0, symName: __ZZN9__gnu_cxx6__stoaIlicJiEEET0_PFT_PKT1_PPS3_DpT2_EPKcS5_PmS9_EN11_Save_errnoD1Ev, symObjAddr: 0x3340, symBinAddr: 0x10000585C, symSize: 0x50 }
  - { offsetInCU: 0x4A9EE, offset: 0x4A9EE, size: 0x8, addend: 0x0, symName: __ZZN9__gnu_cxx6__stoaIlicJiEEET0_PFT_PKT1_PPS3_DpT2_EPKcS5_PmS9_EN10_Range_chk6_S_chkElSt17integral_constantIbLb1EE, symObjAddr: 0x3390, symBinAddr: 0x1000058AC, symSize: 0x40 }
  - { offsetInCU: 0x4AA87, offset: 0x4AA87, size: 0x8, addend: 0x0, symName: __ZZN9__gnu_cxx6__stoaIlicJiEEET0_PFT_PKT1_PPS3_DpT2_EPKcS5_PmS9_EN10_Range_chk6_S_chkElSt17integral_constantIbLb1EE, symObjAddr: 0x3390, symBinAddr: 0x1000058AC, symSize: 0x40 }
  - { offsetInCU: 0x4AA8F, offset: 0x4AA8F, size: 0x8, addend: 0x0, symName: __ZN9__gnu_cxx6__stoaIlicJiEEET0_PFT_PKT1_PPS3_DpT2_EPKcS5_PmS9_, symObjAddr: 0x33D0, symBinAddr: 0x1000058EC, symSize: 0x108 }
  - { offsetInCU: 0x4AA9E, offset: 0x4AA9E, size: 0x8, addend: 0x0, symName: __ZN9__gnu_cxx11char_traitsIcE6lengthEPKc, symObjAddr: 0x32B4, symBinAddr: 0x1000057D0, symSize: 0x5C }
  - { offsetInCU: 0x4AAA6, offset: 0x4AAA6, size: 0x8, addend: 0x0, symName: __ZZN9__gnu_cxx6__stoaIlicJiEEET0_PFT_PKT1_PPS3_DpT2_EPKcS5_PmS9_EN11_Save_errnoC1Ev, symObjAddr: 0x3310, symBinAddr: 0x10000582C, symSize: 0x30 }
  - { offsetInCU: 0x4AAED, offset: 0x4AAED, size: 0x8, addend: 0x0, symName: _main, symObjAddr: 0x2418, symBinAddr: 0x100004934, symSize: 0xE9C }
  - { offsetInCU: 0x4AAF5, offset: 0x4AAF5, size: 0x8, addend: 0x0, symName: __ZN9__gnu_cxx11char_traitsIcE6lengthEPKc, symObjAddr: 0x32B4, symBinAddr: 0x1000057D0, symSize: 0x5C }
  - { offsetInCU: 0x4AEED, offset: 0x4AEED, size: 0x8, addend: 0x0, symName: __ZNSt6vectorIS_INSt7__cxx1112basic_stringIcSt11char_traitsIcESaIcEEESaIS5_EESaIS7_EEC1Ev, symObjAddr: 0x23F8, symBinAddr: 0x100004914, symSize: 0x20 }
  - { offsetInCU: 0x4AEF5, offset: 0x4AEF5, size: 0x8, addend: 0x0, symName: _main, symObjAddr: 0x2418, symBinAddr: 0x100004934, symSize: 0xE9C }
  - { offsetInCU: 0x4AF46, offset: 0x4AF46, size: 0x8, addend: 0x0, symName: __ZNSt12_Vector_baseISt6vectorINSt7__cxx1112basic_stringIcSt11char_traitsIcESaIcEEESaIS6_EESaIS8_EEC2Ev, symObjAddr: 0x23D8, symBinAddr: 0x1000048F4, symSize: 0x20 }
  - { offsetInCU: 0x4AF4E, offset: 0x4AF4E, size: 0x8, addend: 0x0, symName: __ZNSt6vectorIS_INSt7__cxx1112basic_stringIcSt11char_traitsIcESaIcEEESaIS5_EESaIS7_EEC1Ev, symObjAddr: 0x23F8, symBinAddr: 0x100004914, symSize: 0x20 }
  - { offsetInCU: 0x4AFB1, offset: 0x4AFB1, size: 0x8, addend: 0x0, symName: __ZNSt12_Vector_baseISt6vectorINSt7__cxx1112basic_stringIcSt11char_traitsIcESaIcEEESaIS6_EESaIS8_EE12_Vector_implD1Ev, symObjAddr: 0x23AC, symBinAddr: 0x1000048C8, symSize: 0x2C }
  - { offsetInCU: 0x4AFB9, offset: 0x4AFB9, size: 0x8, addend: 0x0, symName: __ZNSt12_Vector_baseISt6vectorINSt7__cxx1112basic_stringIcSt11char_traitsIcESaIcEEESaIS6_EESaIS8_EEC2Ev, symObjAddr: 0x23D8, symBinAddr: 0x1000048F4, symSize: 0x20 }
  - { offsetInCU: 0x4AFD1, offset: 0x4AFD1, size: 0x8, addend: 0x0, symName: __ZN7LibraryD1Ev, symObjAddr: 0x2364, symBinAddr: 0x100004880, symSize: 0x48 }
  - { offsetInCU: 0x4AFD9, offset: 0x4AFD9, size: 0x8, addend: 0x0, symName: __ZNSt12_Vector_baseISt6vectorINSt7__cxx1112basic_stringIcSt11char_traitsIcESaIcEEESaIS6_EESaIS8_EE12_Vector_implD1Ev, symObjAddr: 0x23AC, symBinAddr: 0x1000048C8, symSize: 0x2C }
  - { offsetInCU: 0x4AFF1, offset: 0x4AFF1, size: 0x8, addend: 0x0, symName: __ZN7Library15borroewByBookIdERNSt7__cxx1112basic_stringIcSt11char_traitsIcESaIcEEEiS5_, symObjAddr: 0x2004, symBinAddr: 0x100004520, symSize: 0x360 }
  - { offsetInCU: 0x4AFF9, offset: 0x4AFF9, size: 0x8, addend: 0x0, symName: __ZN7LibraryD1Ev, symObjAddr: 0x2364, symBinAddr: 0x100004880, symSize: 0x48 }
  - { offsetInCU: 0x4B174, offset: 0x4B174, size: 0x8, addend: 0x0, symName: __ZN11BookLendingD1Ev, symObjAddr: 0x1FD8, symBinAddr: 0x1000044F4, symSize: 0x2C }
  - { offsetInCU: 0x4B17C, offset: 0x4B17C, size: 0x8, addend: 0x0, symName: __ZN7Library15borroewByBookIdERNSt7__cxx1112basic_stringIcSt11char_traitsIcESaIcEEEiS5_, symObjAddr: 0x2004, symBinAddr: 0x100004520, symSize: 0x360 }
  - { offsetInCU: 0x4B18F, offset: 0x4B18F, size: 0x8, addend: 0x0, symName: __ZN7Library10removeBookERNSt7__cxx1112basic_stringIcSt11char_traitsIcESaIcEEE, symObjAddr: 0x1EE8, symBinAddr: 0x100004404, symSize: 0xF0 }
  - { offsetInCU: 0x4B197, offset: 0x4B197, size: 0x8, addend: 0x0, symName: __ZN11BookLendingD1Ev, symObjAddr: 0x1FD8, symBinAddr: 0x1000044F4, symSize: 0x2C }
  - { offsetInCU: 0x4B225, offset: 0x4B225, size: 0x8, addend: 0x0, symName: __ZN7Library16searchByAuthorIdERNSt7__cxx1112basic_stringIcSt11char_traitsIcESaIcEEERSt6vectorIS5_SaIS5_EERS7_IS9_SaIS9_EESD_SA_RS7_IiSaIiEE, symObjAddr: 0x1C6C, symBinAddr: 0x100004188, symSize: 0x27C }
  - { offsetInCU: 0x4B22D, offset: 0x4B22D, size: 0x8, addend: 0x0, symName: __ZN7Library10removeBookERNSt7__cxx1112basic_stringIcSt11char_traitsIcESaIcEEE, symObjAddr: 0x1EE8, symBinAddr: 0x100004404, symSize: 0xF0 }
  - { offsetInCU: 0x4B316, offset: 0x4B316, size: 0x8, addend: 0x0, symName: __ZN7Library14searchByBookIdEiRNSt7__cxx1112basic_stringIcSt11char_traitsIcESaIcEEERSt6vectorIS5_SaIS5_EESA_SA_, symObjAddr: 0x1A70, symBinAddr: 0x100003F8C, symSize: 0x1FC }
  - { offsetInCU: 0x4B31E, offset: 0x4B31E, size: 0x8, addend: 0x0, symName: __ZN7Library16searchByAuthorIdERNSt7__cxx1112basic_stringIcSt11char_traitsIcESaIcEEERSt6vectorIS5_SaIS5_EERS7_IS9_SaIS9_EESD_SA_RS7_IiSaIiEE, symObjAddr: 0x1C6C, symBinAddr: 0x100004188, symSize: 0x27C }
  - { offsetInCU: 0x4B3E7, offset: 0x4B3E7, size: 0x8, addend: 0x0, symName: __ZN7Library7addBookERiRNSt7__cxx1112basic_stringIcSt11char_traitsIcESaIcEEERSt6vectorIS6_SaIS6_EESB_SB_, symObjAddr: 0x17A4, symBinAddr: 0x100003CC0, symSize: 0x2CC }
  - { offsetInCU: 0x4B3EF, offset: 0x4B3EF, size: 0x8, addend: 0x0, symName: __ZN7Library14searchByBookIdEiRNSt7__cxx1112basic_stringIcSt11char_traitsIcESaIcEEERSt6vectorIS5_SaIS5_EESA_SA_, symObjAddr: 0x1A70, symBinAddr: 0x100003F8C, symSize: 0x1FC }
  - { offsetInCU: 0x4B521, offset: 0x4B521, size: 0x8, addend: 0x0, symName: __ZNSt6vectorIiSaIiEEC1Ev, symObjAddr: 0x1784, symBinAddr: 0x100003CA0, symSize: 0x20 }
  - { offsetInCU: 0x4B529, offset: 0x4B529, size: 0x8, addend: 0x0, symName: __ZN7Library7addBookERiRNSt7__cxx1112basic_stringIcSt11char_traitsIcESaIcEEERSt6vectorIS6_SaIS6_EESB_SB_, symObjAddr: 0x17A4, symBinAddr: 0x100003CC0, symSize: 0x2CC }
  - { offsetInCU: 0x4B573, offset: 0x4B573, size: 0x8, addend: 0x0, symName: __ZNSt12_Vector_baseIiSaIiEEC2Ev, symObjAddr: 0x1764, symBinAddr: 0x100003C80, symSize: 0x20 }
  - { offsetInCU: 0x4B57B, offset: 0x4B57B, size: 0x8, addend: 0x0, symName: __ZNSt6vectorIiSaIiEEC1Ev, symObjAddr: 0x1784, symBinAddr: 0x100003CA0, symSize: 0x20 }
  - { offsetInCU: 0x4B5DE, offset: 0x4B5DE, size: 0x8, addend: 0x0, symName: __ZNSt12_Vector_baseIiSaIiEE12_Vector_implD1Ev, symObjAddr: 0x1738, symBinAddr: 0x100003C54, symSize: 0x2C }
  - { offsetInCU: 0x4B5E6, offset: 0x4B5E6, size: 0x8, addend: 0x0, symName: __ZNSt12_Vector_baseIiSaIiEEC2Ev, symObjAddr: 0x1764, symBinAddr: 0x100003C80, symSize: 0x20 }
  - { offsetInCU: 0x4B608, offset: 0x4B608, size: 0x8, addend: 0x0, symName: __ZN7Library13isBookPresentEi, symObjAddr: 0x16EC, symBinAddr: 0x100003C08, symSize: 0x4C }
  - { offsetInCU: 0x4B610, offset: 0x4B610, size: 0x8, addend: 0x0, symName: __ZNSt12_Vector_baseIiSaIiEE12_Vector_implD1Ev, symObjAddr: 0x1738, symBinAddr: 0x100003C54, symSize: 0x2C }
  - { offsetInCU: 0x4B6AE, offset: 0x4B6AE, size: 0x8, addend: 0x0, symName: __ZN7LibraryC1Ei, symObjAddr: 0x15D8, symBinAddr: 0x100003AF4, symSize: 0x114 }
  - { offsetInCU: 0x4B6B6, offset: 0x4B6B6, size: 0x8, addend: 0x0, symName: __ZN7Library13isBookPresentEi, symObjAddr: 0x16EC, symBinAddr: 0x100003C08, symSize: 0x4C }
  - { offsetInCU: 0x4B759, offset: 0x4B759, size: 0x8, addend: 0x0, symName: __ZN4RackaSERKS_, symObjAddr: 0x15B0, symBinAddr: 0x100003ACC, symSize: 0x28 }
  - { offsetInCU: 0x4B761, offset: 0x4B761, size: 0x8, addend: 0x0, symName: __ZN7LibraryC1Ei, symObjAddr: 0x15D8, symBinAddr: 0x100003AF4, symSize: 0x114 }
  - { offsetInCU: 0x4B7CE, offset: 0x4B7CE, size: 0x8, addend: 0x0, symName: __ZN4RackD1Ev, symObjAddr: 0x1590, symBinAddr: 0x100003AAC, symSize: 0x20 }
  - { offsetInCU: 0x4B7D6, offset: 0x4B7D6, size: 0x8, addend: 0x0, symName: __ZN4RackaSERKS_, symObjAddr: 0x15B0, symBinAddr: 0x100003ACC, symSize: 0x28 }
  - { offsetInCU: 0x4B863, offset: 0x4B863, size: 0x8, addend: 0x0, symName: __ZNSt13unordered_mapIiiSt4hashIiESt8equal_toIiESaISt4pairIKiiEEED1Ev, symObjAddr: 0x1570, symBinAddr: 0x100003A8C, symSize: 0x20 }
  - { offsetInCU: 0x4B86B, offset: 0x4B86B, size: 0x8, addend: 0x0, symName: __ZN4RackD1Ev, symObjAddr: 0x1590, symBinAddr: 0x100003AAC, symSize: 0x20 }
  - { offsetInCU: 0x4B8AE, offset: 0x4B8AE, size: 0x8, addend: 0x0, symName: __ZNSt13unordered_mapIiiSt4hashIiESt8equal_toIiESaISt4pairIKiiEEEC1Ev, symObjAddr: 0x1550, symBinAddr: 0x100003A6C, symSize: 0x20 }
  - { offsetInCU: 0x4B8B6, offset: 0x4B8B6, size: 0x8, addend: 0x0, symName: __ZNSt13unordered_mapIiiSt4hashIiESt8equal_toIiESaISt4pairIKiiEEED1Ev, symObjAddr: 0x1570, symBinAddr: 0x100003A8C, symSize: 0x20 }
  - { offsetInCU: 0x4B986, offset: 0x4B986, size: 0x8, addend: 0x0, symName: __ZNSt10_HashtableIiSt4pairIKiiESaIS2_ENSt8__detail10_Select1stESt8equal_toIiESt4hashIiENS4_18_Mod_range_hashingENS4_20_Default_ranged_hashENS4_20_Prime_rehash_policyENS4_17_Hashtable_traitsILb0ELb0ELb1EEEEC1Ev, symObjAddr: 0x14E0, symBinAddr: 0x1000039FC, symSize: 0x70 }
  - { offsetInCU: 0x4B98E, offset: 0x4B98E, size: 0x8, addend: 0x0, symName: __ZNSt13unordered_mapIiiSt4hashIiESt8equal_toIiESaISt4pairIKiiEEEC1Ev, symObjAddr: 0x1550, symBinAddr: 0x100003A6C, symSize: 0x20 }
  - { offsetInCU: 0x4B95F, offset: 0x4B95F, size: 0x8, addend: 0x0, symName: __ZNSt8__detail16_Hashtable_allocISaINS_10_Hash_nodeISt4pairIKiiELb0EEEEED2Ev, symObjAddr: 0x14C0, symBinAddr: 0x1000039DC, symSize: 0x20 }
  - { offsetInCU: 0x4B967, offset: 0x4B967, size: 0x8, addend: 0x0, symName: __ZNSt10_HashtableIiSt4pairIKiiESaIS2_ENSt8__detail10_Select1stESt8equal_toIiESt4hashIiENS4_18_Mod_range_hashingENS4_20_Default_ranged_hashENS4_20_Prime_rehash_policyENS4_17_Hashtable_traitsILb0ELb0ELb1EEEEC1Ev, symObjAddr: 0x14E0, symBinAddr: 0x1000039FC, symSize: 0x70 }
  - { offsetInCU: 0x4B9AA, offset: 0x4B9AA, size: 0x8, addend: 0x0, symName: __ZNSt8__detail16_Hashtable_allocISaINS_10_Hash_nodeISt4pairIKiiELb0EEEEEC2Ev, symObjAddr: 0x14A0, symBinAddr: 0x1000039BC, symSize: 0x20 }
  - { offsetInCU: 0x4B9B2, offset: 0x4B9B2, size: 0x8, addend: 0x0, symName: __ZNSt8__detail16_Hashtable_allocISaINS_10_Hash_nodeISt4pairIKiiELb0EEEEED2Ev, symObjAddr: 0x14C0, symBinAddr: 0x1000039DC, symSize: 0x20 }
  - { offsetInCU: 0x4BA15, offset: 0x4BA15, size: 0x8, addend: 0x0, symName: __ZNSt8__detail21_Hashtable_ebo_helperILi0ESaINS_10_Hash_nodeISt4pairIKiiELb0EEEELb1EED2Ev, symObjAddr: 0x1474, symBinAddr: 0x100003990, symSize: 0x2C }
  - { offsetInCU: 0x4BA1D, offset: 0x4BA1D, size: 0x8, addend: 0x0, symName: __ZNSt8__detail16_Hashtable_allocISaINS_10_Hash_nodeISt4pairIKiiELb0EEEEEC2Ev, symObjAddr: 0x14A0, symBinAddr: 0x1000039BC, symSize: 0x20 }
  - { offsetInCU: 0x4BAE0, offset: 0x4BAE0, size: 0x8, addend: 0x0, symName: __ZNSt8__detail15_Hashtable_baseIiSt4pairIKiiENS_10_Select1stESt8equal_toIiESt4hashIiENS_18_Mod_range_hashingENS_20_Default_ranged_hashENS_17_Hashtable_traitsILb0ELb0ELb1EEEEC2Ev, symObjAddr: 0x144C, symBinAddr: 0x100003968, symSize: 0x28 }
  - { offsetInCU: 0x4BAE8, offset: 0x4BAE8, size: 0x8, addend: 0x0, symName: __ZNSt8__detail21_Hashtable_ebo_helperILi0ESaINS_10_Hash_nodeISt4pairIKiiELb0EEEELb1EED2Ev, symObjAddr: 0x1474, symBinAddr: 0x100003990, symSize: 0x2C }
  - { offsetInCU: 0x4BAFC, offset: 0x4BAFC, size: 0x8, addend: 0x0, symName: __ZNSt8__detail15_Hash_code_baseIiSt4pairIKiiENS_10_Select1stESt4hashIiENS_18_Mod_range_hashingENS_20_Default_ranged_hashELb0EEC2Ev, symObjAddr: 0x142C, symBinAddr: 0x100003948, symSize: 0x20 }
  - { offsetInCU: 0x4BB04, offset: 0x4BB04, size: 0x8, addend: 0x0, symName: __ZNSt8__detail15_Hashtable_baseIiSt4pairIKiiENS_10_Select1stESt8equal_toIiESt4hashIiENS_18_Mod_range_hashingENS_20_Default_ranged_hashENS_17_Hashtable_traitsILb0ELb0ELb1EEEEC2Ev, symObjAddr: 0x144C, symBinAddr: 0x100003968, symSize: 0x28 }
  - { offsetInCU: 0x4BB54, offset: 0x4BB54, size: 0x8, addend: 0x0, symName: __ZNSt13unordered_mapINSt7__cxx1112basic_stringIcSt11char_traitsIcESaIcEEEiSt4hashIS5_ESt8equal_toIS5_ESaISt4pairIKS5_iEEED1Ev, symObjAddr: 0x140C, symBinAddr: 0x100003928, symSize: 0x20 }
  - { offsetInCU: 0x4BB5C, offset: 0x4BB5C, size: 0x8, addend: 0x0, symName: __ZNSt8__detail15_Hash_code_baseIiSt4pairIKiiENS_10_Select1stESt4hashIiENS_18_Mod_range_hashingENS_20_Default_ranged_hashELb0EEC2Ev, symObjAddr: 0x142C, symBinAddr: 0x100003948, symSize: 0x20 }
  - { offsetInCU: 0x4BB9F, offset: 0x4BB9F, size: 0x8, addend: 0x0, symName: __ZNSt13unordered_mapINSt7__cxx1112basic_stringIcSt11char_traitsIcESaIcEEEiSt4hashIS5_ESt8equal_toIS5_ESaISt4pairIKS5_iEEEC1Ev, symObjAddr: 0x13EC, symBinAddr: 0x100003908, symSize: 0x20 }
  - { offsetInCU: 0x4BBA7, offset: 0x4BBA7, size: 0x8, addend: 0x0, symName: __ZNSt13unordered_mapINSt7__cxx1112basic_stringIcSt11char_traitsIcESaIcEEEiSt4hashIS5_ESt8equal_toIS5_ESaISt4pairIKS5_iEEED1Ev, symObjAddr: 0x140C, symBinAddr: 0x100003928, symSize: 0x20 }
  - { offsetInCU: 0x4BC77, offset: 0x4BC77, size: 0x8, addend: 0x0, symName: __ZNSt10_HashtableINSt7__cxx1112basic_stringIcSt11char_traitsIcESaIcEEESt4pairIKS5_iESaIS8_ENSt8__detail10_Select1stESt8equal_toIS5_ESt4hashIS5_ENSA_18_Mod_range_hashingENSA_20_Default_ranged_hashENSA_20_Prime_rehash_policyENSA_17_Hashtable_traitsILb1ELb0ELb1EEEEC1Ev, symObjAddr: 0x137C, symBinAddr: 0x100003898, symSize: 0x70 }
  - { offsetInCU: 0x4BC7F, offset: 0x4BC7F, size: 0x8, addend: 0x0, symName: __ZNSt13unordered_mapINSt7__cxx1112basic_stringIcSt11char_traitsIcESaIcEEEiSt4hashIS5_ESt8equal_toIS5_ESaISt4pairIKS5_iEEEC1Ev, symObjAddr: 0x13EC, symBinAddr: 0x100003908, symSize: 0x20 }
  - { offsetInCU: 0x4BC4A, offset: 0x4BC4A, size: 0x8, addend: 0x0, symName: __ZNSt8__detail16_Hashtable_allocISaINS_10_Hash_nodeISt4pairIKNSt7__cxx1112basic_stringIcSt11char_traitsIcESaIcEEEiELb1EEEEED2Ev, symObjAddr: 0x135C, symBinAddr: 0x100003878, symSize: 0x20 }
  - { offsetInCU: 0x4BC52, offset: 0x4BC52, size: 0x8, addend: 0x0, symName: __ZNSt10_HashtableINSt7__cxx1112basic_stringIcSt11char_traitsIcESaIcEEESt4pairIKS5_iESaIS8_ENSt8__detail10_Select1stESt8equal_toIS5_ESt4hashIS5_ENSA_18_Mod_range_hashingENSA_20_Default_ranged_hashENSA_20_Prime_rehash_policyENSA_17_Hashtable_traitsILb1ELb0ELb1EEEEC1Ev, symObjAddr: 0x137C, symBinAddr: 0x100003898, symSize: 0x70 }
  - { offsetInCU: 0x4BC95, offset: 0x4BC95, size: 0x8, addend: 0x0, symName: __ZNSt8__detail16_Hashtable_allocISaINS_10_Hash_nodeISt4pairIKNSt7__cxx1112basic_stringIcSt11char_traitsIcESaIcEEEiELb1EEEEEC2Ev, symObjAddr: 0x133C, symBinAddr: 0x100003858, symSize: 0x20 }
  - { offsetInCU: 0x4BC9D, offset: 0x4BC9D, size: 0x8, addend: 0x0, symName: __ZNSt8__detail16_Hashtable_allocISaINS_10_Hash_nodeISt4pairIKNSt7__cxx1112basic_stringIcSt11char_traitsIcESaIcEEEiELb1EEEEED2Ev, symObjAddr: 0x135C, symBinAddr: 0x100003878, symSize: 0x20 }
  - { offsetInCU: 0x4BD00, offset: 0x4BD00, size: 0x8, addend: 0x0, symName: __ZNSt8__detail21_Hashtable_ebo_helperILi0ESaINS_10_Hash_nodeISt4pairIKNSt7__cxx1112basic_stringIcSt11char_traitsIcESaIcEEEiELb1EEEELb1EED2Ev, symObjAddr: 0x1310, symBinAddr: 0x10000382C, symSize: 0x2C }
  - { offsetInCU: 0x4BD08, offset: 0x4BD08, size: 0x8, addend: 0x0, symName: __ZNSt8__detail16_Hashtable_allocISaINS_10_Hash_nodeISt4pairIKNSt7__cxx1112basic_stringIcSt11char_traitsIcESaIcEEEiELb1EEEEEC2Ev, symObjAddr: 0x133C, symBinAddr: 0x100003858, symSize: 0x20 }
  - { offsetInCU: 0x4BDD1, offset: 0x4BDD1, size: 0x8, addend: 0x0, symName: __ZNSt8__detail15_Hashtable_baseINSt7__cxx1112basic_stringIcSt11char_traitsIcESaIcEEESt4pairIKS6_iENS_10_Select1stESt8equal_toIS6_ESt4hashIS6_ENS_18_Mod_range_hashingENS_20_Default_ranged_hashENS_17_Hashtable_traitsILb1ELb0ELb1EEEEC2Ev, symObjAddr: 0x12E8, symBinAddr: 0x100003804, symSize: 0x28 }
  - { offsetInCU: 0x4BDD9, offset: 0x4BDD9, size: 0x8, addend: 0x0, symName: __ZNSt8__detail21_Hashtable_ebo_helperILi0ESaINS_10_Hash_nodeISt4pairIKNSt7__cxx1112basic_stringIcSt11char_traitsIcESaIcEEEiELb1EEEELb1EED2Ev, symObjAddr: 0x1310, symBinAddr: 0x10000382C, symSize: 0x2C }
  - { offsetInCU: 0x4BDEB, offset: 0x4BDEB, size: 0x8, addend: 0x0, symName: __ZNSt8__detail15_Hash_code_baseINSt7__cxx1112basic_stringIcSt11char_traitsIcESaIcEEESt4pairIKS6_iENS_10_Select1stESt4hashIS6_ENS_18_Mod_range_hashingENS_20_Default_ranged_hashELb1EEC2Ev, symObjAddr: 0x12C8, symBinAddr: 0x1000037E4, symSize: 0x20 }
  - { offsetInCU: 0x4BDF3, offset: 0x4BDF3, size: 0x8, addend: 0x0, symName: __ZNSt8__detail15_Hashtable_baseINSt7__cxx1112basic_stringIcSt11char_traitsIcESaIcEEESt4pairIKS6_iENS_10_Select1stESt8equal_toIS6_ESt4hashIS6_ENS_18_Mod_range_hashingENS_20_Default_ranged_hashENS_17_Hashtable_traitsILb1ELb0ELb1EEEEC2Ev, symObjAddr: 0x12E8, symBinAddr: 0x100003804, symSize: 0x28 }
  - { offsetInCU: 0x4BDB8, offset: 0x4BDB8, size: 0x8, addend: 0x0, symName: __ZNSt7__cxx114listI11BookLendingSaIS1_EED1Ev, symObjAddr: 0x12A8, symBinAddr: 0x1000037C4, symSize: 0x20 }
  - { offsetInCU: 0x4BDC0, offset: 0x4BDC0, size: 0x8, addend: 0x0, symName: __ZNSt8__detail15_Hash_code_baseINSt7__cxx1112basic_stringIcSt11char_traitsIcESaIcEEESt4pairIKS6_iENS_10_Select1stESt4hashIS6_ENS_18_Mod_range_hashingENS_20_Default_ranged_hashELb1EEC2Ev, symObjAddr: 0x12C8, symBinAddr: 0x1000037E4, symSize: 0x20 }
  - { offsetInCU: 0x4BE03, offset: 0x4BE03, size: 0x8, addend: 0x0, symName: __ZNSt7__cxx114listI11BookLendingSaIS1_EEC1Ev, symObjAddr: 0x1288, symBinAddr: 0x1000037A4, symSize: 0x20 }
  - { offsetInCU: 0x4BE0B, offset: 0x4BE0B, size: 0x8, addend: 0x0, symName: __ZNSt7__cxx114listI11BookLendingSaIS1_EED1Ev, symObjAddr: 0x12A8, symBinAddr: 0x1000037C4, symSize: 0x20 }
  - { offsetInCU: 0x4BE55, offset: 0x4BE55, size: 0x8, addend: 0x0, symName: __ZNSt7__cxx1110_List_baseI11BookLendingSaIS1_EEC2Ev, symObjAddr: 0x1268, symBinAddr: 0x100003784, symSize: 0x20 }
  - { offsetInCU: 0x4BE5D, offset: 0x4BE5D, size: 0x8, addend: 0x0, symName: __ZNSt7__cxx114listI11BookLendingSaIS1_EEC1Ev, symObjAddr: 0x1288, symBinAddr: 0x1000037A4, symSize: 0x20 }
  - { offsetInCU: 0x4BEBF, offset: 0x4BEBF, size: 0x8, addend: 0x0, symName: __ZNSt7__cxx1110_List_baseI11BookLendingSaIS1_EE10_List_implD1Ev, symObjAddr: 0x123C, symBinAddr: 0x100003758, symSize: 0x2C }
  - { offsetInCU: 0x4BEC7, offset: 0x4BEC7, size: 0x8, addend: 0x0, symName: __ZNSt7__cxx1110_List_baseI11BookLendingSaIS1_EEC2Ev, symObjAddr: 0x1268, symBinAddr: 0x100003784, symSize: 0x20 }
  - { offsetInCU: 0x4BF11, offset: 0x4BF11, size: 0x8, addend: 0x0, symName: __ZNSt6vectorI4RackSaIS0_EEC1Ev, symObjAddr: 0x121C, symBinAddr: 0x100003738, symSize: 0x20 }
  - { offsetInCU: 0x4BF19, offset: 0x4BF19, size: 0x8, addend: 0x0, symName: __ZNSt7__cxx1110_List_baseI11BookLendingSaIS1_EE10_List_implD1Ev, symObjAddr: 0x123C, symBinAddr: 0x100003758, symSize: 0x2C }
  - { offsetInCU: 0x4BF63, offset: 0x4BF63, size: 0x8, addend: 0x0, symName: __ZNSt12_Vector_baseI4RackSaIS0_EEC2Ev, symObjAddr: 0x11FC, symBinAddr: 0x100003718, symSize: 0x20 }
  - { offsetInCU: 0x4BF6B, offset: 0x4BF6B, size: 0x8, addend: 0x0, symName: __ZNSt6vectorI4RackSaIS0_EEC1Ev, symObjAddr: 0x121C, symBinAddr: 0x100003738, symSize: 0x20 }
  - { offsetInCU: 0x4BFCE, offset: 0x4BFCE, size: 0x8, addend: 0x0, symName: __ZNSt12_Vector_baseI4RackSaIS0_EE12_Vector_implD1Ev, symObjAddr: 0x11D0, symBinAddr: 0x1000036EC, symSize: 0x2C }
  - { offsetInCU: 0x4BFD6, offset: 0x4BFD6, size: 0x8, addend: 0x0, symName: __ZNSt12_Vector_baseI4RackSaIS0_EEC2Ev, symObjAddr: 0x11FC, symBinAddr: 0x100003718, symSize: 0x20 }
  - { offsetInCU: 0x4BFF2, offset: 0x4BFF2, size: 0x8, addend: 0x0, symName: __ZN11BookLending23getBorrowedTillNowCountEv, symObjAddr: 0x11B4, symBinAddr: 0x1000036D0, symSize: 0x1C }
  - { offsetInCU: 0x4BFFA, offset: 0x4BFFA, size: 0x8, addend: 0x0, symName: __ZNSt12_Vector_baseI4RackSaIS0_EE12_Vector_implD1Ev, symObjAddr: 0x11D0, symBinAddr: 0x1000036EC, symSize: 0x2C }
  - { offsetInCU: 0x4C021, offset: 0x4C021, size: 0x8, addend: 0x0, symName: __ZN11BookLending23setBorrowedTillNowCountEv, symObjAddr: 0x1194, symBinAddr: 0x1000036B0, symSize: 0x20 }
  - { offsetInCU: 0x4C029, offset: 0x4C029, size: 0x8, addend: 0x0, symName: __ZN11BookLending23getBorrowedTillNowCountEv, symObjAddr: 0x11B4, symBinAddr: 0x1000036D0, symSize: 0x1C }
  - { offsetInCU: 0x4C050, offset: 0x4C050, size: 0x8, addend: 0x0, symName: __ZN11BookLending11setBookItemE8BookItemNSt7__cxx1112basic_stringIcSt11char_traitsIcESaIcEEE, symObjAddr: 0x1128, symBinAddr: 0x100003644, symSize: 0x6C }
  - { offsetInCU: 0x4C058, offset: 0x4C058, size: 0x8, addend: 0x0, symName: __ZN11BookLending23setBorrowedTillNowCountEv, symObjAddr: 0x1194, symBinAddr: 0x1000036B0, symSize: 0x20 }
  - { offsetInCU: 0x4C0AA, offset: 0x4C0AA, size: 0x8, addend: 0x0, symName: __ZN11BookLending9getUserIdB5cxx11Ev, symObjAddr: 0x10F8, symBinAddr: 0x100003614, symSize: 0x30 }
  - { offsetInCU: 0x4C0B2, offset: 0x4C0B2, size: 0x8, addend: 0x0, symName: __ZN11BookLending11setBookItemE8BookItemNSt7__cxx1112basic_stringIcSt11char_traitsIcESaIcEEE, symObjAddr: 0x1128, symBinAddr: 0x100003644, symSize: 0x6C }
  - { offsetInCU: 0x4C11A, offset: 0x4C11A, size: 0x8, addend: 0x0, symName: __ZN4UserC1ERKS_, symObjAddr: 0x10B0, symBinAddr: 0x1000035CC, symSize: 0x48 }
  - { offsetInCU: 0x4C122, offset: 0x4C122, size: 0x8, addend: 0x0, symName: __ZN11BookLending9getUserIdB5cxx11Ev, symObjAddr: 0x10F8, symBinAddr: 0x100003614, symSize: 0x30 }
  - { offsetInCU: 0x4C1EC, offset: 0x4C1EC, size: 0x8, addend: 0x0, symName: __ZN11BookLendingC1ER4User8BookItemNSt7__cxx1112basic_stringIcSt11char_traitsIcESaIcEEE, symObjAddr: 0xFFC, symBinAddr: 0x100003518, symSize: 0xB4 }
  - { offsetInCU: 0x4C1F4, offset: 0x4C1F4, size: 0x8, addend: 0x0, symName: __ZN4UserC1ERKS_, symObjAddr: 0x10B0, symBinAddr: 0x1000035CC, symSize: 0x48 }
  - { offsetInCU: 0x4C26D, offset: 0x4C26D, size: 0x8, addend: 0x0, symName: __ZNSt4pairI8BookItemNSt7__cxx1112basic_stringIcSt11char_traitsIcESaIcEEEED1Ev, symObjAddr: 0xFD0, symBinAddr: 0x1000034EC, symSize: 0x2C }
  - { offsetInCU: 0x4C275, offset: 0x4C275, size: 0x8, addend: 0x0, symName: __ZN11BookLendingC1ER4User8BookItemNSt7__cxx1112basic_stringIcSt11char_traitsIcESaIcEEE, symObjAddr: 0xFFC, symBinAddr: 0x100003518, symSize: 0xB4 }
  - { offsetInCU: 0x4C25E, offset: 0x4C25E, size: 0x8, addend: 0x0, symName: __ZN4UseraSERKS_, symObjAddr: 0xF90, symBinAddr: 0x1000034AC, symSize: 0x40 }
  - { offsetInCU: 0x4C266, offset: 0x4C266, size: 0x8, addend: 0x0, symName: __ZNSt4pairI8BookItemNSt7__cxx1112basic_stringIcSt11char_traitsIcESaIcEEEED1Ev, symObjAddr: 0xFD0, symBinAddr: 0x1000034EC, symSize: 0x2C }
  - { offsetInCU: 0x4C314, offset: 0x4C314, size: 0x8, addend: 0x0, symName: __ZNSt6vectorISt4pairI8BookItemNSt7__cxx1112basic_stringIcSt11char_traitsIcESaIcEEEESaIS8_EEC1Ev, symObjAddr: 0xF70, symBinAddr: 0x10000348C, symSize: 0x20 }
  - { offsetInCU: 0x4C31C, offset: 0x4C31C, size: 0x8, addend: 0x0, symName: __ZN4UseraSERKS_, symObjAddr: 0xF90, symBinAddr: 0x1000034AC, symSize: 0x40 }
  - { offsetInCU: 0x4C366, offset: 0x4C366, size: 0x8, addend: 0x0, symName: __ZNSt12_Vector_baseISt4pairI8BookItemNSt7__cxx1112basic_stringIcSt11char_traitsIcESaIcEEEESaIS8_EEC2Ev, symObjAddr: 0xF50, symBinAddr: 0x10000346C, symSize: 0x20 }
  - { offsetInCU: 0x4C36E, offset: 0x4C36E, size: 0x8, addend: 0x0, symName: __ZNSt6vectorISt4pairI8BookItemNSt7__cxx1112basic_stringIcSt11char_traitsIcESaIcEEEESaIS8_EEC1Ev, symObjAddr: 0xF70, symBinAddr: 0x10000348C, symSize: 0x20 }
  - { offsetInCU: 0x4C3D1, offset: 0x4C3D1, size: 0x8, addend: 0x0, symName: __ZNSt12_Vector_baseISt4pairI8BookItemNSt7__cxx1112basic_stringIcSt11char_traitsIcESaIcEEEESaIS8_EE12_Vector_implD1Ev, symObjAddr: 0xF24, symBinAddr: 0x100003440, symSize: 0x2C }
  - { offsetInCU: 0x4C3D9, offset: 0x4C3D9, size: 0x8, addend: 0x0, symName: __ZNSt12_Vector_baseISt4pairI8BookItemNSt7__cxx1112basic_stringIcSt11char_traitsIcESaIcEEEESaIS8_EEC2Ev, symObjAddr: 0xF50, symBinAddr: 0x10000346C, symSize: 0x20 }
  - { offsetInCU: 0x4C3EE, offset: 0x4C3EE, size: 0x8, addend: 0x0, symName: __ZN4UserD1Ev, symObjAddr: 0xF00, symBinAddr: 0x10000341C, symSize: 0x24 }
  - { offsetInCU: 0x4C3F6, offset: 0x4C3F6, size: 0x8, addend: 0x0, symName: __ZNSt12_Vector_baseISt4pairI8BookItemNSt7__cxx1112basic_stringIcSt11char_traitsIcESaIcEEEESaIS8_EE12_Vector_implD1Ev, symObjAddr: 0xF24, symBinAddr: 0x100003440, symSize: 0x2C }
  - { offsetInCU: 0x4C411, offset: 0x4C411, size: 0x8, addend: 0x0, symName: __ZN4Rack17isAuthorIdPresentENSt7__cxx1112basic_stringIcSt11char_traitsIcESaIcEEE, symObjAddr: 0xE4C, symBinAddr: 0x100003368, symSize: 0xB4 }
  - { offsetInCU: 0x4C419, offset: 0x4C419, size: 0x8, addend: 0x0, symName: __ZN4UserD1Ev, symObjAddr: 0xF00, symBinAddr: 0x10000341C, symSize: 0x24 }
  - { offsetInCU: 0x4C48D, offset: 0x4C48D, size: 0x8, addend: 0x0, symName: __ZN4Rack11getBookItemEv, symObjAddr: 0xE10, symBinAddr: 0x10000332C, symSize: 0x3C }
  - { offsetInCU: 0x4C495, offset: 0x4C495, size: 0x8, addend: 0x0, symName: __ZN4Rack17isAuthorIdPresentENSt7__cxx1112basic_stringIcSt11char_traitsIcESaIcEEE, symObjAddr: 0xE4C, symBinAddr: 0x100003368, symSize: 0xB4 }
  - { offsetInCU: 0x4C4F7, offset: 0x4C4F7, size: 0x8, addend: 0x0, symName: __ZN8BookItemC1ERKS_, symObjAddr: 0xDB0, symBinAddr: 0x1000032CC, symSize: 0x60 }
  - { offsetInCU: 0x4C4FF, offset: 0x4C4FF, size: 0x8, addend: 0x0, symName: __ZN4Rack11getBookItemEv, symObjAddr: 0xE10, symBinAddr: 0x10000332C, symSize: 0x3C }
  - { offsetInCU: 0x4C55E, offset: 0x4C55E, size: 0x8, addend: 0x0, symName: __ZN10BookDetailC2ERKS_, symObjAddr: 0xCFC, symBinAddr: 0x100003218, symSize: 0xB4 }
  - { offsetInCU: 0x4C566, offset: 0x4C566, size: 0x8, addend: 0x0, symName: __ZN8BookItemC1ERKS_, symObjAddr: 0xDB0, symBinAddr: 0x1000032CC, symSize: 0x60 }
  - { offsetInCU: 0x4C584, offset: 0x4C584, size: 0x8, addend: 0x0, symName: __ZN4Rack13getPublishersB5cxx11Ev, symObjAddr: 0xCC4, symBinAddr: 0x1000031E0, symSize: 0x38 }
  - { offsetInCU: 0x4C58C, offset: 0x4C58C, size: 0x8, addend: 0x0, symName: __ZN10BookDetailC2ERKS_, symObjAddr: 0xCFC, symBinAddr: 0x100003218, symSize: 0xB4 }
  - { offsetInCU: 0x4C5B3, offset: 0x4C5B3, size: 0x8, addend: 0x0, symName: __ZN4Rack10getAuthorsB5cxx11Ev, symObjAddr: 0xC8C, symBinAddr: 0x1000031A8, symSize: 0x38 }
  - { offsetInCU: 0x4C5BB, offset: 0x4C5BB, size: 0x8, addend: 0x0, symName: __ZN4Rack13getPublishersB5cxx11Ev, symObjAddr: 0xCC4, symBinAddr: 0x1000031E0, symSize: 0x38 }
  - { offsetInCU: 0x4C5E2, offset: 0x4C5E2, size: 0x8, addend: 0x0, symName: __ZN4Rack16getBookItemTitleB5cxx11Ev, symObjAddr: 0xC54, symBinAddr: 0x100003170, symSize: 0x38 }
  - { offsetInCU: 0x4C5EA, offset: 0x4C5EA, size: 0x8, addend: 0x0, symName: __ZN4Rack10getAuthorsB5cxx11Ev, symObjAddr: 0xC8C, symBinAddr: 0x1000031A8, symSize: 0x38 }
  - { offsetInCU: 0x4C611, offset: 0x4C611, size: 0x8, addend: 0x0, symName: __ZN4Rack13getBookItemIdB5cxx11Ev, symObjAddr: 0xC1C, symBinAddr: 0x100003138, symSize: 0x38 }
  - { offsetInCU: 0x4C619, offset: 0x4C619, size: 0x8, addend: 0x0, symName: __ZN4Rack16getBookItemTitleB5cxx11Ev, symObjAddr: 0xC54, symBinAddr: 0x100003170, symSize: 0x38 }
  - { offsetInCU: 0x4C640, offset: 0x4C640, size: 0x8, addend: 0x0, symName: __ZN4Rack9getBookIdEv, symObjAddr: 0xBF8, symBinAddr: 0x100003114, symSize: 0x24 }
  - { offsetInCU: 0x4C648, offset: 0x4C648, size: 0x8, addend: 0x0, symName: __ZN4Rack13getBookItemIdB5cxx11Ev, symObjAddr: 0xC1C, symBinAddr: 0x100003138, symSize: 0x38 }
  - { offsetInCU: 0x4C66F, offset: 0x4C66F, size: 0x8, addend: 0x0, symName: __ZN4Rack21getAvailableBookCountEv, symObjAddr: 0xBDC, symBinAddr: 0x1000030F8, symSize: 0x1C }
  - { offsetInCU: 0x4C677, offset: 0x4C677, size: 0x8, addend: 0x0, symName: __ZN4Rack9getBookIdEv, symObjAddr: 0xBF8, symBinAddr: 0x100003114, symSize: 0x24 }
  - { offsetInCU: 0x4C69E, offset: 0x4C69E, size: 0x8, addend: 0x0, symName: __ZN4Rack7addBookENSt7__cxx1112basic_stringIcSt11char_traitsIcESaIcEEEiS5_St6vectorIS5_SaIS5_EES8_, symObjAddr: 0xAC4, symBinAddr: 0x100002FE0, symSize: 0x118 }
  - { offsetInCU: 0x4C6A6, offset: 0x4C6A6, size: 0x8, addend: 0x0, symName: __ZN4Rack21getAvailableBookCountEv, symObjAddr: 0xBDC, symBinAddr: 0x1000030F8, symSize: 0x1C }
  - { offsetInCU: 0x4C788, offset: 0x4C788, size: 0x8, addend: 0x0, symName: __ZN8BookItemD1Ev, symObjAddr: 0xA98, symBinAddr: 0x100002FB4, symSize: 0x2C }
  - { offsetInCU: 0x4C790, offset: 0x4C790, size: 0x8, addend: 0x0, symName: __ZN4Rack7addBookENSt7__cxx1112basic_stringIcSt11char_traitsIcESaIcEEEiS5_St6vectorIS5_SaIS5_EES8_, symObjAddr: 0xAC4, symBinAddr: 0x100002FE0, symSize: 0x118 }
  - { offsetInCU: 0x4C7CF, offset: 0x4C7CF, size: 0x8, addend: 0x0, symName: __ZN4RackC1Ev, symObjAddr: 0xA70, symBinAddr: 0x100002F8C, symSize: 0x28 }
  - { offsetInCU: 0x4C7D7, offset: 0x4C7D7, size: 0x8, addend: 0x0, symName: __ZN8BookItemD1Ev, symObjAddr: 0xA98, symBinAddr: 0x100002FB4, symSize: 0x2C }
  - { offsetInCU: 0x4C830, offset: 0x4C830, size: 0x8, addend: 0x0, symName: __ZNSt6vectorI8BookItemSaIS0_EEC1Ev, symObjAddr: 0xA50, symBinAddr: 0x100002F6C, symSize: 0x20 }
  - { offsetInCU: 0x4C838, offset: 0x4C838, size: 0x8, addend: 0x0, symName: __ZN4RackC1Ev, symObjAddr: 0xA70, symBinAddr: 0x100002F8C, symSize: 0x28 }
  - { offsetInCU: 0x4C882, offset: 0x4C882, size: 0x8, addend: 0x0, symName: __ZNSt12_Vector_baseI8BookItemSaIS0_EEC2Ev, symObjAddr: 0xA30, symBinAddr: 0x100002F4C, symSize: 0x20 }
  - { offsetInCU: 0x4C88A, offset: 0x4C88A, size: 0x8, addend: 0x0, symName: __ZNSt6vectorI8BookItemSaIS0_EEC1Ev, symObjAddr: 0xA50, symBinAddr: 0x100002F6C, symSize: 0x20 }
  - { offsetInCU: 0x4C8ED, offset: 0x4C8ED, size: 0x8, addend: 0x0, symName: __ZNSt12_Vector_baseI8BookItemSaIS0_EE12_Vector_implD1Ev, symObjAddr: 0xA04, symBinAddr: 0x100002F20, symSize: 0x2C }
  - { offsetInCU: 0x4C8F5, offset: 0x4C8F5, size: 0x8, addend: 0x0, symName: __ZNSt12_Vector_baseI8BookItemSaIS0_EEC2Ev, symObjAddr: 0xA30, symBinAddr: 0x100002F4C, symSize: 0x20 }
  - { offsetInCU: 0x4C90D, offset: 0x4C90D, size: 0x8, addend: 0x0, symName: __ZN8BookItem13getBookItemIdB5cxx11Ev, symObjAddr: 0x9CC, symBinAddr: 0x100002EE8, symSize: 0x38 }
  - { offsetInCU: 0x4C915, offset: 0x4C915, size: 0x8, addend: 0x0, symName: __ZNSt12_Vector_baseI8BookItemSaIS0_EE12_Vector_implD1Ev, symObjAddr: 0xA04, symBinAddr: 0x100002F20, symSize: 0x2C }
  - { offsetInCU: 0x4CA0C, offset: 0x4CA0C, size: 0x8, addend: 0x0, symName: __ZN8BookItemC1ENSt7__cxx1112basic_stringIcSt11char_traitsIcESaIcEEEiS5_St6vectorIS5_SaIS5_EES8_, symObjAddr: 0x8EC, symBinAddr: 0x100002E08, symSize: 0xE0 }
  - { offsetInCU: 0x4CA14, offset: 0x4CA14, size: 0x8, addend: 0x0, symName: __ZN8BookItem13getBookItemIdB5cxx11Ev, symObjAddr: 0x9CC, symBinAddr: 0x100002EE8, symSize: 0x38 }
  - { offsetInCU: 0x4CA68, offset: 0x4CA68, size: 0x8, addend: 0x0, symName: __ZN10BookDetailD2Ev, symObjAddr: 0x8B0, symBinAddr: 0x100002DCC, symSize: 0x3C }
  - { offsetInCU: 0x4CA70, offset: 0x4CA70, size: 0x8, addend: 0x0, symName: __ZN8BookItemC1ENSt7__cxx1112basic_stringIcSt11char_traitsIcESaIcEEEiS5_St6vectorIS5_SaIS5_EES8_, symObjAddr: 0x8EC, symBinAddr: 0x100002E08, symSize: 0xE0 }
  - { offsetInCU: 0x4CA84, offset: 0x4CA84, size: 0x8, addend: 0x0, symName: __ZN10BookDetail13getPublishersB5cxx11Ev, symObjAddr: 0x878, symBinAddr: 0x100002D94, symSize: 0x38 }
  - { offsetInCU: 0x4CA8C, offset: 0x4CA8C, size: 0x8, addend: 0x0, symName: __ZN10BookDetailD2Ev, symObjAddr: 0x8B0, symBinAddr: 0x100002DCC, symSize: 0x3C }
  - { offsetInCU: 0x4CAB3, offset: 0x4CAB3, size: 0x8, addend: 0x0, symName: __ZN10BookDetail10getAuthorsB5cxx11Ev, symObjAddr: 0x840, symBinAddr: 0x100002D5C, symSize: 0x38 }
  - { offsetInCU: 0x4CABB, offset: 0x4CABB, size: 0x8, addend: 0x0, symName: __ZN10BookDetail13getPublishersB5cxx11Ev, symObjAddr: 0x878, symBinAddr: 0x100002D94, symSize: 0x38 }
  - { offsetInCU: 0x4CAE2, offset: 0x4CAE2, size: 0x8, addend: 0x0, symName: __ZN10BookDetail8getTitleB5cxx11Ev, symObjAddr: 0x808, symBinAddr: 0x100002D24, symSize: 0x38 }
  - { offsetInCU: 0x4CAEA, offset: 0x4CAEA, size: 0x8, addend: 0x0, symName: __ZN10BookDetail10getAuthorsB5cxx11Ev, symObjAddr: 0x840, symBinAddr: 0x100002D5C, symSize: 0x38 }
  - { offsetInCU: 0x4CB11, offset: 0x4CB11, size: 0x8, addend: 0x0, symName: __ZN10BookDetail9getBookIdEv, symObjAddr: 0x7F0, symBinAddr: 0x100002D0C, symSize: 0x18 }
  - { offsetInCU: 0x4CB19, offset: 0x4CB19, size: 0x8, addend: 0x0, symName: __ZN10BookDetail8getTitleB5cxx11Ev, symObjAddr: 0x808, symBinAddr: 0x100002D24, symSize: 0x38 }
  - { offsetInCU: 0x4CC00, offset: 0x4CC00, size: 0x8, addend: 0x0, symName: __ZN10BookDetailC2EiNSt7__cxx1112basic_stringIcSt11char_traitsIcESaIcEEESt6vectorIS5_SaIS5_EERS8_, symObjAddr: 0x730, symBinAddr: 0x100002C4C, symSize: 0xC0 }
  - { offsetInCU: 0x4CC08, offset: 0x4CC08, size: 0x8, addend: 0x0, symName: __ZN10BookDetail9getBookIdEv, symObjAddr: 0x7F0, symBinAddr: 0x100002D0C, symSize: 0x18 }
  - { offsetInCU: 0x4CC05, offset: 0x4CC05, size: 0x8, addend: 0x0, symName: __ZN4User23setBorrowedTillNowCountEv, symObjAddr: 0x708, symBinAddr: 0x100002C24, symSize: 0x28 }
  - { offsetInCU: 0x4CC0D, offset: 0x4CC0D, size: 0x8, addend: 0x0, symName: __ZN10BookDetailC2EiNSt7__cxx1112basic_stringIcSt11char_traitsIcESaIcEEESt6vectorIS5_SaIS5_EERS8_, symObjAddr: 0x730, symBinAddr: 0x100002C4C, symSize: 0xC0 }
  - { offsetInCU: 0x4CC34, offset: 0x4CC34, size: 0x8, addend: 0x0, symName: __ZN4User23getBorrowedTillNowCountEv, symObjAddr: 0x6F0, symBinAddr: 0x100002C0C, symSize: 0x18 }
  - { offsetInCU: 0x4CC3C, offset: 0x4CC3C, size: 0x8, addend: 0x0, symName: __ZN4User23setBorrowedTillNowCountEv, symObjAddr: 0x708, symBinAddr: 0x100002C24, symSize: 0x28 }
  - { offsetInCU: 0x4CC63, offset: 0x4CC63, size: 0x8, addend: 0x0, symName: __ZN4User9getUserIdB5cxx11Ev, symObjAddr: 0x6B8, symBinAddr: 0x100002BD4, symSize: 0x38 }
  - { offsetInCU: 0x4CC6B, offset: 0x4CC6B, size: 0x8, addend: 0x0, symName: __ZN4User23getBorrowedTillNowCountEv, symObjAddr: 0x6F0, symBinAddr: 0x100002C0C, symSize: 0x18 }
  - { offsetInCU: 0x4CCFE, offset: 0x4CCFE, size: 0x8, addend: 0x0, symName: __ZN4UserC1ENSt7__cxx1112basic_stringIcSt11char_traitsIcESaIcEEE, symObjAddr: 0x658, symBinAddr: 0x100002B74, symSize: 0x60 }
  - { offsetInCU: 0x4CD06, offset: 0x4CD06, size: 0x8, addend: 0x0, symName: __ZN4User9getUserIdB5cxx11Ev, symObjAddr: 0x6B8, symBinAddr: 0x100002BD4, symSize: 0x38 }
  - { offsetInCU: 0x4CD24, offset: 0x4CD24, size: 0x8, addend: 0x0, symName: __ZN4UserC1Ev, symObjAddr: 0x634, symBinAddr: 0x100002B50, symSize: 0x24 }
  - { offsetInCU: 0x4CD2C, offset: 0x4CD2C, size: 0x8, addend: 0x0, symName: __ZN4UserC1ENSt7__cxx1112basic_stringIcSt11char_traitsIcESaIcEEE, symObjAddr: 0x658, symBinAddr: 0x100002B74, symSize: 0x60 }
  - { offsetInCU: 0x4CD8E, offset: 0x4CD8E, size: 0x8, addend: 0x0, symName: __Z5valueRNSt7__cxx1112basic_stringIcSt11char_traitsIcESaIcEEE, symObjAddr: 0x550, symBinAddr: 0x100002A6C, symSize: 0xE4 }
  - { offsetInCU: 0x4CD96, offset: 0x4CD96, size: 0x8, addend: 0x0, symName: __ZN4UserC1Ev, symObjAddr: 0x634, symBinAddr: 0x100002B50, symSize: 0x24 }
  - { offsetInCU: 0x4CE26, offset: 0x4CE26, size: 0x8, addend: 0x0, symName: __Z12find_detailsRNSt7__cxx1112basic_stringIcSt11char_traitsIcESaIcEEE, symObjAddr: 0x470, symBinAddr: 0x10000298C, symSize: 0xE0 }
  - { offsetInCU: 0x4CE2E, offset: 0x4CE2E, size: 0x8, addend: 0x0, symName: __Z5valueRNSt7__cxx1112basic_stringIcSt11char_traitsIcESaIcEEE, symObjAddr: 0x550, symBinAddr: 0x100002A6C, symSize: 0xE4 }
  - { offsetInCU: 0x4CEBC, offset: 0x4CEBC, size: 0x8, addend: 0x0, symName: __ZNSt6vectorINSt7__cxx1112basic_stringIcSt11char_traitsIcESaIcEEESaIS5_EEC1EOS7_, symObjAddr: 0x448, symBinAddr: 0x100002964, symSize: 0x28 }
  - { offsetInCU: 0x4CEC4, offset: 0x4CEC4, size: 0x8, addend: 0x0, symName: __Z12find_detailsRNSt7__cxx1112basic_stringIcSt11char_traitsIcESaIcEEE, symObjAddr: 0x470, symBinAddr: 0x10000298C, symSize: 0xE0 }
  - { offsetInCU: 0x4CF24, offset: 0x4CF24, size: 0x8, addend: 0x0, symName: __ZNSt12_Vector_baseINSt7__cxx1112basic_stringIcSt11char_traitsIcESaIcEEESaIS5_EEC2EOS7_, symObjAddr: 0x420, symBinAddr: 0x10000293C, symSize: 0x28 }
  - { offsetInCU: 0x4CF2C, offset: 0x4CF2C, size: 0x8, addend: 0x0, symName: __ZNSt6vectorINSt7__cxx1112basic_stringIcSt11char_traitsIcESaIcEEESaIS5_EEC1EOS7_, symObjAddr: 0x448, symBinAddr: 0x100002964, symSize: 0x28 }
  - { offsetInCU: 0x4CF72, offset: 0x4CF72, size: 0x8, addend: 0x0, symName: __ZNSt6vectorINSt7__cxx1112basic_stringIcSt11char_traitsIcESaIcEEESaIS5_EEC1Ev, symObjAddr: 0x400, symBinAddr: 0x10000291C, symSize: 0x20 }
  - { offsetInCU: 0x4CF7A, offset: 0x4CF7A, size: 0x8, addend: 0x0, symName: __ZNSt12_Vector_baseINSt7__cxx1112basic_stringIcSt11char_traitsIcESaIcEEESaIS5_EEC2EOS7_, symObjAddr: 0x420, symBinAddr: 0x10000293C, symSize: 0x28 }
  - { offsetInCU: 0x4CFC4, offset: 0x4CFC4, size: 0x8, addend: 0x0, symName: __ZNSt12_Vector_baseINSt7__cxx1112basic_stringIcSt11char_traitsIcESaIcEEESaIS5_EEC2Ev, symObjAddr: 0x3E0, symBinAddr: 0x1000028FC, symSize: 0x20 }
  - { offsetInCU: 0x4CFCC, offset: 0x4CFCC, size: 0x8, addend: 0x0, symName: __ZNSt6vectorINSt7__cxx1112basic_stringIcSt11char_traitsIcESaIcEEESaIS5_EEC1Ev, symObjAddr: 0x400, symBinAddr: 0x10000291C, symSize: 0x20 }
  - { offsetInCU: 0x4D02F, offset: 0x4D02F, size: 0x8, addend: 0x0, symName: __ZNSt12_Vector_baseINSt7__cxx1112basic_stringIcSt11char_traitsIcESaIcEEESaIS5_EE12_Vector_implD1Ev, symObjAddr: 0x3B4, symBinAddr: 0x1000028D0, symSize: 0x2C }
  - { offsetInCU: 0x4D037, offset: 0x4D037, size: 0x8, addend: 0x0, symName: __ZNSt12_Vector_baseINSt7__cxx1112basic_stringIcSt11char_traitsIcESaIcEEESaIS5_EEC2Ev, symObjAddr: 0x3E0, symBinAddr: 0x1000028FC, symSize: 0x20 }
  - { offsetInCU: 0x4D024, offset: 0x4D024, size: 0x8, addend: 0x0, symName: __ZNSt8__detail17_List_node_header7_M_initEv, symObjAddr: 0x37C, symBinAddr: 0x100002898, symSize: 0x38 }
  - { offsetInCU: 0x4D02C, offset: 0x4D02C, size: 0x8, addend: 0x0, symName: __ZNSt12_Vector_baseINSt7__cxx1112basic_stringIcSt11char_traitsIcESaIcEEESaIS5_EE12_Vector_implD1Ev, symObjAddr: 0x3B4, symBinAddr: 0x1000028D0, symSize: 0x2C }
  - { offsetInCU: 0x4D094, offset: 0x4D094, size: 0x8, addend: 0x0, symName: __ZNSt8__detail17_List_node_headerC1Ev, symObjAddr: 0x35C, symBinAddr: 0x100002878, symSize: 0x20 }
  - { offsetInCU: 0x4D09C, offset: 0x4D09C, size: 0x8, addend: 0x0, symName: __ZNSt8__detail17_List_node_header7_M_initEv, symObjAddr: 0x37C, symBinAddr: 0x100002898, symSize: 0x38 }
  - { offsetInCU: 0x4D0C6, offset: 0x4D0C6, size: 0x8, addend: 0x0, symName: __ZStorSt13_Ios_OpenmodeS_, symObjAddr: 0x33C, symBinAddr: 0x100002858, symSize: 0x20 }
  - { offsetInCU: 0x4D0CE, offset: 0x4D0CE, size: 0x8, addend: 0x0, symName: __ZNSt8__detail17_List_node_headerC1Ev, symObjAddr: 0x35C, symBinAddr: 0x100002878, symSize: 0x20 }
  - { offsetInCU: 0x4D11F, offset: 0x4D11F, size: 0x8, addend: 0x0, symName: __ZSt3minImERKT_S2_S2_, symObjAddr: 0x304, symBinAddr: 0x100002820, symSize: 0x38 }
  - { offsetInCU: 0x4D127, offset: 0x4D127, size: 0x8, addend: 0x0, symName: __ZStorSt13_Ios_OpenmodeS_, symObjAddr: 0x33C, symBinAddr: 0x100002858, symSize: 0x20 }
  - { offsetInCU: 0x4D14B, offset: 0x4D14B, size: 0x8, addend: 0x0, symName: __ZNSt8__detail20_Prime_rehash_policy8_M_resetEm, symObjAddr: 0x2E0, symBinAddr: 0x1000027FC, symSize: 0x24 }
  - { offsetInCU: 0x4D153, offset: 0x4D153, size: 0x8, addend: 0x0, symName: __ZSt3minImERKT_S2_S2_, symObjAddr: 0x304, symBinAddr: 0x100002820, symSize: 0x38 }
  - { offsetInCU: 0x4D18F, offset: 0x4D18F, size: 0x8, addend: 0x0, symName: __ZNKSt8__detail20_Prime_rehash_policy8_M_stateEv, symObjAddr: 0x2C8, symBinAddr: 0x1000027E4, symSize: 0x18 }
  - { offsetInCU: 0x4D197, offset: 0x4D197, size: 0x8, addend: 0x0, symName: __ZNSt8__detail20_Prime_rehash_policy8_M_resetEm, symObjAddr: 0x2E0, symBinAddr: 0x1000027FC, symSize: 0x24 }
  - { offsetInCU: 0x4D214, offset: 0x4D214, size: 0x8, addend: 0x0, symName: __ZNSt8__detail20_Prime_rehash_policyC1Ef, symObjAddr: 0x29C, symBinAddr: 0x1000027B8, symSize: 0x2C }
  - { offsetInCU: 0x4D21C, offset: 0x4D21C, size: 0x8, addend: 0x0, symName: __ZNKSt8__detail20_Prime_rehash_policy8_M_stateEv, symObjAddr: 0x2C8, symBinAddr: 0x1000027E4, symSize: 0x18 }
  - { offsetInCU: 0x4D228, offset: 0x4D228, size: 0x8, addend: 0x0, symName: __ZNKSt8__detail18_Mod_range_hashingclEmm, symObjAddr: 0x26C, symBinAddr: 0x100002788, symSize: 0x30 }
  - { offsetInCU: 0x4D230, offset: 0x4D230, size: 0x8, addend: 0x0, symName: __ZNSt8__detail20_Prime_rehash_policyC1Ef, symObjAddr: 0x29C, symBinAddr: 0x1000027B8, symSize: 0x2C }
  - { offsetInCU: 0x4D2C0, offset: 0x4D2C0, size: 0x8, addend: 0x0, symName: __ZNSt8__detail15_Hash_node_baseC1Ev, symObjAddr: 0x250, symBinAddr: 0x10000276C, symSize: 0x1C }
  - { offsetInCU: 0x4D2C8, offset: 0x4D2C8, size: 0x8, addend: 0x0, symName: __ZNKSt8__detail18_Mod_range_hashingclEmm, symObjAddr: 0x26C, symBinAddr: 0x100002788, symSize: 0x30 }
  - { offsetInCU: 0x4D2F0, offset: 0x4D2F0, size: 0x8, addend: 0x0, symName: __ZNSt8__detail15_Hash_node_baseC2Ev, symObjAddr: 0x234, symBinAddr: 0x100002750, symSize: 0x1C }
  - { offsetInCU: 0x4D2F8, offset: 0x4D2F8, size: 0x8, addend: 0x0, symName: __ZNSt8__detail15_Hash_node_baseC1Ev, symObjAddr: 0x250, symBinAddr: 0x10000276C, symSize: 0x1C }
  - { offsetInCU: 0x4D34B, offset: 0x4D34B, size: 0x8, addend: 0x0, symName: __ZNSt7__cxx114stoiERKNS_12basic_stringIcSt11char_traitsIcESaIcEEEPmi, symObjAddr: 0x1F0, symBinAddr: 0x10000270C, symSize: 0x44 }
  - { offsetInCU: 0x4D353, offset: 0x4D353, size: 0x8, addend: 0x0, symName: __ZNSt8__detail15_Hash_node_baseC2Ev, symObjAddr: 0x234, symBinAddr: 0x100002750, symSize: 0x1C }
  - { offsetInCU: 0x4D367, offset: 0x4D367, size: 0x8, addend: 0x0, symName: __ZNSt10_Hash_impl4hashEPKvmm, symObjAddr: 0x1C4, symBinAddr: 0x1000026E0, symSize: 0x2C }
  - { offsetInCU: 0x4D36F, offset: 0x4D36F, size: 0x8, addend: 0x0, symName: __ZNSt7__cxx114stoiERKNS_12basic_stringIcSt11char_traitsIcESaIcEEEPmi, symObjAddr: 0x1F0, symBinAddr: 0x10000270C, symSize: 0x44 }
  - { offsetInCU: 0x4D3BE, offset: 0x4D3BE, size: 0x8, addend: 0x0, symName: __ZNKSt4hashIiEclEi, symObjAddr: 0x1AC, symBinAddr: 0x1000026C8, symSize: 0x18 }
  - { offsetInCU: 0x4D3C6, offset: 0x4D3C6, size: 0x8, addend: 0x0, symName: __ZNSt10_Hash_impl4hashEPKvmm, symObjAddr: 0x1C4, symBinAddr: 0x1000026E0, symSize: 0x2C }
  - { offsetInCU: 0x4D400, offset: 0x4D400, size: 0x8, addend: 0x0, symName: __ZNSt11char_traitsIcE6lengthEPKc, symObjAddr: 0x16C, symBinAddr: 0x100002688, symSize: 0x40 }
  - { offsetInCU: 0x4D408, offset: 0x4D408, size: 0x8, addend: 0x0, symName: __ZNKSt4hashIiEclEi, symObjAddr: 0x1AC, symBinAddr: 0x1000026C8, symSize: 0x18 }
  - { offsetInCU: 0x4D433, offset: 0x4D433, size: 0x8, addend: 0x0, symName: __ZNSt11char_traitsIcE7compareEPKcS2_m, symObjAddr: 0x70, symBinAddr: 0x10000258C, symSize: 0xFC }
  - { offsetInCU: 0x4D43B, offset: 0x4D43B, size: 0x8, addend: 0x0, symName: __ZNSt11char_traitsIcE6lengthEPKc, symObjAddr: 0x16C, symBinAddr: 0x100002688, symSize: 0x40 }
  - { offsetInCU: 0x4D4B8, offset: 0x4D4B8, size: 0x8, addend: 0x0, symName: __ZNSt11char_traitsIcE2ltERKcS2_, symObjAddr: 0x38, symBinAddr: 0x100002554, symSize: 0x38 }
  - { offsetInCU: 0x4D4C0, offset: 0x4D4C0, size: 0x8, addend: 0x0, symName: __ZNSt11char_traitsIcE7compareEPKcS2_m, symObjAddr: 0x70, symBinAddr: 0x10000258C, symSize: 0xFC }
  - { offsetInCU: 0x4D50E, offset: 0x4D50E, size: 0x8, addend: 0x0, symName: __ZdlPvS_, symObjAddr: 0x20, symBinAddr: 0x10000253C, symSize: 0x18 }
  - { offsetInCU: 0x4D516, offset: 0x4D516, size: 0x8, addend: 0x0, symName: __ZNSt11char_traitsIcE2ltERKcS2_, symObjAddr: 0x38, symBinAddr: 0x100002554, symSize: 0x38 }
  - { offsetInCU: 0x4D54B, offset: 0x4D54B, size: 0x8, addend: 0x0, symName: __ZnwmPv, symObjAddr: 0x8, symBinAddr: 0x100002524, symSize: 0x18 }
  - { offsetInCU: 0x4D553, offset: 0x4D553, size: 0x8, addend: 0x0, symName: __ZdlPvS_, symObjAddr: 0x20, symBinAddr: 0x10000253C, symSize: 0x18 }
  - { offsetInCU: 0x4D5C0, offset: 0x4D5C0, size: 0x8, addend: 0x0, symName: __ZSt23__is_constant_evaluatedv, symObjAddr: 0x0, symBinAddr: 0x10000251C, symSize: 0x8 }
  - { offsetInCU: 0x4D5C8, offset: 0x4D5C8, size: 0x8, addend: 0x0, symName: __ZnwmPv, symObjAddr: 0x8, symBinAddr: 0x100002524, symSize: 0x18 }
...
